Archive member included because of file (symbol)

/mnt/Workspace/drone_parachute/build/core/core.a(exc.S.o)
                              (__exc_nmi)
/mnt/Workspace/drone_parachute/build/core/core.a(isrs.S.o)
                              (__stm32reservedexception7)
/mnt/Workspace/drone_parachute/build/core/core.a(vector_table.S.o)
                              (__stm32_vector_table)
/mnt/Workspace/drone_parachute/build/core/core.a(adc.c.o)
                              /mnt/Workspace/drone_parachute/build/core/wirish/boards.cpp.o (adc_set_sample_rate)
/mnt/Workspace/drone_parachute/build/core/core.a(adc_f1.c.o)
                              (__irq_adc)
/mnt/Workspace/drone_parachute/build/core/core.a(dma.c.o)
                              /mnt/Workspace/drone_parachute/build/libraries/SPI/SPI.cpp.o (dma_init)
/mnt/Workspace/drone_parachute/build/core/core.a(dma_f1.c.o)
                              /mnt/Workspace/drone_parachute/build/libraries/SPI/SPI.cpp.o (dma_set_priority)
/mnt/Workspace/drone_parachute/build/core/core.a(exti.c.o)
                              (__irq_exti0)
/mnt/Workspace/drone_parachute/build/core/core.a(exti_f1.c.o)
                              /mnt/Workspace/drone_parachute/build/core/core.a(exti.c.o) (exti_select)
/mnt/Workspace/drone_parachute/build/core/core.a(flash.c.o)
                              /mnt/Workspace/drone_parachute/build/core/wirish/boards.cpp.o (flash_set_latency)
/mnt/Workspace/drone_parachute/build/core/core.a(gpio_f1.c.o)
                              /mnt/Workspace/drone_parachute/build/core/wirish/boards_setup.cpp.o (gpio_init_all)
/mnt/Workspace/drone_parachute/build/core/core.a(i2c.c.o)
                              /mnt/Workspace/drone_parachute/build/libraries/Wire/Wire.cpp.o (i2c_master_xfer)
/mnt/Workspace/drone_parachute/build/core/core.a(i2c_f1.c.o)
                              /mnt/Workspace/drone_parachute/build/core/core.a(i2c.c.o) (i2c_config_gpios)
/mnt/Workspace/drone_parachute/build/core/core.a(nvic.c.o)
                              /mnt/Workspace/drone_parachute/build/core/core.a(i2c_f1.c.o) (nvic_irq_set_priority)
/mnt/Workspace/drone_parachute/build/core/core.a(rcc.c.o)
                              /mnt/Workspace/drone_parachute/build/libraries/SPI/SPI.cpp.o (rcc_dev_clk)
/mnt/Workspace/drone_parachute/build/core/core.a(rcc_f1.c.o)
                              /mnt/Workspace/drone_parachute/build/core/wirish/boards.cpp.o (rcc_configure_pll)
/mnt/Workspace/drone_parachute/build/core/core.a(spi.c.o)
                              /mnt/Workspace/drone_parachute/build/libraries/SPI/SPI.cpp.o (spi_init)
/mnt/Workspace/drone_parachute/build/core/core.a(spi_f1.c.o)
                              /mnt/Workspace/drone_parachute/build/libraries/SPI/SPI.cpp.o (spi_config_gpios)
/mnt/Workspace/drone_parachute/build/core/core.a(systick.c.o)
                              /mnt/Workspace/drone_parachute/build/core/wirish/boards.cpp.o (systick_init)
/mnt/Workspace/drone_parachute/build/core/core.a(timer.c.o)
                              /mnt/Workspace/drone_parachute/build/core/wirish/boards.cpp.o (timer_foreach)
/mnt/Workspace/drone_parachute/build/core/core.a(usart_f1.c.o)
                              (__irq_usart1)
/mnt/Workspace/drone_parachute/build/core/core.a(usart_private.c.o)
                              /mnt/Workspace/drone_parachute/build/core/core.a(usart_f1.c.o) (_usart_clock_freq)
/mnt/Workspace/drone_parachute/build/core/core.a(usb.c.o)
                              (__irq_usb_lp_can_rx0)
/mnt/Workspace/drone_parachute/build/core/core.a(usb_cdcacm.c.o)
                              /mnt/Workspace/drone_parachute/build/core/core.a(usb.c.o) (User_Standard_Requests)
/mnt/Workspace/drone_parachute/build/core/core.a(usb_reg_map.c.o)
                              /mnt/Workspace/drone_parachute/build/core/core.a(usb_cdcacm.c.o) (usb_set_ep_rx_count)
/mnt/Workspace/drone_parachute/build/core/core.a(usb_core.c.o)
                              /mnt/Workspace/drone_parachute/build/core/core.a(usb_cdcacm.c.o) (Standard_GetDescriptorData)
/mnt/Workspace/drone_parachute/build/core/core.a(usb_init.c.o)
                              /mnt/Workspace/drone_parachute/build/core/core.a(usb.c.o) (pInformation)
/mnt/Workspace/drone_parachute/build/core/core.a(usb_mem.c.o)
                              /mnt/Workspace/drone_parachute/build/core/core.a(usb_core.c.o) (UserToPMABufferCopy)
/mnt/Workspace/drone_parachute/build/core/core.a(usb_regs.c.o)
                              /mnt/Workspace/drone_parachute/build/core/core.a(usb_core.c.o) (SetEPTxStatus)
/mnt/Workspace/drone_parachute/build/core/core.a(util.c.o)
                              /mnt/Workspace/drone_parachute/build/core/core.a(exc.S.o) (__error)
/mnt/Workspace/drone_parachute/build/core/core.a(HardwareSerial.cpp.o)
                              /mnt/Workspace/drone_parachute/build/core/board.cpp.o (HardwareSerial::HardwareSerial(usart_dev*, unsigned char, unsigned char))
/mnt/Workspace/drone_parachute/build/core/core.a(Print.cpp.o)
                              /mnt/Workspace/drone_parachute/build/core/core.a(HardwareSerial.cpp.o) (Print::write(void const*, unsigned long))
/mnt/Workspace/drone_parachute/build/core/core.a(cxxabi-compat.cpp.o)
                              /mnt/Workspace/drone_parachute/build/libraries/Wire/utility/WireBase.cpp.o (__cxa_pure_virtual)
/mnt/Workspace/drone_parachute/build/core/core.a(main.cpp.o)
                              (main)
/mnt/Workspace/drone_parachute/build/core/core.a(pwm.cpp.o)
                              /mnt/Workspace/drone_parachute/build/libraries/Servo/Servo.cpp.o (pwmWrite(unsigned char, unsigned short))
/mnt/Workspace/drone_parachute/build/core/core.a(wirish_digital_f1.cpp.o)
                              /mnt/Workspace/drone_parachute/build/sketch/main.ino.cpp.o (pinMode(unsigned char, WiringPinMode))
/mnt/Workspace/drone_parachute/build/core/core.a(wirish_analog.cpp.o)
                              /mnt/Workspace/drone_parachute/build/sketch/main.ino.cpp.o (analogRead(unsigned char))
/mnt/Workspace/drone_parachute/build/core/core.a(wirish_digital.cpp.o)
                              /mnt/Workspace/drone_parachute/build/libraries/Wire/SoftWire.cpp.o (digitalRead(unsigned char))
/mnt/Workspace/drone_parachute/build/core/core.a(wirish_time.cpp.o)
                              /mnt/Workspace/drone_parachute/build/sketch/main.ino.cpp.o (delay(unsigned long))
/mnt/Workspace/drone_parachute/build/core/core.a(hooks.c.o)
                              /mnt/Workspace/drone_parachute/build/core/core.a(wirish_time.cpp.o) (yield)
/mnt/Workspace/drone_parachute/build/core/core.a(gpio.c.o)
                              /mnt/Workspace/drone_parachute/build/core/core.a(gpio_f1.c.o) (gpio_init)
/mnt/Workspace/drone_parachute/build/core/core.a(usart.c.o)
                              /mnt/Workspace/drone_parachute/build/core/core.a(HardwareSerial.cpp.o) (usart_init)
/home/param/.arduino15/packages/arduino/tools/arm-none-eabi-gcc/4.8.3-2014q1/bin/../lib/gcc/arm-none-eabi/4.8.3/../../../../arm-none-eabi/lib/armv7-m/libm.a(lib_a-w_sqrt.o)
                              /mnt/Workspace/drone_parachute/build/sketch/main.ino.cpp.o (sqrt)
/home/param/.arduino15/packages/arduino/tools/arm-none-eabi-gcc/4.8.3-2014q1/bin/../lib/gcc/arm-none-eabi/4.8.3/../../../../arm-none-eabi/lib/armv7-m/libm.a(lib_a-e_sqrt.o)
                              /home/param/.arduino15/packages/arduino/tools/arm-none-eabi-gcc/4.8.3-2014q1/bin/../lib/gcc/arm-none-eabi/4.8.3/../../../../arm-none-eabi/lib/armv7-m/libm.a(lib_a-w_sqrt.o) (__ieee754_sqrt)
/home/param/.arduino15/packages/arduino/tools/arm-none-eabi-gcc/4.8.3-2014q1/bin/../lib/gcc/arm-none-eabi/4.8.3/../../../../arm-none-eabi/lib/armv7-m/libm.a(lib_a-s_fpclassify.o)
                              /home/param/.arduino15/packages/arduino/tools/arm-none-eabi-gcc/4.8.3-2014q1/bin/../lib/gcc/arm-none-eabi/4.8.3/../../../../arm-none-eabi/lib/armv7-m/libm.a(lib_a-w_sqrt.o) (__fpclassifyd)
/home/param/.arduino15/packages/arduino/tools/arm-none-eabi-gcc/4.8.3-2014q1/bin/../lib/gcc/arm-none-eabi/4.8.3/../../../../arm-none-eabi/lib/armv7-m/libm.a(lib_a-s_lib_ver.o)
                              /home/param/.arduino15/packages/arduino/tools/arm-none-eabi-gcc/4.8.3-2014q1/bin/../lib/gcc/arm-none-eabi/4.8.3/../../../../arm-none-eabi/lib/armv7-m/libm.a(lib_a-w_sqrt.o) (__fdlib_version)
/home/param/.arduino15/packages/arduino/tools/arm-none-eabi-gcc/4.8.3-2014q1/bin/../lib/gcc/arm-none-eabi/4.8.3/../../../../arm-none-eabi/lib/armv7-m/libm.a(lib_a-s_matherr.o)
                              /home/param/.arduino15/packages/arduino/tools/arm-none-eabi-gcc/4.8.3-2014q1/bin/../lib/gcc/arm-none-eabi/4.8.3/../../../../arm-none-eabi/lib/armv7-m/libm.a(lib_a-w_sqrt.o) (matherr)
/home/param/.arduino15/packages/arduino/tools/arm-none-eabi-gcc/4.8.3-2014q1/bin/../lib/gcc/arm-none-eabi/4.8.3/armv7-m/libgcc.a(_arm_addsubdf3.o)
                              /mnt/Workspace/drone_parachute/build/sketch/main.ino.cpp.o (__aeabi_dsub)
/home/param/.arduino15/packages/arduino/tools/arm-none-eabi-gcc/4.8.3-2014q1/bin/../lib/gcc/arm-none-eabi/4.8.3/armv7-m/libgcc.a(_arm_muldivdf3.o)
                              /mnt/Workspace/drone_parachute/build/core/core.a(Print.cpp.o) (__aeabi_dmul)
/home/param/.arduino15/packages/arduino/tools/arm-none-eabi-gcc/4.8.3-2014q1/bin/../lib/gcc/arm-none-eabi/4.8.3/armv7-m/libgcc.a(_arm_cmpdf2.o)
                              /mnt/Workspace/drone_parachute/build/libraries/Bolder_Flight_Systems_MPU9250/MPU9250.cpp.o (__aeabi_dcmplt)
/home/param/.arduino15/packages/arduino/tools/arm-none-eabi-gcc/4.8.3-2014q1/bin/../lib/gcc/arm-none-eabi/4.8.3/armv7-m/libgcc.a(_arm_fixdfsi.o)
                              /mnt/Workspace/drone_parachute/build/core/core.a(Print.cpp.o) (__aeabi_d2iz)
/home/param/.arduino15/packages/arduino/tools/arm-none-eabi-gcc/4.8.3-2014q1/bin/../lib/gcc/arm-none-eabi/4.8.3/armv7-m/libgcc.a(_arm_truncdfsf2.o)
                              /mnt/Workspace/drone_parachute/build/sketch/main.ino.cpp.o (__aeabi_d2f)
/home/param/.arduino15/packages/arduino/tools/arm-none-eabi-gcc/4.8.3-2014q1/bin/../lib/gcc/arm-none-eabi/4.8.3/armv7-m/libgcc.a(_arm_addsubsf3.o)
                              /mnt/Workspace/drone_parachute/build/libraries/Bolder_Flight_Systems_MPU9250/MPU9250.cpp.o (__aeabi_fsub)
/home/param/.arduino15/packages/arduino/tools/arm-none-eabi-gcc/4.8.3-2014q1/bin/../lib/gcc/arm-none-eabi/4.8.3/armv7-m/libgcc.a(_arm_muldivsf3.o)
                              /mnt/Workspace/drone_parachute/build/sketch/main.ino.cpp.o (__aeabi_fmul)
/home/param/.arduino15/packages/arduino/tools/arm-none-eabi-gcc/4.8.3-2014q1/bin/../lib/gcc/arm-none-eabi/4.8.3/armv7-m/libgcc.a(_arm_cmpsf2.o)
                              /mnt/Workspace/drone_parachute/build/sketch/main.ino.cpp.o (__aeabi_fcmplt)
/home/param/.arduino15/packages/arduino/tools/arm-none-eabi-gcc/4.8.3-2014q1/bin/../lib/gcc/arm-none-eabi/4.8.3/armv7-m/libgcc.a(_arm_fixsfsi.o)
                              /mnt/Workspace/drone_parachute/build/libraries/Bolder_Flight_Systems_MPU9250/MPU9250.cpp.o (__aeabi_f2iz)
/home/param/.arduino15/packages/arduino/tools/arm-none-eabi-gcc/4.8.3-2014q1/bin/../lib/gcc/arm-none-eabi/4.8.3/armv7-m/libgcc.a(_aeabi_ldivmod.o)
                              /mnt/Workspace/drone_parachute/build/libraries/Bolder_Flight_Systems_MPU9250/MPU9250.cpp.o (__aeabi_ldivmod)
/home/param/.arduino15/packages/arduino/tools/arm-none-eabi-gcc/4.8.3-2014q1/bin/../lib/gcc/arm-none-eabi/4.8.3/armv7-m/libgcc.a(_aeabi_uldivmod.o)
                              /mnt/Workspace/drone_parachute/build/core/core.a(Print.cpp.o) (__aeabi_uldivmod)
/home/param/.arduino15/packages/arduino/tools/arm-none-eabi-gcc/4.8.3-2014q1/bin/../lib/gcc/arm-none-eabi/4.8.3/armv7-m/libgcc.a(_fixdfdi.o)
                              /mnt/Workspace/drone_parachute/build/core/core.a(Print.cpp.o) (__aeabi_d2lz)
/home/param/.arduino15/packages/arduino/tools/arm-none-eabi-gcc/4.8.3-2014q1/bin/../lib/gcc/arm-none-eabi/4.8.3/armv7-m/libgcc.a(_fixunsdfdi.o)
                              /home/param/.arduino15/packages/arduino/tools/arm-none-eabi-gcc/4.8.3-2014q1/bin/../lib/gcc/arm-none-eabi/4.8.3/armv7-m/libgcc.a(_fixdfdi.o) (__aeabi_d2ulz)
/home/param/.arduino15/packages/arduino/tools/arm-none-eabi-gcc/4.8.3-2014q1/bin/../lib/gcc/arm-none-eabi/4.8.3/armv7-m/libgcc.a(bpabi.o)
                              /home/param/.arduino15/packages/arduino/tools/arm-none-eabi-gcc/4.8.3-2014q1/bin/../lib/gcc/arm-none-eabi/4.8.3/armv7-m/libgcc.a(_aeabi_ldivmod.o) (__gnu_ldivmod_helper)
/home/param/.arduino15/packages/arduino/tools/arm-none-eabi-gcc/4.8.3-2014q1/bin/../lib/gcc/arm-none-eabi/4.8.3/armv7-m/libgcc.a(_dvmd_tls.o)
                              /home/param/.arduino15/packages/arduino/tools/arm-none-eabi-gcc/4.8.3-2014q1/bin/../lib/gcc/arm-none-eabi/4.8.3/armv7-m/libgcc.a(_aeabi_ldivmod.o) (__aeabi_ldiv0)
/home/param/.arduino15/packages/arduino/tools/arm-none-eabi-gcc/4.8.3-2014q1/bin/../lib/gcc/arm-none-eabi/4.8.3/armv7-m/libgcc.a(_arm_fixunsdfsi.o)
                              /home/param/.arduino15/packages/arduino/tools/arm-none-eabi-gcc/4.8.3-2014q1/bin/../lib/gcc/arm-none-eabi/4.8.3/armv7-m/libgcc.a(_fixunsdfdi.o) (__aeabi_d2uiz)
/home/param/.arduino15/packages/arduino/tools/arm-none-eabi-gcc/4.8.3-2014q1/bin/../lib/gcc/arm-none-eabi/4.8.3/armv7-m/libgcc.a(_divdi3.o)
                              /home/param/.arduino15/packages/arduino/tools/arm-none-eabi-gcc/4.8.3-2014q1/bin/../lib/gcc/arm-none-eabi/4.8.3/armv7-m/libgcc.a(bpabi.o) (__divdi3)
/home/param/.arduino15/packages/arduino/tools/arm-none-eabi-gcc/4.8.3-2014q1/bin/../lib/gcc/arm-none-eabi/4.8.3/armv7-m/libgcc.a(_udivdi3.o)
                              /home/param/.arduino15/packages/arduino/tools/arm-none-eabi-gcc/4.8.3-2014q1/bin/../lib/gcc/arm-none-eabi/4.8.3/armv7-m/libgcc.a(bpabi.o) (__udivdi3)
/home/param/.arduino15/packages/arduino/tools/arm-none-eabi-gcc/4.8.3-2014q1/bin/../lib/gcc/arm-none-eabi/4.8.3/../../../../arm-none-eabi/lib/armv7-m/libc.a(lib_a-errno.o)
                              /mnt/Workspace/drone_parachute/build/core/wirish/syscalls.c.o (__errno)
/home/param/.arduino15/packages/arduino/tools/arm-none-eabi-gcc/4.8.3-2014q1/bin/../lib/gcc/arm-none-eabi/4.8.3/../../../../arm-none-eabi/lib/armv7-m/libc.a(lib_a-exit.o)
                              /home/param/.arduino15/packages/arduino/tools/arm-none-eabi-gcc/4.8.3-2014q1/bin/../lib/gcc/arm-none-eabi/4.8.3/../../../../arm-none-eabi/lib/armv7-m/crt0.o (exit)
/home/param/.arduino15/packages/arduino/tools/arm-none-eabi-gcc/4.8.3-2014q1/bin/../lib/gcc/arm-none-eabi/4.8.3/../../../../arm-none-eabi/lib/armv7-m/libc.a(lib_a-impure.o)
                              /home/param/.arduino15/packages/arduino/tools/arm-none-eabi-gcc/4.8.3-2014q1/bin/../lib/gcc/arm-none-eabi/4.8.3/../../../../arm-none-eabi/lib/armv7-m/libc.a(lib_a-exit.o) (_global_impure_ptr)
/home/param/.arduino15/packages/arduino/tools/arm-none-eabi-gcc/4.8.3-2014q1/bin/../lib/gcc/arm-none-eabi/4.8.3/../../../../arm-none-eabi/lib/armv7-m/libc.a(lib_a-init.o)
                              /home/param/.arduino15/packages/arduino/tools/arm-none-eabi-gcc/4.8.3-2014q1/bin/../lib/gcc/arm-none-eabi/4.8.3/../../../../arm-none-eabi/lib/armv7-m/crt0.o (__libc_init_array)
/home/param/.arduino15/packages/arduino/tools/arm-none-eabi-gcc/4.8.3-2014q1/bin/../lib/gcc/arm-none-eabi/4.8.3/../../../../arm-none-eabi/lib/armv7-m/libc.a(lib_a-memcpy.o)
                              /mnt/Workspace/drone_parachute/build/libraries/Bolder_Flight_Systems_MPU9250/MPU9250.cpp.o (memcpy)
/home/param/.arduino15/packages/arduino/tools/arm-none-eabi-gcc/4.8.3-2014q1/bin/../lib/gcc/arm-none-eabi/4.8.3/../../../../arm-none-eabi/lib/armv7-m/libc.a(lib_a-memset.o)
                              /home/param/.arduino15/packages/arduino/tools/arm-none-eabi-gcc/4.8.3-2014q1/bin/../lib/gcc/arm-none-eabi/4.8.3/../../../../arm-none-eabi/lib/armv7-m/crt0.o (memset)
/home/param/.arduino15/packages/arduino/tools/arm-none-eabi-gcc/4.8.3-2014q1/bin/../lib/gcc/arm-none-eabi/4.8.3/../../../../arm-none-eabi/lib/armv7-m/libc.a(lib_a-strcpy.o)
                              /mnt/Workspace/drone_parachute/build/core/core.a(cxxabi-compat.cpp.o) (strcpy)
/home/param/.arduino15/packages/arduino/tools/arm-none-eabi-gcc/4.8.3-2014q1/bin/../lib/gcc/arm-none-eabi/4.8.3/../../../../arm-none-eabi/lib/armv7-m/libc.a(lib_a-strlen.o)
                              /mnt/Workspace/drone_parachute/build/core/core.a(Print.cpp.o) (strlen)
/home/param/.arduino15/packages/arduino/tools/arm-none-eabi-gcc/4.8.3-2014q1/bin/../lib/gcc/arm-none-eabi/4.8.3/../../../../arm-none-eabi/lib/armv7-m/libc.a(lib_a-__call_atexit.o)
                              /home/param/.arduino15/packages/arduino/tools/arm-none-eabi-gcc/4.8.3-2014q1/bin/../lib/gcc/arm-none-eabi/4.8.3/../../../../arm-none-eabi/lib/armv7-m/libc.a(lib_a-exit.o) (__call_exitprocs)
/home/param/.arduino15/packages/arduino/tools/arm-none-eabi-gcc/4.8.3-2014q1/bin/../lib/gcc/arm-none-eabi/4.8.3/../../../../arm-none-eabi/lib/armv7-m/libc.a(lib_a-atexit.o)
                              /home/param/.arduino15/packages/arduino/tools/arm-none-eabi-gcc/4.8.3-2014q1/bin/../lib/gcc/arm-none-eabi/4.8.3/../../../../arm-none-eabi/lib/armv7-m/libc.a(lib_a-__call_atexit.o) (atexit)
/home/param/.arduino15/packages/arduino/tools/arm-none-eabi-gcc/4.8.3-2014q1/bin/../lib/gcc/arm-none-eabi/4.8.3/../../../../arm-none-eabi/lib/armv7-m/libc.a(lib_a-fini.o)
                              /home/param/.arduino15/packages/arduino/tools/arm-none-eabi-gcc/4.8.3-2014q1/bin/../lib/gcc/arm-none-eabi/4.8.3/../../../../arm-none-eabi/lib/armv7-m/libc.a(lib_a-__call_atexit.o) (__libc_fini_array)
/home/param/.arduino15/packages/arduino/tools/arm-none-eabi-gcc/4.8.3-2014q1/bin/../lib/gcc/arm-none-eabi/4.8.3/../../../../arm-none-eabi/lib/armv7-m/libc.a(lib_a-__atexit.o)
                              /home/param/.arduino15/packages/arduino/tools/arm-none-eabi-gcc/4.8.3-2014q1/bin/../lib/gcc/arm-none-eabi/4.8.3/../../../../arm-none-eabi/lib/armv7-m/libc.a(lib_a-atexit.o) (__register_exitproc)

Allocating common symbols
Common symbol       size              file

SaveRState          0x2               /mnt/Workspace/drone_parachute/build/core/core.a(usb.c.o)
SaveState           0x2               /mnt/Workspace/drone_parachute/build/core/core.a(usb_init.c.o)
pProperty           0x4               /mnt/Workspace/drone_parachute/build/core/core.a(usb_init.c.o)
EPindex             0x1               /mnt/Workspace/drone_parachute/build/core/core.a(usb_init.c.o)
SaveTState          0x2               /mnt/Workspace/drone_parachute/build/core/core.a(usb.c.o)
systick_uptime_millis
                    0x4               /mnt/Workspace/drone_parachute/build/core/core.a(systick.c.o)
Device_Info         0x1c              /mnt/Workspace/drone_parachute/build/core/core.a(usb_init.c.o)
pUser_Standard_Requests
                    0x4               /mnt/Workspace/drone_parachute/build/core/core.a(usb_init.c.o)
StatusInfo          0x2               /mnt/Workspace/drone_parachute/build/core/core.a(usb_core.c.o)
pInformation        0x4               /mnt/Workspace/drone_parachute/build/core/core.a(usb_init.c.o)
ResumeS             0x2               /mnt/Workspace/drone_parachute/build/core/core.a(usb.c.o)
wInterrupt_Mask     0x2               /mnt/Workspace/drone_parachute/build/core/core.a(usb_init.c.o)

Discarded input sections

 .text          0x0000000000000000        0x0 /home/param/.arduino15/packages/arduino/tools/arm-none-eabi-gcc/4.8.3-2014q1/bin/../lib/gcc/arm-none-eabi/4.8.3/armv7-m/crti.o
 .data          0x0000000000000000        0x0 /home/param/.arduino15/packages/arduino/tools/arm-none-eabi-gcc/4.8.3-2014q1/bin/../lib/gcc/arm-none-eabi/4.8.3/armv7-m/crti.o
 .bss           0x0000000000000000        0x0 /home/param/.arduino15/packages/arduino/tools/arm-none-eabi-gcc/4.8.3-2014q1/bin/../lib/gcc/arm-none-eabi/4.8.3/armv7-m/crti.o
 .data          0x0000000000000000        0x4 /home/param/.arduino15/packages/arduino/tools/arm-none-eabi-gcc/4.8.3-2014q1/bin/../lib/gcc/arm-none-eabi/4.8.3/armv7-m/crtbegin.o
 .text          0x0000000000000000       0x74 /home/param/.arduino15/packages/arduino/tools/arm-none-eabi-gcc/4.8.3-2014q1/bin/../lib/gcc/arm-none-eabi/4.8.3/../../../../arm-none-eabi/lib/armv7-m/crt0.o
 .data          0x0000000000000000        0x0 /home/param/.arduino15/packages/arduino/tools/arm-none-eabi-gcc/4.8.3-2014q1/bin/../lib/gcc/arm-none-eabi/4.8.3/../../../../arm-none-eabi/lib/armv7-m/crt0.o
 .bss           0x0000000000000000        0x0 /home/param/.arduino15/packages/arduino/tools/arm-none-eabi-gcc/4.8.3-2014q1/bin/../lib/gcc/arm-none-eabi/4.8.3/../../../../arm-none-eabi/lib/armv7-m/crt0.o
 .ARM.extab     0x0000000000000000        0x0 /home/param/.arduino15/packages/arduino/tools/arm-none-eabi-gcc/4.8.3-2014q1/bin/../lib/gcc/arm-none-eabi/4.8.3/../../../../arm-none-eabi/lib/armv7-m/crt0.o
 .ARM.exidx     0x0000000000000000        0x8 /home/param/.arduino15/packages/arduino/tools/arm-none-eabi-gcc/4.8.3-2014q1/bin/../lib/gcc/arm-none-eabi/4.8.3/../../../../arm-none-eabi/lib/armv7-m/crt0.o
 .text          0x0000000000000000        0x0 /mnt/Workspace/drone_parachute/build/sketch/main.ino.cpp.o
 .data          0x0000000000000000        0x0 /mnt/Workspace/drone_parachute/build/sketch/main.ino.cpp.o
 .bss           0x0000000000000000        0x0 /mnt/Workspace/drone_parachute/build/sketch/main.ino.cpp.o
 .text._Z16executioner_initv
                0x0000000000000000        0x2 /mnt/Workspace/drone_parachute/build/sketch/main.ino.cpp.o
 .text._Z12handler_tim2v
                0x0000000000000000        0x4 /mnt/Workspace/drone_parachute/build/sketch/main.ino.cpp.o
 .text          0x0000000000000000        0x0 /mnt/Workspace/drone_parachute/build/libraries/Bolder_Flight_Systems_MPU9250/MPU9250.cpp.o
 .data          0x0000000000000000        0x0 /mnt/Workspace/drone_parachute/build/libraries/Bolder_Flight_Systems_MPU9250/MPU9250.cpp.o
 .bss           0x0000000000000000        0x0 /mnt/Workspace/drone_parachute/build/libraries/Bolder_Flight_Systems_MPU9250/MPU9250.cpp.o
 .text._ZN7MPU9250C2ER8SPIClassh
                0x0000000000000000      0x294 /mnt/Workspace/drone_parachute/build/libraries/Bolder_Flight_Systems_MPU9250/MPU9250.cpp.o
 .text._ZN11MPU9250FIFO17getFifoAccelX_mssEPjPf
                0x0000000000000000       0x1e /mnt/Workspace/drone_parachute/build/libraries/Bolder_Flight_Systems_MPU9250/MPU9250.cpp.o
 .text._ZN11MPU9250FIFO17getFifoAccelY_mssEPjPf
                0x0000000000000000       0x1e /mnt/Workspace/drone_parachute/build/libraries/Bolder_Flight_Systems_MPU9250/MPU9250.cpp.o
 .text._ZN11MPU9250FIFO17getFifoAccelZ_mssEPjPf
                0x0000000000000000       0x1e /mnt/Workspace/drone_parachute/build/libraries/Bolder_Flight_Systems_MPU9250/MPU9250.cpp.o
 .text._ZN11MPU9250FIFO17getFifoGyroX_radsEPjPf
                0x0000000000000000       0x1e /mnt/Workspace/drone_parachute/build/libraries/Bolder_Flight_Systems_MPU9250/MPU9250.cpp.o
 .text._ZN11MPU9250FIFO17getFifoGyroY_radsEPjPf
                0x0000000000000000       0x1e /mnt/Workspace/drone_parachute/build/libraries/Bolder_Flight_Systems_MPU9250/MPU9250.cpp.o
 .text._ZN11MPU9250FIFO17getFifoGyroZ_radsEPjPf
                0x0000000000000000       0x1e /mnt/Workspace/drone_parachute/build/libraries/Bolder_Flight_Systems_MPU9250/MPU9250.cpp.o
 .text._ZN11MPU9250FIFO14getFifoMagX_uTEPjPf
                0x0000000000000000       0x1e /mnt/Workspace/drone_parachute/build/libraries/Bolder_Flight_Systems_MPU9250/MPU9250.cpp.o
 .text._ZN11MPU9250FIFO14getFifoMagY_uTEPjPf
                0x0000000000000000       0x1e /mnt/Workspace/drone_parachute/build/libraries/Bolder_Flight_Systems_MPU9250/MPU9250.cpp.o
 .text._ZN11MPU9250FIFO14getFifoMagZ_uTEPjPf
                0x0000000000000000       0x1e /mnt/Workspace/drone_parachute/build/libraries/Bolder_Flight_Systems_MPU9250/MPU9250.cpp.o
 .text._ZN11MPU9250FIFO20getFifoTemperature_CEPjPf
                0x0000000000000000       0x1e /mnt/Workspace/drone_parachute/build/libraries/Bolder_Flight_Systems_MPU9250/MPU9250.cpp.o
 .text._ZN7MPU925017getGyroBiasX_radsEv
                0x0000000000000000        0x6 /mnt/Workspace/drone_parachute/build/libraries/Bolder_Flight_Systems_MPU9250/MPU9250.cpp.o
 .text._ZN7MPU925017getGyroBiasY_radsEv
                0x0000000000000000        0x6 /mnt/Workspace/drone_parachute/build/libraries/Bolder_Flight_Systems_MPU9250/MPU9250.cpp.o
 .text._ZN7MPU925017getGyroBiasZ_radsEv
                0x0000000000000000        0x6 /mnt/Workspace/drone_parachute/build/libraries/Bolder_Flight_Systems_MPU9250/MPU9250.cpp.o
 .text._ZN7MPU925017setGyroBiasX_radsEf
                0x0000000000000000        0x6 /mnt/Workspace/drone_parachute/build/libraries/Bolder_Flight_Systems_MPU9250/MPU9250.cpp.o
 .text._ZN7MPU925017setGyroBiasY_radsEf
                0x0000000000000000        0x6 /mnt/Workspace/drone_parachute/build/libraries/Bolder_Flight_Systems_MPU9250/MPU9250.cpp.o
 .text._ZN7MPU925017setGyroBiasZ_radsEf
                0x0000000000000000        0x6 /mnt/Workspace/drone_parachute/build/libraries/Bolder_Flight_Systems_MPU9250/MPU9250.cpp.o
 .text._ZN7MPU925017getAccelBiasX_mssEv
                0x0000000000000000        0x6 /mnt/Workspace/drone_parachute/build/libraries/Bolder_Flight_Systems_MPU9250/MPU9250.cpp.o
 .text._ZN7MPU925020getAccelScaleFactorXEv
                0x0000000000000000        0x6 /mnt/Workspace/drone_parachute/build/libraries/Bolder_Flight_Systems_MPU9250/MPU9250.cpp.o
 .text._ZN7MPU925017getAccelBiasY_mssEv
                0x0000000000000000        0x6 /mnt/Workspace/drone_parachute/build/libraries/Bolder_Flight_Systems_MPU9250/MPU9250.cpp.o
 .text._ZN7MPU925020getAccelScaleFactorYEv
                0x0000000000000000        0x6 /mnt/Workspace/drone_parachute/build/libraries/Bolder_Flight_Systems_MPU9250/MPU9250.cpp.o
 .text._ZN7MPU925017getAccelBiasZ_mssEv
                0x0000000000000000        0x6 /mnt/Workspace/drone_parachute/build/libraries/Bolder_Flight_Systems_MPU9250/MPU9250.cpp.o
 .text._ZN7MPU925020getAccelScaleFactorZEv
                0x0000000000000000        0x6 /mnt/Workspace/drone_parachute/build/libraries/Bolder_Flight_Systems_MPU9250/MPU9250.cpp.o
 .text._ZN7MPU925012setAccelCalXEff
                0x0000000000000000        0xa /mnt/Workspace/drone_parachute/build/libraries/Bolder_Flight_Systems_MPU9250/MPU9250.cpp.o
 .text._ZN7MPU925012setAccelCalYEff
                0x0000000000000000        0xa /mnt/Workspace/drone_parachute/build/libraries/Bolder_Flight_Systems_MPU9250/MPU9250.cpp.o
 .text._ZN7MPU925012setAccelCalZEff
                0x0000000000000000        0xa /mnt/Workspace/drone_parachute/build/libraries/Bolder_Flight_Systems_MPU9250/MPU9250.cpp.o
 .text._ZN7MPU925014getMagBiasX_uTEv
                0x0000000000000000        0x6 /mnt/Workspace/drone_parachute/build/libraries/Bolder_Flight_Systems_MPU9250/MPU9250.cpp.o
 .text._ZN7MPU925018getMagScaleFactorXEv
                0x0000000000000000        0x6 /mnt/Workspace/drone_parachute/build/libraries/Bolder_Flight_Systems_MPU9250/MPU9250.cpp.o
 .text._ZN7MPU925014getMagBiasY_uTEv
                0x0000000000000000        0x6 /mnt/Workspace/drone_parachute/build/libraries/Bolder_Flight_Systems_MPU9250/MPU9250.cpp.o
 .text._ZN7MPU925018getMagScaleFactorYEv
                0x0000000000000000        0x6 /mnt/Workspace/drone_parachute/build/libraries/Bolder_Flight_Systems_MPU9250/MPU9250.cpp.o
 .text._ZN7MPU925014getMagBiasZ_uTEv
                0x0000000000000000        0x6 /mnt/Workspace/drone_parachute/build/libraries/Bolder_Flight_Systems_MPU9250/MPU9250.cpp.o
 .text._ZN7MPU925018getMagScaleFactorZEv
                0x0000000000000000        0x6 /mnt/Workspace/drone_parachute/build/libraries/Bolder_Flight_Systems_MPU9250/MPU9250.cpp.o
 .text._ZN7MPU925010setMagCalXEff
                0x0000000000000000        0xa /mnt/Workspace/drone_parachute/build/libraries/Bolder_Flight_Systems_MPU9250/MPU9250.cpp.o
 .text._ZN7MPU925010setMagCalYEff
                0x0000000000000000        0xa /mnt/Workspace/drone_parachute/build/libraries/Bolder_Flight_Systems_MPU9250/MPU9250.cpp.o
 .text._ZN7MPU925010setMagCalZEff
                0x0000000000000000        0xa /mnt/Workspace/drone_parachute/build/libraries/Bolder_Flight_Systems_MPU9250/MPU9250.cpp.o
 .text._ZN11MPU9250FIFO8readFifoEv
                0x0000000000000000      0x38c /mnt/Workspace/drone_parachute/build/libraries/Bolder_Flight_Systems_MPU9250/MPU9250.cpp.o
 .text._ZN7MPU925024enableDataReadyInterruptEv
                0x0000000000000000       0x38 /mnt/Workspace/drone_parachute/build/libraries/Bolder_Flight_Systems_MPU9250/MPU9250.cpp.o
 .text._ZN7MPU925025disableDataReadyInterruptEv
                0x0000000000000000       0x1e /mnt/Workspace/drone_parachute/build/libraries/Bolder_Flight_Systems_MPU9250/MPU9250.cpp.o
 .text._ZN11MPU9250FIFO10enableFifoEbbbb
                0x0000000000000000       0x92 /mnt/Workspace/drone_parachute/build/libraries/Bolder_Flight_Systems_MPU9250/MPU9250.cpp.o
 .text._ZN7MPU925018enableWakeOnMotionEfNS_10LpAccelOdrE
                0x0000000000000000      0x108 /mnt/Workspace/drone_parachute/build/libraries/Bolder_Flight_Systems_MPU9250/MPU9250.cpp.o
 .text._ZN7MPU925014calibrateAccelEv
                0x0000000000000000      0x418 /mnt/Workspace/drone_parachute/build/libraries/Bolder_Flight_Systems_MPU9250/MPU9250.cpp.o
 .text._ZN7MPU925012calibrateMagEv
                0x0000000000000000      0x368 /mnt/Workspace/drone_parachute/build/libraries/Bolder_Flight_Systems_MPU9250/MPU9250.cpp.o
 .text          0x0000000000000000        0x0 /mnt/Workspace/drone_parachute/build/libraries/Wire/SoftWire.cpp.o
 .data          0x0000000000000000        0x0 /mnt/Workspace/drone_parachute/build/libraries/Wire/SoftWire.cpp.o
 .bss           0x0000000000000000        0x0 /mnt/Workspace/drone_parachute/build/libraries/Wire/SoftWire.cpp.o
 .text._ZN8SoftWire7processEv
                0x0000000000000000        0xc /mnt/Workspace/drone_parachute/build/libraries/Wire/SoftWire.cpp.o
 .text._ZN8SoftWire3endEv
                0x0000000000000000       0x22 /mnt/Workspace/drone_parachute/build/libraries/Wire/SoftWire.cpp.o
 .text._ZN8SoftWire7set_sclEb
                0x0000000000000000       0x3a /mnt/Workspace/drone_parachute/build/libraries/Wire/SoftWire.cpp.o
 .text._ZN8SoftWire7set_sdaEb
                0x0000000000000000       0x2a /mnt/Workspace/drone_parachute/build/libraries/Wire/SoftWire.cpp.o
 .text._ZN8SoftWire5beginEh
                0x0000000000000000       0x68 /mnt/Workspace/drone_parachute/build/libraries/Wire/SoftWire.cpp.o
 .text._ZN8SoftWire9i2c_startEv
                0x0000000000000000       0x16 /mnt/Workspace/drone_parachute/build/libraries/Wire/SoftWire.cpp.o
 .text._ZN8SoftWire8i2c_stopEv
                0x0000000000000000       0x1e /mnt/Workspace/drone_parachute/build/libraries/Wire/SoftWire.cpp.o
 .text._ZN8SoftWire18i2c_repeated_startEv
                0x0000000000000000       0x1e /mnt/Workspace/drone_parachute/build/libraries/Wire/SoftWire.cpp.o
 .text._ZN8SoftWire11i2c_get_ackEv
                0x0000000000000000       0x36 /mnt/Workspace/drone_parachute/build/libraries/Wire/SoftWire.cpp.o
 .text._ZN8SoftWire12i2c_send_ackEv
                0x0000000000000000       0x1e /mnt/Workspace/drone_parachute/build/libraries/Wire/SoftWire.cpp.o
 .text._ZN8SoftWire13i2c_send_nackEv
                0x0000000000000000       0x1e /mnt/Workspace/drone_parachute/build/libraries/Wire/SoftWire.cpp.o
 .text._ZN8SoftWire12i2c_shift_inEv
                0x0000000000000000       0x36 /mnt/Workspace/drone_parachute/build/libraries/Wire/SoftWire.cpp.o
 .text._ZN8SoftWire13i2c_shift_outEh
                0x0000000000000000       0x2e /mnt/Workspace/drone_parachute/build/libraries/Wire/SoftWire.cpp.o
 .text._ZN8SoftWire7processEh
                0x0000000000000000       0xb2 /mnt/Workspace/drone_parachute/build/libraries/Wire/SoftWire.cpp.o
 .text._ZN8SoftWireC2Ehhh
                0x0000000000000000       0x18 /mnt/Workspace/drone_parachute/build/libraries/Wire/SoftWire.cpp.o
 .text._ZN8SoftWire8setClockEm
                0x0000000000000000       0x14 /mnt/Workspace/drone_parachute/build/libraries/Wire/SoftWire.cpp.o
 .text._ZN8SoftWireD2Ev
                0x0000000000000000       0x14 /mnt/Workspace/drone_parachute/build/libraries/Wire/SoftWire.cpp.o
 .rodata._ZTV8SoftWire
                0x0000000000000000       0x18 /mnt/Workspace/drone_parachute/build/libraries/Wire/SoftWire.cpp.o
 .text          0x0000000000000000        0x0 /mnt/Workspace/drone_parachute/build/libraries/Wire/Wire.cpp.o
 .data          0x0000000000000000        0x0 /mnt/Workspace/drone_parachute/build/libraries/Wire/Wire.cpp.o
 .bss           0x0000000000000000        0x0 /mnt/Workspace/drone_parachute/build/libraries/Wire/Wire.cpp.o
 .text._ZN7TwoWireC2Ehhm
                0x0000000000000000       0x40 /mnt/Workspace/drone_parachute/build/libraries/Wire/Wire.cpp.o
 .text          0x0000000000000000        0x0 /mnt/Workspace/drone_parachute/build/libraries/Wire/utility/WireBase.cpp.o
 .data          0x0000000000000000        0x0 /mnt/Workspace/drone_parachute/build/libraries/Wire/utility/WireBase.cpp.o
 .bss           0x0000000000000000        0x0 /mnt/Workspace/drone_parachute/build/libraries/Wire/utility/WireBase.cpp.o
 .text._ZN8WireBase17beginTransmissionEi
                0x0000000000000000       0x16 /mnt/Workspace/drone_parachute/build/libraries/Wire/utility/WireBase.cpp.o
 .text._ZN8WireBase11requestFromEiib
                0x0000000000000000        0x6 /mnt/Workspace/drone_parachute/build/libraries/Wire/utility/WireBase.cpp.o
 .text._ZN8WireBase5writeEPhi
                0x0000000000000000       0x2e /mnt/Workspace/drone_parachute/build/libraries/Wire/utility/WireBase.cpp.o
 .text._ZN8WireBase5writeEi
                0x0000000000000000        0x6 /mnt/Workspace/drone_parachute/build/libraries/Wire/utility/WireBase.cpp.o
 .text._ZN8WireBase5writeEPii
                0x0000000000000000        0x6 /mnt/Workspace/drone_parachute/build/libraries/Wire/utility/WireBase.cpp.o
 .text._ZN8WireBase5writeEPc
                0x0000000000000000       0x16 /mnt/Workspace/drone_parachute/build/libraries/Wire/utility/WireBase.cpp.o
 .text._ZN8WireBase9availableEv
                0x0000000000000000        0xe /mnt/Workspace/drone_parachute/build/libraries/Wire/utility/WireBase.cpp.o
 .text          0x0000000000000000        0x0 /mnt/Workspace/drone_parachute/build/libraries/SPI/SPI.cpp.o
 .data          0x0000000000000000        0x0 /mnt/Workspace/drone_parachute/build/libraries/SPI/SPI.cpp.o
 .bss           0x0000000000000000        0x0 /mnt/Workspace/drone_parachute/build/libraries/SPI/SPI.cpp.o
 .text._ZN8SPIClass10beginSlaveEv
                0x0000000000000000       0x36 /mnt/Workspace/drone_parachute/build/libraries/SPI/SPI.cpp.o
 .text._ZN8SPIClass3endEv
                0x0000000000000000       0x38 /mnt/Workspace/drone_parachute/build/libraries/SPI/SPI.cpp.o
 .text._ZN8SPIClass21beginTransactionSlaveE11SPISettings
                0x0000000000000000       0x32 /mnt/Workspace/drone_parachute/build/libraries/SPI/SPI.cpp.o
 .text._ZN8SPIClass4readEv
                0x0000000000000000       0x12 /mnt/Workspace/drone_parachute/build/libraries/SPI/SPI.cpp.o
 .text._ZN8SPIClass4readEPhm
                0x0000000000000000       0x44 /mnt/Workspace/drone_parachute/build/libraries/SPI/SPI.cpp.o
 .text._ZN8SPIClass5writeEt
                0x0000000000000000        0xc /mnt/Workspace/drone_parachute/build/libraries/SPI/SPI.cpp.o
 .text._ZN8SPIClass7write16Et
                0x0000000000000000       0x16 /mnt/Workspace/drone_parachute/build/libraries/SPI/SPI.cpp.o
 .text._ZN8SPIClass5writeEtm
                0x0000000000000000       0x1e /mnt/Workspace/drone_parachute/build/libraries/SPI/SPI.cpp.o
 .text._ZN8SPIClass5writeEPKvm
                0x0000000000000000       0x16 /mnt/Workspace/drone_parachute/build/libraries/SPI/SPI.cpp.o
 .text._ZNK8SPIClass10transfer16Et
                0x0000000000000000       0x2e /mnt/Workspace/drone_parachute/build/libraries/SPI/SPI.cpp.o
 .text._ZN8SPIClass14dmaTransferSetEPKvPv
                0x0000000000000000       0x80 /mnt/Workspace/drone_parachute/build/libraries/SPI/SPI.cpp.o
 .text._ZN8SPIClass17dmaTransferRepeatEt
                0x0000000000000000       0xdc /mnt/Workspace/drone_parachute/build/libraries/SPI/SPI.cpp.o
 .text._ZN8SPIClass11dmaTransferEPKvPvt
                0x0000000000000000       0x16 /mnt/Workspace/drone_parachute/build/libraries/SPI/SPI.cpp.o
 .text._ZN8SPIClass10dmaSendSetEPKvb
                0x0000000000000000       0x4e /mnt/Workspace/drone_parachute/build/libraries/SPI/SPI.cpp.o
 .text._ZN8SPIClass13dmaSendRepeatEt
                0x0000000000000000       0xa0 /mnt/Workspace/drone_parachute/build/libraries/SPI/SPI.cpp.o
 .text._ZN8SPIClass7dmaSendEPKvtb
                0x0000000000000000       0x18 /mnt/Workspace/drone_parachute/build/libraries/SPI/SPI.cpp.o
 .text._ZN8SPIClass12dmaSendAsyncEPKvtb
                0x0000000000000000       0xd8 /mnt/Workspace/drone_parachute/build/libraries/SPI/SPI.cpp.o
 .text._ZN8SPIClass9onReceiveEPFvvE
                0x0000000000000000       0x48 /mnt/Workspace/drone_parachute/build/libraries/SPI/SPI.cpp.o
 .text._ZN8SPIClass10onTransmitEPFvvE
                0x0000000000000000       0x48 /mnt/Workspace/drone_parachute/build/libraries/SPI/SPI.cpp.o
 .text._ZN8SPIClass13EventCallbackEv
                0x0000000000000000       0x4e /mnt/Workspace/drone_parachute/build/libraries/SPI/SPI.cpp.o
 .text._ZN8SPIClass18_spi1EventCallbackEv
                0x0000000000000000        0xc /mnt/Workspace/drone_parachute/build/libraries/SPI/SPI.cpp.o
 .text._ZN8SPIClass18_spi2EventCallbackEv
                0x0000000000000000        0xc /mnt/Workspace/drone_parachute/build/libraries/SPI/SPI.cpp.o
 .text._ZN8SPIClass15attachInterruptEv
                0x0000000000000000        0x2 /mnt/Workspace/drone_parachute/build/libraries/SPI/SPI.cpp.o
 .text._ZN8SPIClass15detachInterruptEv
                0x0000000000000000        0x2 /mnt/Workspace/drone_parachute/build/libraries/SPI/SPI.cpp.o
 .text._ZN8SPIClass7misoPinEv
                0x0000000000000000       0x10 /mnt/Workspace/drone_parachute/build/libraries/SPI/SPI.cpp.o
 .text._ZN8SPIClass7mosiPinEv
                0x0000000000000000       0x10 /mnt/Workspace/drone_parachute/build/libraries/SPI/SPI.cpp.o
 .text._ZN8SPIClass6sckPinEv
                0x0000000000000000       0x10 /mnt/Workspace/drone_parachute/build/libraries/SPI/SPI.cpp.o
 .text._ZN8SPIClass6nssPinEv
                0x0000000000000000       0x10 /mnt/Workspace/drone_parachute/build/libraries/SPI/SPI.cpp.o
 .text._ZN8SPIClass4sendEh
                0x0000000000000000        0xa /mnt/Workspace/drone_parachute/build/libraries/SPI/SPI.cpp.o
 .text._ZN8SPIClass4sendEPhm
                0x0000000000000000        0xc /mnt/Workspace/drone_parachute/build/libraries/SPI/SPI.cpp.o
 .text._ZN8SPIClass4recvEv
                0x0000000000000000        0xa /mnt/Workspace/drone_parachute/build/libraries/SPI/SPI.cpp.o
 .rodata._ZL2ff
                0x0000000000000000        0x1 /mnt/Workspace/drone_parachute/build/libraries/SPI/SPI.cpp.o
 .text          0x0000000000000000        0x0 /mnt/Workspace/drone_parachute/build/libraries/Servo/Servo.cpp.o
 .data          0x0000000000000000        0x0 /mnt/Workspace/drone_parachute/build/libraries/Servo/Servo.cpp.o
 .bss           0x0000000000000000        0x0 /mnt/Workspace/drone_parachute/build/libraries/Servo/Servo.cpp.o
 .text._ZNK5Servo16readMicrosecondsEv
                0x0000000000000000       0x54 /mnt/Workspace/drone_parachute/build/libraries/Servo/Servo.cpp.o
 .text._ZNK5Servo4readEv
                0x0000000000000000       0x36 /mnt/Workspace/drone_parachute/build/libraries/Servo/Servo.cpp.o
 .data          0x0000000000000000        0x0 /mnt/Workspace/drone_parachute/build/core/wirish/start.S.o
 .bss           0x0000000000000000        0x0 /mnt/Workspace/drone_parachute/build/core/wirish/start.S.o
 .ARM.extab     0x0000000000000000        0x0 /mnt/Workspace/drone_parachute/build/core/wirish/start.S.o
 .text          0x0000000000000000        0x0 /mnt/Workspace/drone_parachute/build/core/wirish/start_c.c.o
 .data          0x0000000000000000        0x0 /mnt/Workspace/drone_parachute/build/core/wirish/start_c.c.o
 .bss           0x0000000000000000        0x0 /mnt/Workspace/drone_parachute/build/core/wirish/start_c.c.o
 .text          0x0000000000000000        0x0 /mnt/Workspace/drone_parachute/build/core/wirish/syscalls.c.o
 .data          0x0000000000000000        0x0 /mnt/Workspace/drone_parachute/build/core/wirish/syscalls.c.o
 .bss           0x0000000000000000        0x0 /mnt/Workspace/drone_parachute/build/core/wirish/syscalls.c.o
 .text._sbrk    0x0000000000000000       0x44 /mnt/Workspace/drone_parachute/build/core/wirish/syscalls.c.o
 .text._open    0x0000000000000000        0x8 /mnt/Workspace/drone_parachute/build/core/wirish/syscalls.c.o
 .text._close   0x0000000000000000        0x4 /mnt/Workspace/drone_parachute/build/core/wirish/syscalls.c.o
 .text._fstat   0x0000000000000000        0xa /mnt/Workspace/drone_parachute/build/core/wirish/syscalls.c.o
 .text._isatty  0x0000000000000000        0x4 /mnt/Workspace/drone_parachute/build/core/wirish/syscalls.c.o
 .text.isatty   0x0000000000000000        0x4 /mnt/Workspace/drone_parachute/build/core/wirish/syscalls.c.o
 .text._lseek   0x0000000000000000        0x6 /mnt/Workspace/drone_parachute/build/core/wirish/syscalls.c.o
 .text.getch    0x0000000000000000        0x4 /mnt/Workspace/drone_parachute/build/core/wirish/syscalls.c.o
 .text._read    0x0000000000000000        0xe /mnt/Workspace/drone_parachute/build/core/wirish/syscalls.c.o
 .text.putch    0x0000000000000000        0x2 /mnt/Workspace/drone_parachute/build/core/wirish/syscalls.c.o
 .text.cgets    0x0000000000000000       0x78 /mnt/Workspace/drone_parachute/build/core/wirish/syscalls.c.o
 .text._write   0x0000000000000000       0x1a /mnt/Workspace/drone_parachute/build/core/wirish/syscalls.c.o
 .text.fgets    0x0000000000000000        0xc /mnt/Workspace/drone_parachute/build/core/wirish/syscalls.c.o
 .text._exit    0x0000000000000000        0x2 /mnt/Workspace/drone_parachute/build/core/wirish/syscalls.c.o
 .bss.pbreak.4444
                0x0000000000000000        0x4 /mnt/Workspace/drone_parachute/build/core/wirish/syscalls.c.o
 .text          0x0000000000000000        0x0 /mnt/Workspace/drone_parachute/build/core/board.cpp.o
 .data          0x0000000000000000        0x0 /mnt/Workspace/drone_parachute/build/core/board.cpp.o
 .bss           0x0000000000000000        0x0 /mnt/Workspace/drone_parachute/build/core/board.cpp.o
 .USER_FLASH    0x0000000000000000       0x19 /mnt/Workspace/drone_parachute/build/core/board.cpp.o
 .text          0x0000000000000000        0x0 /mnt/Workspace/drone_parachute/build/core/wirish/boards.cpp.o
 .data          0x0000000000000000        0x0 /mnt/Workspace/drone_parachute/build/core/wirish/boards.cpp.o
 .bss           0x0000000000000000        0x0 /mnt/Workspace/drone_parachute/build/core/wirish/boards.cpp.o
 .text._Z9boardInitv
                0x0000000000000000        0x2 /mnt/Workspace/drone_parachute/build/core/wirish/boards.cpp.o
 .text._Z12boardUsesPinh
                0x0000000000000000       0x1c /mnt/Workspace/drone_parachute/build/core/wirish/boards.cpp.o
 .text          0x0000000000000000        0x0 /mnt/Workspace/drone_parachute/build/core/wirish/boards_setup.cpp.o
 .data          0x0000000000000000        0x0 /mnt/Workspace/drone_parachute/build/core/wirish/boards_setup.cpp.o
 .bss           0x0000000000000000        0x0 /mnt/Workspace/drone_parachute/build/core/wirish/boards_setup.cpp.o
 .data          0x0000000000000000        0x0 /mnt/Workspace/drone_parachute/build/core/core.a(exc.S.o)
 .bss           0x0000000000000000        0x0 /mnt/Workspace/drone_parachute/build/core/core.a(exc.S.o)
 .data          0x0000000000000000        0x0 /mnt/Workspace/drone_parachute/build/core/core.a(isrs.S.o)
 .bss           0x0000000000000000        0x0 /mnt/Workspace/drone_parachute/build/core/core.a(isrs.S.o)
 .text          0x0000000000000000        0x0 /mnt/Workspace/drone_parachute/build/core/core.a(vector_table.S.o)
 .data          0x0000000000000000        0x0 /mnt/Workspace/drone_parachute/build/core/core.a(vector_table.S.o)
 .bss           0x0000000000000000        0x0 /mnt/Workspace/drone_parachute/build/core/core.a(vector_table.S.o)
 .text          0x0000000000000000        0x0 /mnt/Workspace/drone_parachute/build/core/core.a(adc.c.o)
 .data          0x0000000000000000        0x0 /mnt/Workspace/drone_parachute/build/core/core.a(adc.c.o)
 .bss           0x0000000000000000        0x0 /mnt/Workspace/drone_parachute/build/core/core.a(adc.c.o)
 .text          0x0000000000000000        0x0 /mnt/Workspace/drone_parachute/build/core/core.a(adc_f1.c.o)
 .data          0x0000000000000000        0x0 /mnt/Workspace/drone_parachute/build/core/core.a(adc_f1.c.o)
 .bss           0x0000000000000000        0x0 /mnt/Workspace/drone_parachute/build/core/core.a(adc_f1.c.o)
 .text.adc_enable_irq
                0x0000000000000000       0x30 /mnt/Workspace/drone_parachute/build/core/core.a(adc_f1.c.o)
 .text.adc_attach_interrupt
                0x0000000000000000        0xa /mnt/Workspace/drone_parachute/build/core/core.a(adc_f1.c.o)
 .text.adc_config_gpio
                0x0000000000000000        0xa /mnt/Workspace/drone_parachute/build/core/core.a(adc_f1.c.o)
 .text          0x0000000000000000        0x0 /mnt/Workspace/drone_parachute/build/core/core.a(dma.c.o)
 .data          0x0000000000000000        0x0 /mnt/Workspace/drone_parachute/build/core/core.a(dma.c.o)
 .bss           0x0000000000000000        0x0 /mnt/Workspace/drone_parachute/build/core/core.a(dma.c.o)
 .text.dma_init
                0x0000000000000000        0x6 /mnt/Workspace/drone_parachute/build/core/core.a(dma.c.o)
 .text._dma_addr_type
                0x0000000000000000       0x38 /mnt/Workspace/drone_parachute/build/core/core.a(dma.c.o)
 .rodata.str1.1
                0x0000000000000000       0x64 /mnt/Workspace/drone_parachute/build/core/core.a(dma.c.o)
 .text          0x0000000000000000        0x0 /mnt/Workspace/drone_parachute/build/core/core.a(dma_f1.c.o)
 .data          0x0000000000000000        0x0 /mnt/Workspace/drone_parachute/build/core/core.a(dma_f1.c.o)
 .bss           0x0000000000000000        0x0 /mnt/Workspace/drone_parachute/build/core/core.a(dma_f1.c.o)
 .text.dma_set_priority
                0x0000000000000000       0x3c /mnt/Workspace/drone_parachute/build/core/core.a(dma_f1.c.o)
 .text.dma_set_num_transfers
                0x0000000000000000       0x34 /mnt/Workspace/drone_parachute/build/core/core.a(dma_f1.c.o)
 .text.dma_attach_interrupt
                0x0000000000000000       0x28 /mnt/Workspace/drone_parachute/build/core/core.a(dma_f1.c.o)
 .text.dma_detach_interrupt
                0x0000000000000000       0x1c /mnt/Workspace/drone_parachute/build/core/core.a(dma_f1.c.o)
 .text.dma_enable
                0x0000000000000000       0x18 /mnt/Workspace/drone_parachute/build/core/core.a(dma_f1.c.o)
 .text.dma_disable
                0x0000000000000000       0x18 /mnt/Workspace/drone_parachute/build/core/core.a(dma_f1.c.o)
 .text.dma_tube_cfg
                0x0000000000000000      0x184 /mnt/Workspace/drone_parachute/build/core/core.a(dma_f1.c.o)
 .text.dma_get_irq_cause
                0x0000000000000000       0x70 /mnt/Workspace/drone_parachute/build/core/core.a(dma_f1.c.o)
 .text.dma_set_mem_addr
                0x0000000000000000       0x34 /mnt/Workspace/drone_parachute/build/core/core.a(dma_f1.c.o)
 .text.dma_set_per_addr
                0x0000000000000000       0x34 /mnt/Workspace/drone_parachute/build/core/core.a(dma_f1.c.o)
 .text.dma_setup_transfer
                0x0000000000000000       0x36 /mnt/Workspace/drone_parachute/build/core/core.a(dma_f1.c.o)
 .rodata.str1.1
                0x0000000000000000       0xe1 /mnt/Workspace/drone_parachute/build/core/core.a(dma_f1.c.o)
 .text          0x0000000000000000        0x0 /mnt/Workspace/drone_parachute/build/core/core.a(exti.c.o)
 .data          0x0000000000000000        0x0 /mnt/Workspace/drone_parachute/build/core/core.a(exti.c.o)
 .bss           0x0000000000000000        0x0 /mnt/Workspace/drone_parachute/build/core/core.a(exti.c.o)
 .text.exti_attach_callback
                0x0000000000000000       0xd0 /mnt/Workspace/drone_parachute/build/core/core.a(exti.c.o)
 .text.exti_attach_interrupt
                0x0000000000000000       0x10 /mnt/Workspace/drone_parachute/build/core/core.a(exti.c.o)
 .text.exti_detach_interrupt
                0x0000000000000000       0x28 /mnt/Workspace/drone_parachute/build/core/core.a(exti.c.o)
 .text.exti_do_select
                0x0000000000000000       0x1a /mnt/Workspace/drone_parachute/build/core/core.a(exti.c.o)
 .rodata.str1.1
                0x0000000000000000       0x6b /mnt/Workspace/drone_parachute/build/core/core.a(exti.c.o)
 .text          0x0000000000000000        0x0 /mnt/Workspace/drone_parachute/build/core/core.a(exti_f1.c.o)
 .data          0x0000000000000000        0x0 /mnt/Workspace/drone_parachute/build/core/core.a(exti_f1.c.o)
 .bss           0x0000000000000000        0x0 /mnt/Workspace/drone_parachute/build/core/core.a(exti_f1.c.o)
 .text.exti_select
                0x0000000000000000       0x18 /mnt/Workspace/drone_parachute/build/core/core.a(exti_f1.c.o)
 .text          0x0000000000000000        0x0 /mnt/Workspace/drone_parachute/build/core/core.a(flash.c.o)
 .data          0x0000000000000000        0x0 /mnt/Workspace/drone_parachute/build/core/core.a(flash.c.o)
 .bss           0x0000000000000000        0x0 /mnt/Workspace/drone_parachute/build/core/core.a(flash.c.o)
 .text          0x0000000000000000        0x0 /mnt/Workspace/drone_parachute/build/core/core.a(gpio_f1.c.o)
 .data          0x0000000000000000        0x0 /mnt/Workspace/drone_parachute/build/core/core.a(gpio_f1.c.o)
 .bss           0x0000000000000000        0x0 /mnt/Workspace/drone_parachute/build/core/core.a(gpio_f1.c.o)
 .text.gpio_get_mode
                0x0000000000000000       0x2a /mnt/Workspace/drone_parachute/build/core/core.a(gpio_f1.c.o)
 .rodata.GPIOA  0x0000000000000000        0x4 /mnt/Workspace/drone_parachute/build/core/core.a(gpio_f1.c.o)
 .rodata.GPIOB  0x0000000000000000        0x4 /mnt/Workspace/drone_parachute/build/core/core.a(gpio_f1.c.o)
 .rodata.GPIOD  0x0000000000000000        0x4 /mnt/Workspace/drone_parachute/build/core/core.a(gpio_f1.c.o)
 .text          0x0000000000000000        0x0 /mnt/Workspace/drone_parachute/build/core/core.a(i2c.c.o)
 .data          0x0000000000000000        0x0 /mnt/Workspace/drone_parachute/build/core/core.a(i2c.c.o)
 .bss           0x0000000000000000        0x0 /mnt/Workspace/drone_parachute/build/core/core.a(i2c.c.o)
 .text.i2c_slave_enable
                0x0000000000000000        0x8 /mnt/Workspace/drone_parachute/build/core/core.a(i2c.c.o)
 .text.i2c_slave_attach_recv_handler
                0x0000000000000000        0xa /mnt/Workspace/drone_parachute/build/core/core.a(i2c.c.o)
 .text.i2c_slave_attach_transmit_handler
                0x0000000000000000        0xa /mnt/Workspace/drone_parachute/build/core/core.a(i2c.c.o)
 .text          0x0000000000000000        0x0 /mnt/Workspace/drone_parachute/build/core/core.a(i2c_f1.c.o)
 .data          0x0000000000000000        0x0 /mnt/Workspace/drone_parachute/build/core/core.a(i2c_f1.c.o)
 .bss           0x0000000000000000        0x0 /mnt/Workspace/drone_parachute/build/core/core.a(i2c_f1.c.o)
 .rodata.I2C2   0x0000000000000000        0x4 /mnt/Workspace/drone_parachute/build/core/core.a(i2c_f1.c.o)
 .text          0x0000000000000000        0x0 /mnt/Workspace/drone_parachute/build/core/core.a(nvic.c.o)
 .data          0x0000000000000000        0x0 /mnt/Workspace/drone_parachute/build/core/core.a(nvic.c.o)
 .bss           0x0000000000000000        0x0 /mnt/Workspace/drone_parachute/build/core/core.a(nvic.c.o)
 .text.nvic_set_vector_table
                0x0000000000000000       0x14 /mnt/Workspace/drone_parachute/build/core/core.a(nvic.c.o)
 .text.nvic_sys_reset
                0x0000000000000000       0x1c /mnt/Workspace/drone_parachute/build/core/core.a(nvic.c.o)
 .text          0x0000000000000000        0x0 /mnt/Workspace/drone_parachute/build/core/core.a(rcc.c.o)
 .data          0x0000000000000000        0x0 /mnt/Workspace/drone_parachute/build/core/core.a(rcc.c.o)
 .bss           0x0000000000000000        0x0 /mnt/Workspace/drone_parachute/build/core/core.a(rcc.c.o)
 .text          0x0000000000000000        0x0 /mnt/Workspace/drone_parachute/build/core/core.a(rcc_f1.c.o)
 .data          0x0000000000000000        0x0 /mnt/Workspace/drone_parachute/build/core/core.a(rcc_f1.c.o)
 .bss           0x0000000000000000        0x0 /mnt/Workspace/drone_parachute/build/core/core.a(rcc_f1.c.o)
 .text.rcc_clk_init
                0x0000000000000000       0x5c /mnt/Workspace/drone_parachute/build/core/core.a(rcc_f1.c.o)
 .text          0x0000000000000000        0x0 /mnt/Workspace/drone_parachute/build/core/core.a(spi.c.o)
 .data          0x0000000000000000        0x0 /mnt/Workspace/drone_parachute/build/core/core.a(spi.c.o)
 .bss           0x0000000000000000        0x0 /mnt/Workspace/drone_parachute/build/core/core.a(spi.c.o)
 .text.spi_tx   0x0000000000000000       0x38 /mnt/Workspace/drone_parachute/build/core/core.a(spi.c.o)
 .text.spi_slave_enable
                0x0000000000000000        0x6 /mnt/Workspace/drone_parachute/build/core/core.a(spi.c.o)
 .text.spi_tx_dma_enable
                0x0000000000000000        0xc /mnt/Workspace/drone_parachute/build/core/core.a(spi.c.o)
 .text.spi_tx_dma_disable
                0x0000000000000000        0xc /mnt/Workspace/drone_parachute/build/core/core.a(spi.c.o)
 .text.spi_rx_dma_enable
                0x0000000000000000        0xc /mnt/Workspace/drone_parachute/build/core/core.a(spi.c.o)
 .text.spi_rx_dma_disable
                0x0000000000000000        0xc /mnt/Workspace/drone_parachute/build/core/core.a(spi.c.o)
 .text          0x0000000000000000        0x0 /mnt/Workspace/drone_parachute/build/core/core.a(spi_f1.c.o)
 .data          0x0000000000000000        0x0 /mnt/Workspace/drone_parachute/build/core/core.a(spi_f1.c.o)
 .bss           0x0000000000000000        0x0 /mnt/Workspace/drone_parachute/build/core/core.a(spi_f1.c.o)
 .text.spi_foreach
                0x0000000000000000       0x1c /mnt/Workspace/drone_parachute/build/core/core.a(spi_f1.c.o)
 .text          0x0000000000000000        0x0 /mnt/Workspace/drone_parachute/build/core/core.a(systick.c.o)
 .data          0x0000000000000000        0x0 /mnt/Workspace/drone_parachute/build/core/core.a(systick.c.o)
 .bss           0x0000000000000000        0x0 /mnt/Workspace/drone_parachute/build/core/core.a(systick.c.o)
 .text.systick_disable
                0x0000000000000000        0xc /mnt/Workspace/drone_parachute/build/core/core.a(systick.c.o)
 .text.systick_enable
                0x0000000000000000        0xc /mnt/Workspace/drone_parachute/build/core/core.a(systick.c.o)
 .text.systick_attach_callback
                0x0000000000000000        0xc /mnt/Workspace/drone_parachute/build/core/core.a(systick.c.o)
 .text          0x0000000000000000        0x0 /mnt/Workspace/drone_parachute/build/core/core.a(timer.c.o)
 .data          0x0000000000000000        0x0 /mnt/Workspace/drone_parachute/build/core/core.a(timer.c.o)
 .bss           0x0000000000000000        0x0 /mnt/Workspace/drone_parachute/build/core/core.a(timer.c.o)
 .text.timer_disable
                0x0000000000000000       0x12 /mnt/Workspace/drone_parachute/build/core/core.a(timer.c.o)
 .text.timer_attach_interrupt
                0x0000000000000000      0x100 /mnt/Workspace/drone_parachute/build/core/core.a(timer.c.o)
 .text.get_direction
                0x0000000000000000        0xe /mnt/Workspace/drone_parachute/build/core/core.a(timer.c.o)
 .rodata.TIMER1
                0x0000000000000000        0x4 /mnt/Workspace/drone_parachute/build/core/core.a(timer.c.o)
 .rodata.TIMER2
                0x0000000000000000        0x4 /mnt/Workspace/drone_parachute/build/core/core.a(timer.c.o)
 .rodata.TIMER3
                0x0000000000000000        0x4 /mnt/Workspace/drone_parachute/build/core/core.a(timer.c.o)
 .rodata.TIMER4
                0x0000000000000000        0x4 /mnt/Workspace/drone_parachute/build/core/core.a(timer.c.o)
 .text          0x0000000000000000        0x0 /mnt/Workspace/drone_parachute/build/core/core.a(usart_f1.c.o)
 .data          0x0000000000000000        0x0 /mnt/Workspace/drone_parachute/build/core/core.a(usart_f1.c.o)
 .bss           0x0000000000000000        0x0 /mnt/Workspace/drone_parachute/build/core/core.a(usart_f1.c.o)
 .text.usart_foreach
                0x0000000000000000       0x24 /mnt/Workspace/drone_parachute/build/core/core.a(usart_f1.c.o)
 .text          0x0000000000000000        0x0 /mnt/Workspace/drone_parachute/build/core/core.a(usart_private.c.o)
 .data          0x0000000000000000        0x0 /mnt/Workspace/drone_parachute/build/core/core.a(usart_private.c.o)
 .bss           0x0000000000000000        0x0 /mnt/Workspace/drone_parachute/build/core/core.a(usart_private.c.o)
 .text          0x0000000000000000        0x0 /mnt/Workspace/drone_parachute/build/core/core.a(usb.c.o)
 .data          0x0000000000000000        0x0 /mnt/Workspace/drone_parachute/build/core/core.a(usb.c.o)
 .bss           0x0000000000000000        0x0 /mnt/Workspace/drone_parachute/build/core/core.a(usb.c.o)
 .text.usb_init_usblib
                0x0000000000000000       0x48 /mnt/Workspace/drone_parachute/build/core/core.a(usb.c.o)
 .text.usb_power_off
                0x0000000000000000       0x14 /mnt/Workspace/drone_parachute/build/core/core.a(usb.c.o)
 .text          0x0000000000000000        0x0 /mnt/Workspace/drone_parachute/build/core/core.a(usb_cdcacm.c.o)
 .data          0x0000000000000000        0x0 /mnt/Workspace/drone_parachute/build/core/core.a(usb_cdcacm.c.o)
 .bss           0x0000000000000000        0x0 /mnt/Workspace/drone_parachute/build/core/core.a(usb_cdcacm.c.o)
 .text.usbSetConfiguration
                0x0000000000000000       0x1c /mnt/Workspace/drone_parachute/build/core/core.a(usb_cdcacm.c.o)
 .text.usbSetDeviceAddress
                0x0000000000000000       0x10 /mnt/Workspace/drone_parachute/build/core/core.a(usb_cdcacm.c.o)
 .text.vcomDataTxCb
                0x0000000000000000       0xa0 /mnt/Workspace/drone_parachute/build/core/core.a(usb_cdcacm.c.o)
 .text.vcomDataRxCb
                0x0000000000000000       0x7c /mnt/Workspace/drone_parachute/build/core/core.a(usb_cdcacm.c.o)
 .text.usb_cdcacm_set_hooks
                0x0000000000000000       0x1c /mnt/Workspace/drone_parachute/build/core/core.a(usb_cdcacm.c.o)
 .text.usb_cdcacm_enable
                0x0000000000000000       0x38 /mnt/Workspace/drone_parachute/build/core/core.a(usb_cdcacm.c.o)
 .text.usb_cdcacm_disable
                0x0000000000000000       0x20 /mnt/Workspace/drone_parachute/build/core/core.a(usb_cdcacm.c.o)
 .text.usb_cdcacm_tx
                0x0000000000000000       0x60 /mnt/Workspace/drone_parachute/build/core/core.a(usb_cdcacm.c.o)
 .text.usb_cdcacm_putc
                0x0000000000000000       0x1a /mnt/Workspace/drone_parachute/build/core/core.a(usb_cdcacm.c.o)
 .text.usb_cdcacm_data_available
                0x0000000000000000       0x18 /mnt/Workspace/drone_parachute/build/core/core.a(usb_cdcacm.c.o)
 .text.usb_cdcacm_is_transmitting
                0x0000000000000000       0x14 /mnt/Workspace/drone_parachute/build/core/core.a(usb_cdcacm.c.o)
 .text.usb_cdcacm_get_pending
                0x0000000000000000       0x18 /mnt/Workspace/drone_parachute/build/core/core.a(usb_cdcacm.c.o)
 .text.usb_cdcacm_tx_available
                0x0000000000000000        0xc /mnt/Workspace/drone_parachute/build/core/core.a(usb_cdcacm.c.o)
 .text.usb_cdcacm_peek
                0x0000000000000000       0x38 /mnt/Workspace/drone_parachute/build/core/core.a(usb_cdcacm.c.o)
 .text.usb_cdcacm_rx
                0x0000000000000000       0x34 /mnt/Workspace/drone_parachute/build/core/core.a(usb_cdcacm.c.o)
 .text.usb_cdcacm_peek_ex
                0x0000000000000000       0x40 /mnt/Workspace/drone_parachute/build/core/core.a(usb_cdcacm.c.o)
 .text.usb_cdcacm_peek_char
                0x0000000000000000       0x24 /mnt/Workspace/drone_parachute/build/core/core.a(usb_cdcacm.c.o)
 .text.usb_cdcacm_get_dtr
                0x0000000000000000       0x10 /mnt/Workspace/drone_parachute/build/core/core.a(usb_cdcacm.c.o)
 .text.usb_cdcacm_get_rts
                0x0000000000000000       0x10 /mnt/Workspace/drone_parachute/build/core/core.a(usb_cdcacm.c.o)
 .text.usb_cdcacm_get_line_coding
                0x0000000000000000       0x18 /mnt/Workspace/drone_parachute/build/core/core.a(usb_cdcacm.c.o)
 .text.usb_cdcacm_get_baud
                0x0000000000000000        0xc /mnt/Workspace/drone_parachute/build/core/core.a(usb_cdcacm.c.o)
 .text.usb_cdcacm_get_stop_bits
                0x0000000000000000        0xc /mnt/Workspace/drone_parachute/build/core/core.a(usb_cdcacm.c.o)
 .text.usb_cdcacm_get_parity
                0x0000000000000000        0xc /mnt/Workspace/drone_parachute/build/core/core.a(usb_cdcacm.c.o)
 .text.usb_cdcacm_get_n_data_bits
                0x0000000000000000        0xc /mnt/Workspace/drone_parachute/build/core/core.a(usb_cdcacm.c.o)
 .bss.vcomBufferTx
                0x0000000000000000      0x100 /mnt/Workspace/drone_parachute/build/core/core.a(usb_cdcacm.c.o)
 .data.ep_int_in
                0x0000000000000000       0x1c /mnt/Workspace/drone_parachute/build/core/core.a(usb_cdcacm.c.o)
 .bss.rx_hook   0x0000000000000000        0x4 /mnt/Workspace/drone_parachute/build/core/core.a(usb_cdcacm.c.o)
 .bss.vcomBufferRx
                0x0000000000000000      0x100 /mnt/Workspace/drone_parachute/build/core/core.a(usb_cdcacm.c.o)
 .data.ep_int_out
                0x0000000000000000       0x1c /mnt/Workspace/drone_parachute/build/core/core.a(usb_cdcacm.c.o)
 .data.User_Standard_Requests
                0x0000000000000000       0x24 /mnt/Workspace/drone_parachute/build/core/core.a(usb_cdcacm.c.o)
 .text          0x0000000000000000        0x0 /mnt/Workspace/drone_parachute/build/core/core.a(usb_reg_map.c.o)
 .data          0x0000000000000000        0x0 /mnt/Workspace/drone_parachute/build/core/core.a(usb_reg_map.c.o)
 .bss           0x0000000000000000        0x0 /mnt/Workspace/drone_parachute/build/core/core.a(usb_reg_map.c.o)
 .text          0x0000000000000000        0x0 /mnt/Workspace/drone_parachute/build/core/core.a(usb_core.c.o)
 .data          0x0000000000000000        0x0 /mnt/Workspace/drone_parachute/build/core/core.a(usb_core.c.o)
 .bss           0x0000000000000000        0x0 /mnt/Workspace/drone_parachute/build/core/core.a(usb_core.c.o)
 .text          0x0000000000000000        0x0 /mnt/Workspace/drone_parachute/build/core/core.a(usb_init.c.o)
 .data          0x0000000000000000        0x0 /mnt/Workspace/drone_parachute/build/core/core.a(usb_init.c.o)
 .bss           0x0000000000000000        0x0 /mnt/Workspace/drone_parachute/build/core/core.a(usb_init.c.o)
 .text.USB_Init
                0x0000000000000000       0x38 /mnt/Workspace/drone_parachute/build/core/core.a(usb_init.c.o)
 .text          0x0000000000000000        0x0 /mnt/Workspace/drone_parachute/build/core/core.a(usb_mem.c.o)
 .data          0x0000000000000000        0x0 /mnt/Workspace/drone_parachute/build/core/core.a(usb_mem.c.o)
 .bss           0x0000000000000000        0x0 /mnt/Workspace/drone_parachute/build/core/core.a(usb_mem.c.o)
 .text          0x0000000000000000        0x0 /mnt/Workspace/drone_parachute/build/core/core.a(usb_regs.c.o)
 .data          0x0000000000000000        0x0 /mnt/Workspace/drone_parachute/build/core/core.a(usb_regs.c.o)
 .bss           0x0000000000000000        0x0 /mnt/Workspace/drone_parachute/build/core/core.a(usb_regs.c.o)
 .text.SetCNTR  0x0000000000000000        0xc /mnt/Workspace/drone_parachute/build/core/core.a(usb_regs.c.o)
 .text.GetCNTR  0x0000000000000000        0xc /mnt/Workspace/drone_parachute/build/core/core.a(usb_regs.c.o)
 .text.SetISTR  0x0000000000000000        0xc /mnt/Workspace/drone_parachute/build/core/core.a(usb_regs.c.o)
 .text.GetISTR  0x0000000000000000        0xc /mnt/Workspace/drone_parachute/build/core/core.a(usb_regs.c.o)
 .text.GetFNR   0x0000000000000000        0xc /mnt/Workspace/drone_parachute/build/core/core.a(usb_regs.c.o)
 .text.SetDADDR
                0x0000000000000000        0xc /mnt/Workspace/drone_parachute/build/core/core.a(usb_regs.c.o)
 .text.GetDADDR
                0x0000000000000000        0xc /mnt/Workspace/drone_parachute/build/core/core.a(usb_regs.c.o)
 .text.SetBTABLE
                0x0000000000000000       0x10 /mnt/Workspace/drone_parachute/build/core/core.a(usb_regs.c.o)
 .text.GetBTABLE
                0x0000000000000000        0xc /mnt/Workspace/drone_parachute/build/core/core.a(usb_regs.c.o)
 .text.SetENDPOINT
                0x0000000000000000        0xe /mnt/Workspace/drone_parachute/build/core/core.a(usb_regs.c.o)
 .text.GetENDPOINT
                0x0000000000000000       0x10 /mnt/Workspace/drone_parachute/build/core/core.a(usb_regs.c.o)
 .text.SetEPType
                0x0000000000000000       0x1c /mnt/Workspace/drone_parachute/build/core/core.a(usb_regs.c.o)
 .text.GetEPType
                0x0000000000000000       0x12 /mnt/Workspace/drone_parachute/build/core/core.a(usb_regs.c.o)
 .text.SetEPRxStatus
                0x0000000000000000       0x2a /mnt/Workspace/drone_parachute/build/core/core.a(usb_regs.c.o)
 .text.SetDouBleBuffEPStall
                0x0000000000000000       0x24 /mnt/Workspace/drone_parachute/build/core/core.a(usb_regs.c.o)
 .text.GetEPTxStatus
                0x0000000000000000       0x12 /mnt/Workspace/drone_parachute/build/core/core.a(usb_regs.c.o)
 .text.GetEPRxStatus
                0x0000000000000000       0x12 /mnt/Workspace/drone_parachute/build/core/core.a(usb_regs.c.o)
 .text.SetEPTxValid
                0x0000000000000000       0x1e /mnt/Workspace/drone_parachute/build/core/core.a(usb_regs.c.o)
 .text.SetEPRxValid
                0x0000000000000000       0x1e /mnt/Workspace/drone_parachute/build/core/core.a(usb_regs.c.o)
 .text.SetEP_KIND
                0x0000000000000000       0x1e /mnt/Workspace/drone_parachute/build/core/core.a(usb_regs.c.o)
 .text.ClearEP_KIND
                0x0000000000000000       0x1c /mnt/Workspace/drone_parachute/build/core/core.a(usb_regs.c.o)
 .text.Clear_Status_Out
                0x0000000000000000       0x1c /mnt/Workspace/drone_parachute/build/core/core.a(usb_regs.c.o)
 .text.Set_Status_Out
                0x0000000000000000       0x1e /mnt/Workspace/drone_parachute/build/core/core.a(usb_regs.c.o)
 .text.SetEPDoubleBuff
                0x0000000000000000       0x1e /mnt/Workspace/drone_parachute/build/core/core.a(usb_regs.c.o)
 .text.ClearEPDoubleBuff
                0x0000000000000000       0x1c /mnt/Workspace/drone_parachute/build/core/core.a(usb_regs.c.o)
 .text.GetTxStallStatus
                0x0000000000000000       0x1a /mnt/Workspace/drone_parachute/build/core/core.a(usb_regs.c.o)
 .text.GetRxStallStatus
                0x0000000000000000       0x1a /mnt/Workspace/drone_parachute/build/core/core.a(usb_regs.c.o)
 .text.ClearEP_CTR_RX
                0x0000000000000000       0x18 /mnt/Workspace/drone_parachute/build/core/core.a(usb_regs.c.o)
 .text.ClearEP_CTR_TX
                0x0000000000000000       0x1c /mnt/Workspace/drone_parachute/build/core/core.a(usb_regs.c.o)
 .text.ToggleDTOG_RX
                0x0000000000000000       0x20 /mnt/Workspace/drone_parachute/build/core/core.a(usb_regs.c.o)
 .text.ToggleDTOG_TX
                0x0000000000000000       0x20 /mnt/Workspace/drone_parachute/build/core/core.a(usb_regs.c.o)
 .text.SetEPAddress
                0x0000000000000000       0x1e /mnt/Workspace/drone_parachute/build/core/core.a(usb_regs.c.o)
 .text.GetEPAddress
                0x0000000000000000       0x12 /mnt/Workspace/drone_parachute/build/core/core.a(usb_regs.c.o)
 .text.SetEPTxAddr
                0x0000000000000000       0x20 /mnt/Workspace/drone_parachute/build/core/core.a(usb_regs.c.o)
 .text.SetEPRxAddr
                0x0000000000000000       0x20 /mnt/Workspace/drone_parachute/build/core/core.a(usb_regs.c.o)
 .text.SetEPCountRxReg
                0x0000000000000000       0x26 /mnt/Workspace/drone_parachute/build/core/core.a(usb_regs.c.o)
 .text.GetEPTxCount
                0x0000000000000000       0x20 /mnt/Workspace/drone_parachute/build/core/core.a(usb_regs.c.o)
 .text.GetEPRxCount
                0x0000000000000000       0x20 /mnt/Workspace/drone_parachute/build/core/core.a(usb_regs.c.o)
 .text.SetEPDblBuffAddr
                0x0000000000000000       0x38 /mnt/Workspace/drone_parachute/build/core/core.a(usb_regs.c.o)
 .text.SetEPDblBuf0Addr
                0x0000000000000000       0x20 /mnt/Workspace/drone_parachute/build/core/core.a(usb_regs.c.o)
 .text.SetEPDblBuf1Addr
                0x0000000000000000       0x20 /mnt/Workspace/drone_parachute/build/core/core.a(usb_regs.c.o)
 .text.GetEPDblBuf0Addr
                0x0000000000000000       0x1c /mnt/Workspace/drone_parachute/build/core/core.a(usb_regs.c.o)
 .text.GetEPDblBuf1Addr
                0x0000000000000000       0x1c /mnt/Workspace/drone_parachute/build/core/core.a(usb_regs.c.o)
 .text.SetEPDblBuffCount
                0x0000000000000000       0xa8 /mnt/Workspace/drone_parachute/build/core/core.a(usb_regs.c.o)
 .text.SetEPDblBuf0Count
                0x0000000000000000       0x5c /mnt/Workspace/drone_parachute/build/core/core.a(usb_regs.c.o)
 .text.SetEPDblBuf1Count
                0x0000000000000000       0x5c /mnt/Workspace/drone_parachute/build/core/core.a(usb_regs.c.o)
 .text.GetEPDblBuf0Count
                0x0000000000000000       0x20 /mnt/Workspace/drone_parachute/build/core/core.a(usb_regs.c.o)
 .text.GetEPDblBuf1Count
                0x0000000000000000       0x20 /mnt/Workspace/drone_parachute/build/core/core.a(usb_regs.c.o)
 .text.GetEPDblBufDir
                0x0000000000000000       0x44 /mnt/Workspace/drone_parachute/build/core/core.a(usb_regs.c.o)
 .text.FreeUserBuffer
                0x0000000000000000       0x3a /mnt/Workspace/drone_parachute/build/core/core.a(usb_regs.c.o)
 .text.ToWord   0x0000000000000000        0x6 /mnt/Workspace/drone_parachute/build/core/core.a(usb_regs.c.o)
 .text.ByteSwap
                0x0000000000000000        0xa /mnt/Workspace/drone_parachute/build/core/core.a(usb_regs.c.o)
 .text          0x0000000000000000        0x0 /mnt/Workspace/drone_parachute/build/core/core.a(util.c.o)
 .data          0x0000000000000000        0x0 /mnt/Workspace/drone_parachute/build/core/core.a(util.c.o)
 .bss           0x0000000000000000        0x0 /mnt/Workspace/drone_parachute/build/core/core.a(util.c.o)
 .text.__assert_func
                0x0000000000000000        0x8 /mnt/Workspace/drone_parachute/build/core/core.a(util.c.o)
 .text.abort    0x0000000000000000       0x1c /mnt/Workspace/drone_parachute/build/core/core.a(util.c.o)
 .group         0x0000000000000000        0x8 /mnt/Workspace/drone_parachute/build/core/core.a(HardwareSerial.cpp.o)
 .text          0x0000000000000000        0x0 /mnt/Workspace/drone_parachute/build/core/core.a(HardwareSerial.cpp.o)
 .data          0x0000000000000000        0x0 /mnt/Workspace/drone_parachute/build/core/core.a(HardwareSerial.cpp.o)
 .bss           0x0000000000000000        0x0 /mnt/Workspace/drone_parachute/build/core/core.a(HardwareSerial.cpp.o)
 .text._ZN14HardwareSerial3endEv
                0x0000000000000000        0x6 /mnt/Workspace/drone_parachute/build/core/core.a(HardwareSerial.cpp.o)
 .text._ZN14HardwareSerial17availableForWriteEv
                0x0000000000000000       0x12 /mnt/Workspace/drone_parachute/build/core/core.a(HardwareSerial.cpp.o)
 .rodata._ZTV6Stream
                0x0000000000000000       0x28 /mnt/Workspace/drone_parachute/build/core/core.a(HardwareSerial.cpp.o)
 .text          0x0000000000000000        0x0 /mnt/Workspace/drone_parachute/build/core/core.a(Print.cpp.o)
 .data          0x0000000000000000        0x0 /mnt/Workspace/drone_parachute/build/core/core.a(Print.cpp.o)
 .bss           0x0000000000000000        0x0 /mnt/Workspace/drone_parachute/build/core/core.a(Print.cpp.o)
 .text._ZN5Print5printERK6String
                0x0000000000000000       0x10 /mnt/Workspace/drone_parachute/build/core/core.a(Print.cpp.o)
 .text._ZN5Print5printEPK19__FlashStringHelper
                0x0000000000000000        0x4 /mnt/Workspace/drone_parachute/build/core/core.a(Print.cpp.o)
 .text._ZN5Print5printERK9Printable
                0x0000000000000000       0x10 /mnt/Workspace/drone_parachute/build/core/core.a(Print.cpp.o)
 .text._ZN5Print7printlnERK6String
                0x0000000000000000       0x14 /mnt/Workspace/drone_parachute/build/core/core.a(Print.cpp.o)
 .text._ZN5Print7printlnEc
                0x0000000000000000       0x14 /mnt/Workspace/drone_parachute/build/core/core.a(Print.cpp.o)
 .text._ZN5Print7printlnEPK19__FlashStringHelper
                0x0000000000000000       0x14 /mnt/Workspace/drone_parachute/build/core/core.a(Print.cpp.o)
 .text._ZN5Print7printlnERK9Printable
                0x0000000000000000       0x14 /mnt/Workspace/drone_parachute/build/core/core.a(Print.cpp.o)
 .text._ZN5Print7printlnEii
                0x0000000000000000       0x14 /mnt/Workspace/drone_parachute/build/core/core.a(Print.cpp.o)
 .text._ZN5Print5printEli
                0x0000000000000000       0x12 /mnt/Workspace/drone_parachute/build/core/core.a(Print.cpp.o)
 .text._ZN5Print7printlnEli
                0x0000000000000000       0x1c /mnt/Workspace/drone_parachute/build/core/core.a(Print.cpp.o)
 .text._ZN5Print7printlnExi
                0x0000000000000000       0x1a /mnt/Workspace/drone_parachute/build/core/core.a(Print.cpp.o)
 .text._ZN5Print5printEyi
                0x0000000000000000        0xa /mnt/Workspace/drone_parachute/build/core/core.a(Print.cpp.o)
 .text._ZN5Print5printEhi
                0x0000000000000000       0x14 /mnt/Workspace/drone_parachute/build/core/core.a(Print.cpp.o)
 .text._ZN5Print7printlnEhi
                0x0000000000000000       0x14 /mnt/Workspace/drone_parachute/build/core/core.a(Print.cpp.o)
 .text._ZN5Print5printEji
                0x0000000000000000       0x14 /mnt/Workspace/drone_parachute/build/core/core.a(Print.cpp.o)
 .text._ZN5Print7printlnEji
                0x0000000000000000       0x14 /mnt/Workspace/drone_parachute/build/core/core.a(Print.cpp.o)
 .text._ZN5Print5printEmi
                0x0000000000000000       0x14 /mnt/Workspace/drone_parachute/build/core/core.a(Print.cpp.o)
 .text._ZN5Print7printlnEmi
                0x0000000000000000       0x1e /mnt/Workspace/drone_parachute/build/core/core.a(Print.cpp.o)
 .text._ZN5Print7printlnEyi
                0x0000000000000000       0x1c /mnt/Workspace/drone_parachute/build/core/core.a(Print.cpp.o)
 .rodata._ZTV5Print
                0x0000000000000000       0x18 /mnt/Workspace/drone_parachute/build/core/core.a(Print.cpp.o)
 .text          0x0000000000000000        0x0 /mnt/Workspace/drone_parachute/build/core/core.a(cxxabi-compat.cpp.o)
 .data          0x0000000000000000        0x0 /mnt/Workspace/drone_parachute/build/core/core.a(cxxabi-compat.cpp.o)
 .bss           0x0000000000000000        0x0 /mnt/Workspace/drone_parachute/build/core/core.a(cxxabi-compat.cpp.o)
 .text.__cxa_demangle
                0x0000000000000000        0xc /mnt/Workspace/drone_parachute/build/core/core.a(cxxabi-compat.cpp.o)
 .text          0x0000000000000000        0x0 /mnt/Workspace/drone_parachute/build/core/core.a(main.cpp.o)
 .data          0x0000000000000000        0x0 /mnt/Workspace/drone_parachute/build/core/core.a(main.cpp.o)
 .bss           0x0000000000000000        0x0 /mnt/Workspace/drone_parachute/build/core/core.a(main.cpp.o)
 .text          0x0000000000000000        0x0 /mnt/Workspace/drone_parachute/build/core/core.a(pwm.cpp.o)
 .data          0x0000000000000000        0x0 /mnt/Workspace/drone_parachute/build/core/core.a(pwm.cpp.o)
 .bss           0x0000000000000000        0x0 /mnt/Workspace/drone_parachute/build/core/core.a(pwm.cpp.o)
 .text._Z11analogWritehi
                0x0000000000000000       0x1c /mnt/Workspace/drone_parachute/build/core/core.a(pwm.cpp.o)
 .text          0x0000000000000000        0x0 /mnt/Workspace/drone_parachute/build/core/core.a(wirish_digital_f1.cpp.o)
 .data          0x0000000000000000        0x0 /mnt/Workspace/drone_parachute/build/core/core.a(wirish_digital_f1.cpp.o)
 .bss           0x0000000000000000        0x0 /mnt/Workspace/drone_parachute/build/core/core.a(wirish_digital_f1.cpp.o)
 .text          0x0000000000000000        0x0 /mnt/Workspace/drone_parachute/build/core/core.a(wirish_analog.cpp.o)
 .data          0x0000000000000000        0x0 /mnt/Workspace/drone_parachute/build/core/core.a(wirish_analog.cpp.o)
 .bss           0x0000000000000000        0x0 /mnt/Workspace/drone_parachute/build/core/core.a(wirish_analog.cpp.o)
 .text          0x0000000000000000        0x0 /mnt/Workspace/drone_parachute/build/core/core.a(wirish_digital.cpp.o)
 .data          0x0000000000000000        0x0 /mnt/Workspace/drone_parachute/build/core/core.a(wirish_digital.cpp.o)
 .bss           0x0000000000000000        0x0 /mnt/Workspace/drone_parachute/build/core/core.a(wirish_digital.cpp.o)
 .text._Z11digitalReadh
                0x0000000000000000       0x2c /mnt/Workspace/drone_parachute/build/core/core.a(wirish_digital.cpp.o)
 .text          0x0000000000000000        0x0 /mnt/Workspace/drone_parachute/build/core/core.a(wirish_time.cpp.o)
 .data          0x0000000000000000        0x0 /mnt/Workspace/drone_parachute/build/core/core.a(wirish_time.cpp.o)
 .bss           0x0000000000000000        0x0 /mnt/Workspace/drone_parachute/build/core/core.a(wirish_time.cpp.o)
 .text._Z17delayMicrosecondsm
                0x0000000000000000       0x10 /mnt/Workspace/drone_parachute/build/core/core.a(wirish_time.cpp.o)
 .text          0x0000000000000000        0x0 /mnt/Workspace/drone_parachute/build/core/core.a(hooks.c.o)
 .data          0x0000000000000000        0x0 /mnt/Workspace/drone_parachute/build/core/core.a(hooks.c.o)
 .bss           0x0000000000000000        0x0 /mnt/Workspace/drone_parachute/build/core/core.a(hooks.c.o)
 .text          0x0000000000000000        0x0 /mnt/Workspace/drone_parachute/build/core/core.a(gpio.c.o)
 .data          0x0000000000000000        0x0 /mnt/Workspace/drone_parachute/build/core/core.a(gpio.c.o)
 .bss           0x0000000000000000        0x0 /mnt/Workspace/drone_parachute/build/core/core.a(gpio.c.o)
 .text          0x0000000000000000        0x0 /mnt/Workspace/drone_parachute/build/core/core.a(usart.c.o)
 .data          0x0000000000000000        0x0 /mnt/Workspace/drone_parachute/build/core/core.a(usart.c.o)
 .bss           0x0000000000000000        0x0 /mnt/Workspace/drone_parachute/build/core/core.a(usart.c.o)
 .text.usart_disable
                0x0000000000000000       0x38 /mnt/Workspace/drone_parachute/build/core/core.a(usart.c.o)
 .text.usart_rx
                0x0000000000000000       0x58 /mnt/Workspace/drone_parachute/build/core/core.a(usart.c.o)
 .text          0x0000000000000000        0x0 /home/param/.arduino15/packages/arduino/tools/arm-none-eabi-gcc/4.8.3-2014q1/bin/../lib/gcc/arm-none-eabi/4.8.3/../../../../arm-none-eabi/lib/armv7-m/libm.a(lib_a-w_sqrt.o)
 .data          0x0000000000000000        0x0 /home/param/.arduino15/packages/arduino/tools/arm-none-eabi-gcc/4.8.3-2014q1/bin/../lib/gcc/arm-none-eabi/4.8.3/../../../../arm-none-eabi/lib/armv7-m/libm.a(lib_a-w_sqrt.o)
 .bss           0x0000000000000000        0x0 /home/param/.arduino15/packages/arduino/tools/arm-none-eabi-gcc/4.8.3-2014q1/bin/../lib/gcc/arm-none-eabi/4.8.3/../../../../arm-none-eabi/lib/armv7-m/libm.a(lib_a-w_sqrt.o)
 .text          0x0000000000000000        0x0 /home/param/.arduino15/packages/arduino/tools/arm-none-eabi-gcc/4.8.3-2014q1/bin/../lib/gcc/arm-none-eabi/4.8.3/../../../../arm-none-eabi/lib/armv7-m/libm.a(lib_a-e_sqrt.o)
 .data          0x0000000000000000        0x0 /home/param/.arduino15/packages/arduino/tools/arm-none-eabi-gcc/4.8.3-2014q1/bin/../lib/gcc/arm-none-eabi/4.8.3/../../../../arm-none-eabi/lib/armv7-m/libm.a(lib_a-e_sqrt.o)
 .bss           0x0000000000000000        0x0 /home/param/.arduino15/packages/arduino/tools/arm-none-eabi-gcc/4.8.3-2014q1/bin/../lib/gcc/arm-none-eabi/4.8.3/../../../../arm-none-eabi/lib/armv7-m/libm.a(lib_a-e_sqrt.o)
 .text          0x0000000000000000        0x0 /home/param/.arduino15/packages/arduino/tools/arm-none-eabi-gcc/4.8.3-2014q1/bin/../lib/gcc/arm-none-eabi/4.8.3/../../../../arm-none-eabi/lib/armv7-m/libm.a(lib_a-s_fpclassify.o)
 .data          0x0000000000000000        0x0 /home/param/.arduino15/packages/arduino/tools/arm-none-eabi-gcc/4.8.3-2014q1/bin/../lib/gcc/arm-none-eabi/4.8.3/../../../../arm-none-eabi/lib/armv7-m/libm.a(lib_a-s_fpclassify.o)
 .bss           0x0000000000000000        0x0 /home/param/.arduino15/packages/arduino/tools/arm-none-eabi-gcc/4.8.3-2014q1/bin/../lib/gcc/arm-none-eabi/4.8.3/../../../../arm-none-eabi/lib/armv7-m/libm.a(lib_a-s_fpclassify.o)
 .text          0x0000000000000000        0x0 /home/param/.arduino15/packages/arduino/tools/arm-none-eabi-gcc/4.8.3-2014q1/bin/../lib/gcc/arm-none-eabi/4.8.3/../../../../arm-none-eabi/lib/armv7-m/libm.a(lib_a-s_lib_ver.o)
 .data          0x0000000000000000        0x0 /home/param/.arduino15/packages/arduino/tools/arm-none-eabi-gcc/4.8.3-2014q1/bin/../lib/gcc/arm-none-eabi/4.8.3/../../../../arm-none-eabi/lib/armv7-m/libm.a(lib_a-s_lib_ver.o)
 .bss           0x0000000000000000        0x0 /home/param/.arduino15/packages/arduino/tools/arm-none-eabi-gcc/4.8.3-2014q1/bin/../lib/gcc/arm-none-eabi/4.8.3/../../../../arm-none-eabi/lib/armv7-m/libm.a(lib_a-s_lib_ver.o)
 .text          0x0000000000000000        0x0 /home/param/.arduino15/packages/arduino/tools/arm-none-eabi-gcc/4.8.3-2014q1/bin/../lib/gcc/arm-none-eabi/4.8.3/../../../../arm-none-eabi/lib/armv7-m/libm.a(lib_a-s_matherr.o)
 .data          0x0000000000000000        0x0 /home/param/.arduino15/packages/arduino/tools/arm-none-eabi-gcc/4.8.3-2014q1/bin/../lib/gcc/arm-none-eabi/4.8.3/../../../../arm-none-eabi/lib/armv7-m/libm.a(lib_a-s_matherr.o)
 .bss           0x0000000000000000        0x0 /home/param/.arduino15/packages/arduino/tools/arm-none-eabi-gcc/4.8.3-2014q1/bin/../lib/gcc/arm-none-eabi/4.8.3/../../../../arm-none-eabi/lib/armv7-m/libm.a(lib_a-s_matherr.o)
 .data          0x0000000000000000        0x0 /home/param/.arduino15/packages/arduino/tools/arm-none-eabi-gcc/4.8.3-2014q1/bin/../lib/gcc/arm-none-eabi/4.8.3/armv7-m/libgcc.a(_arm_addsubdf3.o)
 .bss           0x0000000000000000        0x0 /home/param/.arduino15/packages/arduino/tools/arm-none-eabi-gcc/4.8.3-2014q1/bin/../lib/gcc/arm-none-eabi/4.8.3/armv7-m/libgcc.a(_arm_addsubdf3.o)
 .data          0x0000000000000000        0x0 /home/param/.arduino15/packages/arduino/tools/arm-none-eabi-gcc/4.8.3-2014q1/bin/../lib/gcc/arm-none-eabi/4.8.3/armv7-m/libgcc.a(_arm_muldivdf3.o)
 .bss           0x0000000000000000        0x0 /home/param/.arduino15/packages/arduino/tools/arm-none-eabi-gcc/4.8.3-2014q1/bin/../lib/gcc/arm-none-eabi/4.8.3/armv7-m/libgcc.a(_arm_muldivdf3.o)
 .data          0x0000000000000000        0x0 /home/param/.arduino15/packages/arduino/tools/arm-none-eabi-gcc/4.8.3-2014q1/bin/../lib/gcc/arm-none-eabi/4.8.3/armv7-m/libgcc.a(_arm_cmpdf2.o)
 .bss           0x0000000000000000        0x0 /home/param/.arduino15/packages/arduino/tools/arm-none-eabi-gcc/4.8.3-2014q1/bin/../lib/gcc/arm-none-eabi/4.8.3/armv7-m/libgcc.a(_arm_cmpdf2.o)
 .data          0x0000000000000000        0x0 /home/param/.arduino15/packages/arduino/tools/arm-none-eabi-gcc/4.8.3-2014q1/bin/../lib/gcc/arm-none-eabi/4.8.3/armv7-m/libgcc.a(_arm_fixdfsi.o)
 .bss           0x0000000000000000        0x0 /home/param/.arduino15/packages/arduino/tools/arm-none-eabi-gcc/4.8.3-2014q1/bin/../lib/gcc/arm-none-eabi/4.8.3/armv7-m/libgcc.a(_arm_fixdfsi.o)
 .data          0x0000000000000000        0x0 /home/param/.arduino15/packages/arduino/tools/arm-none-eabi-gcc/4.8.3-2014q1/bin/../lib/gcc/arm-none-eabi/4.8.3/armv7-m/libgcc.a(_arm_truncdfsf2.o)
 .bss           0x0000000000000000        0x0 /home/param/.arduino15/packages/arduino/tools/arm-none-eabi-gcc/4.8.3-2014q1/bin/../lib/gcc/arm-none-eabi/4.8.3/armv7-m/libgcc.a(_arm_truncdfsf2.o)
 .data          0x0000000000000000        0x0 /home/param/.arduino15/packages/arduino/tools/arm-none-eabi-gcc/4.8.3-2014q1/bin/../lib/gcc/arm-none-eabi/4.8.3/armv7-m/libgcc.a(_arm_addsubsf3.o)
 .bss           0x0000000000000000        0x0 /home/param/.arduino15/packages/arduino/tools/arm-none-eabi-gcc/4.8.3-2014q1/bin/../lib/gcc/arm-none-eabi/4.8.3/armv7-m/libgcc.a(_arm_addsubsf3.o)
 .data          0x0000000000000000        0x0 /home/param/.arduino15/packages/arduino/tools/arm-none-eabi-gcc/4.8.3-2014q1/bin/../lib/gcc/arm-none-eabi/4.8.3/armv7-m/libgcc.a(_arm_muldivsf3.o)
 .bss           0x0000000000000000        0x0 /home/param/.arduino15/packages/arduino/tools/arm-none-eabi-gcc/4.8.3-2014q1/bin/../lib/gcc/arm-none-eabi/4.8.3/armv7-m/libgcc.a(_arm_muldivsf3.o)
 .data          0x0000000000000000        0x0 /home/param/.arduino15/packages/arduino/tools/arm-none-eabi-gcc/4.8.3-2014q1/bin/../lib/gcc/arm-none-eabi/4.8.3/armv7-m/libgcc.a(_arm_cmpsf2.o)
 .bss           0x0000000000000000        0x0 /home/param/.arduino15/packages/arduino/tools/arm-none-eabi-gcc/4.8.3-2014q1/bin/../lib/gcc/arm-none-eabi/4.8.3/armv7-m/libgcc.a(_arm_cmpsf2.o)
 .text          0x0000000000000000       0x4c /home/param/.arduino15/packages/arduino/tools/arm-none-eabi-gcc/4.8.3-2014q1/bin/../lib/gcc/arm-none-eabi/4.8.3/armv7-m/libgcc.a(_arm_fixsfsi.o)
 .data          0x0000000000000000        0x0 /home/param/.arduino15/packages/arduino/tools/arm-none-eabi-gcc/4.8.3-2014q1/bin/../lib/gcc/arm-none-eabi/4.8.3/armv7-m/libgcc.a(_arm_fixsfsi.o)
 .bss           0x0000000000000000        0x0 /home/param/.arduino15/packages/arduino/tools/arm-none-eabi-gcc/4.8.3-2014q1/bin/../lib/gcc/arm-none-eabi/4.8.3/armv7-m/libgcc.a(_arm_fixsfsi.o)
 .data          0x0000000000000000        0x0 /home/param/.arduino15/packages/arduino/tools/arm-none-eabi-gcc/4.8.3-2014q1/bin/../lib/gcc/arm-none-eabi/4.8.3/armv7-m/libgcc.a(_aeabi_ldivmod.o)
 .bss           0x0000000000000000        0x0 /home/param/.arduino15/packages/arduino/tools/arm-none-eabi-gcc/4.8.3-2014q1/bin/../lib/gcc/arm-none-eabi/4.8.3/armv7-m/libgcc.a(_aeabi_ldivmod.o)
 .data          0x0000000000000000        0x0 /home/param/.arduino15/packages/arduino/tools/arm-none-eabi-gcc/4.8.3-2014q1/bin/../lib/gcc/arm-none-eabi/4.8.3/armv7-m/libgcc.a(_aeabi_uldivmod.o)
 .bss           0x0000000000000000        0x0 /home/param/.arduino15/packages/arduino/tools/arm-none-eabi-gcc/4.8.3-2014q1/bin/../lib/gcc/arm-none-eabi/4.8.3/armv7-m/libgcc.a(_aeabi_uldivmod.o)
 .data          0x0000000000000000        0x0 /home/param/.arduino15/packages/arduino/tools/arm-none-eabi-gcc/4.8.3-2014q1/bin/../lib/gcc/arm-none-eabi/4.8.3/armv7-m/libgcc.a(_fixdfdi.o)
 .bss           0x0000000000000000        0x0 /home/param/.arduino15/packages/arduino/tools/arm-none-eabi-gcc/4.8.3-2014q1/bin/../lib/gcc/arm-none-eabi/4.8.3/armv7-m/libgcc.a(_fixdfdi.o)
 .data          0x0000000000000000        0x0 /home/param/.arduino15/packages/arduino/tools/arm-none-eabi-gcc/4.8.3-2014q1/bin/../lib/gcc/arm-none-eabi/4.8.3/armv7-m/libgcc.a(_fixunsdfdi.o)
 .bss           0x0000000000000000        0x0 /home/param/.arduino15/packages/arduino/tools/arm-none-eabi-gcc/4.8.3-2014q1/bin/../lib/gcc/arm-none-eabi/4.8.3/armv7-m/libgcc.a(_fixunsdfdi.o)
 .data          0x0000000000000000        0x0 /home/param/.arduino15/packages/arduino/tools/arm-none-eabi-gcc/4.8.3-2014q1/bin/../lib/gcc/arm-none-eabi/4.8.3/armv7-m/libgcc.a(bpabi.o)
 .bss           0x0000000000000000        0x0 /home/param/.arduino15/packages/arduino/tools/arm-none-eabi-gcc/4.8.3-2014q1/bin/../lib/gcc/arm-none-eabi/4.8.3/armv7-m/libgcc.a(bpabi.o)
 .data          0x0000000000000000        0x0 /home/param/.arduino15/packages/arduino/tools/arm-none-eabi-gcc/4.8.3-2014q1/bin/../lib/gcc/arm-none-eabi/4.8.3/armv7-m/libgcc.a(_dvmd_tls.o)
 .bss           0x0000000000000000        0x0 /home/param/.arduino15/packages/arduino/tools/arm-none-eabi-gcc/4.8.3-2014q1/bin/../lib/gcc/arm-none-eabi/4.8.3/armv7-m/libgcc.a(_dvmd_tls.o)
 .data          0x0000000000000000        0x0 /home/param/.arduino15/packages/arduino/tools/arm-none-eabi-gcc/4.8.3-2014q1/bin/../lib/gcc/arm-none-eabi/4.8.3/armv7-m/libgcc.a(_arm_fixunsdfsi.o)
 .bss           0x0000000000000000        0x0 /home/param/.arduino15/packages/arduino/tools/arm-none-eabi-gcc/4.8.3-2014q1/bin/../lib/gcc/arm-none-eabi/4.8.3/armv7-m/libgcc.a(_arm_fixunsdfsi.o)
 .data          0x0000000000000000        0x0 /home/param/.arduino15/packages/arduino/tools/arm-none-eabi-gcc/4.8.3-2014q1/bin/../lib/gcc/arm-none-eabi/4.8.3/armv7-m/libgcc.a(_divdi3.o)
 .bss           0x0000000000000000        0x0 /home/param/.arduino15/packages/arduino/tools/arm-none-eabi-gcc/4.8.3-2014q1/bin/../lib/gcc/arm-none-eabi/4.8.3/armv7-m/libgcc.a(_divdi3.o)
 .ARM.extab     0x0000000000000000        0x0 /home/param/.arduino15/packages/arduino/tools/arm-none-eabi-gcc/4.8.3-2014q1/bin/../lib/gcc/arm-none-eabi/4.8.3/armv7-m/libgcc.a(_divdi3.o)
 .data          0x0000000000000000        0x0 /home/param/.arduino15/packages/arduino/tools/arm-none-eabi-gcc/4.8.3-2014q1/bin/../lib/gcc/arm-none-eabi/4.8.3/armv7-m/libgcc.a(_udivdi3.o)
 .bss           0x0000000000000000        0x0 /home/param/.arduino15/packages/arduino/tools/arm-none-eabi-gcc/4.8.3-2014q1/bin/../lib/gcc/arm-none-eabi/4.8.3/armv7-m/libgcc.a(_udivdi3.o)
 .ARM.extab     0x0000000000000000        0x0 /home/param/.arduino15/packages/arduino/tools/arm-none-eabi-gcc/4.8.3-2014q1/bin/../lib/gcc/arm-none-eabi/4.8.3/armv7-m/libgcc.a(_udivdi3.o)
 .text          0x0000000000000000        0x0 /home/param/.arduino15/packages/arduino/tools/arm-none-eabi-gcc/4.8.3-2014q1/bin/../lib/gcc/arm-none-eabi/4.8.3/../../../../arm-none-eabi/lib/armv7-m/libc.a(lib_a-errno.o)
 .data          0x0000000000000000        0x0 /home/param/.arduino15/packages/arduino/tools/arm-none-eabi-gcc/4.8.3-2014q1/bin/../lib/gcc/arm-none-eabi/4.8.3/../../../../arm-none-eabi/lib/armv7-m/libc.a(lib_a-errno.o)
 .bss           0x0000000000000000        0x0 /home/param/.arduino15/packages/arduino/tools/arm-none-eabi-gcc/4.8.3-2014q1/bin/../lib/gcc/arm-none-eabi/4.8.3/../../../../arm-none-eabi/lib/armv7-m/libc.a(lib_a-errno.o)
 .text          0x0000000000000000        0x0 /home/param/.arduino15/packages/arduino/tools/arm-none-eabi-gcc/4.8.3-2014q1/bin/../lib/gcc/arm-none-eabi/4.8.3/../../../../arm-none-eabi/lib/armv7-m/libc.a(lib_a-exit.o)
 .data          0x0000000000000000        0x0 /home/param/.arduino15/packages/arduino/tools/arm-none-eabi-gcc/4.8.3-2014q1/bin/../lib/gcc/arm-none-eabi/4.8.3/../../../../arm-none-eabi/lib/armv7-m/libc.a(lib_a-exit.o)
 .bss           0x0000000000000000        0x0 /home/param/.arduino15/packages/arduino/tools/arm-none-eabi-gcc/4.8.3-2014q1/bin/../lib/gcc/arm-none-eabi/4.8.3/../../../../arm-none-eabi/lib/armv7-m/libc.a(lib_a-exit.o)
 .text.exit     0x0000000000000000       0x20 /home/param/.arduino15/packages/arduino/tools/arm-none-eabi-gcc/4.8.3-2014q1/bin/../lib/gcc/arm-none-eabi/4.8.3/../../../../arm-none-eabi/lib/armv7-m/libc.a(lib_a-exit.o)
 .text          0x0000000000000000        0x0 /home/param/.arduino15/packages/arduino/tools/arm-none-eabi-gcc/4.8.3-2014q1/bin/../lib/gcc/arm-none-eabi/4.8.3/../../../../arm-none-eabi/lib/armv7-m/libc.a(lib_a-impure.o)
 .data          0x0000000000000000        0x0 /home/param/.arduino15/packages/arduino/tools/arm-none-eabi-gcc/4.8.3-2014q1/bin/../lib/gcc/arm-none-eabi/4.8.3/../../../../arm-none-eabi/lib/armv7-m/libc.a(lib_a-impure.o)
 .bss           0x0000000000000000        0x0 /home/param/.arduino15/packages/arduino/tools/arm-none-eabi-gcc/4.8.3-2014q1/bin/../lib/gcc/arm-none-eabi/4.8.3/../../../../arm-none-eabi/lib/armv7-m/libc.a(lib_a-impure.o)
 .text          0x0000000000000000        0x0 /home/param/.arduino15/packages/arduino/tools/arm-none-eabi-gcc/4.8.3-2014q1/bin/../lib/gcc/arm-none-eabi/4.8.3/../../../../arm-none-eabi/lib/armv7-m/libc.a(lib_a-init.o)
 .data          0x0000000000000000        0x0 /home/param/.arduino15/packages/arduino/tools/arm-none-eabi-gcc/4.8.3-2014q1/bin/../lib/gcc/arm-none-eabi/4.8.3/../../../../arm-none-eabi/lib/armv7-m/libc.a(lib_a-init.o)
 .bss           0x0000000000000000        0x0 /home/param/.arduino15/packages/arduino/tools/arm-none-eabi-gcc/4.8.3-2014q1/bin/../lib/gcc/arm-none-eabi/4.8.3/../../../../arm-none-eabi/lib/armv7-m/libc.a(lib_a-init.o)
 .text          0x0000000000000000       0xec /home/param/.arduino15/packages/arduino/tools/arm-none-eabi-gcc/4.8.3-2014q1/bin/../lib/gcc/arm-none-eabi/4.8.3/../../../../arm-none-eabi/lib/armv7-m/libc.a(lib_a-memcpy.o)
 .data          0x0000000000000000        0x0 /home/param/.arduino15/packages/arduino/tools/arm-none-eabi-gcc/4.8.3-2014q1/bin/../lib/gcc/arm-none-eabi/4.8.3/../../../../arm-none-eabi/lib/armv7-m/libc.a(lib_a-memcpy.o)
 .bss           0x0000000000000000        0x0 /home/param/.arduino15/packages/arduino/tools/arm-none-eabi-gcc/4.8.3-2014q1/bin/../lib/gcc/arm-none-eabi/4.8.3/../../../../arm-none-eabi/lib/armv7-m/libc.a(lib_a-memcpy.o)
 .text          0x0000000000000000        0x0 /home/param/.arduino15/packages/arduino/tools/arm-none-eabi-gcc/4.8.3-2014q1/bin/../lib/gcc/arm-none-eabi/4.8.3/../../../../arm-none-eabi/lib/armv7-m/libc.a(lib_a-memset.o)
 .data          0x0000000000000000        0x0 /home/param/.arduino15/packages/arduino/tools/arm-none-eabi-gcc/4.8.3-2014q1/bin/../lib/gcc/arm-none-eabi/4.8.3/../../../../arm-none-eabi/lib/armv7-m/libc.a(lib_a-memset.o)
 .bss           0x0000000000000000        0x0 /home/param/.arduino15/packages/arduino/tools/arm-none-eabi-gcc/4.8.3-2014q1/bin/../lib/gcc/arm-none-eabi/4.8.3/../../../../arm-none-eabi/lib/armv7-m/libc.a(lib_a-memset.o)
 .text.memset   0x0000000000000000       0x94 /home/param/.arduino15/packages/arduino/tools/arm-none-eabi-gcc/4.8.3-2014q1/bin/../lib/gcc/arm-none-eabi/4.8.3/../../../../arm-none-eabi/lib/armv7-m/libc.a(lib_a-memset.o)
 .text          0x0000000000000000        0x0 /home/param/.arduino15/packages/arduino/tools/arm-none-eabi-gcc/4.8.3-2014q1/bin/../lib/gcc/arm-none-eabi/4.8.3/../../../../arm-none-eabi/lib/armv7-m/libc.a(lib_a-strcpy.o)
 .data          0x0000000000000000        0x0 /home/param/.arduino15/packages/arduino/tools/arm-none-eabi-gcc/4.8.3-2014q1/bin/../lib/gcc/arm-none-eabi/4.8.3/../../../../arm-none-eabi/lib/armv7-m/libc.a(lib_a-strcpy.o)
 .bss           0x0000000000000000        0x0 /home/param/.arduino15/packages/arduino/tools/arm-none-eabi-gcc/4.8.3-2014q1/bin/../lib/gcc/arm-none-eabi/4.8.3/../../../../arm-none-eabi/lib/armv7-m/libc.a(lib_a-strcpy.o)
 .text.strcpy   0x0000000000000000       0xbc /home/param/.arduino15/packages/arduino/tools/arm-none-eabi-gcc/4.8.3-2014q1/bin/../lib/gcc/arm-none-eabi/4.8.3/../../../../arm-none-eabi/lib/armv7-m/libc.a(lib_a-strcpy.o)
 .text          0x0000000000000000        0x0 /home/param/.arduino15/packages/arduino/tools/arm-none-eabi-gcc/4.8.3-2014q1/bin/../lib/gcc/arm-none-eabi/4.8.3/../../../../arm-none-eabi/lib/armv7-m/libc.a(lib_a-strlen.o)
 .data          0x0000000000000000        0x0 /home/param/.arduino15/packages/arduino/tools/arm-none-eabi-gcc/4.8.3-2014q1/bin/../lib/gcc/arm-none-eabi/4.8.3/../../../../arm-none-eabi/lib/armv7-m/libc.a(lib_a-strlen.o)
 .bss           0x0000000000000000        0x0 /home/param/.arduino15/packages/arduino/tools/arm-none-eabi-gcc/4.8.3-2014q1/bin/../lib/gcc/arm-none-eabi/4.8.3/../../../../arm-none-eabi/lib/armv7-m/libc.a(lib_a-strlen.o)
 .text          0x0000000000000000        0x0 /home/param/.arduino15/packages/arduino/tools/arm-none-eabi-gcc/4.8.3-2014q1/bin/../lib/gcc/arm-none-eabi/4.8.3/../../../../arm-none-eabi/lib/armv7-m/libc.a(lib_a-__call_atexit.o)
 .data          0x0000000000000000        0x0 /home/param/.arduino15/packages/arduino/tools/arm-none-eabi-gcc/4.8.3-2014q1/bin/../lib/gcc/arm-none-eabi/4.8.3/../../../../arm-none-eabi/lib/armv7-m/libc.a(lib_a-__call_atexit.o)
 .bss           0x0000000000000000        0x0 /home/param/.arduino15/packages/arduino/tools/arm-none-eabi-gcc/4.8.3-2014q1/bin/../lib/gcc/arm-none-eabi/4.8.3/../../../../arm-none-eabi/lib/armv7-m/libc.a(lib_a-__call_atexit.o)
 .text.__call_exitprocs
                0x0000000000000000       0xf0 /home/param/.arduino15/packages/arduino/tools/arm-none-eabi-gcc/4.8.3-2014q1/bin/../lib/gcc/arm-none-eabi/4.8.3/../../../../arm-none-eabi/lib/armv7-m/libc.a(lib_a-__call_atexit.o)
 .text          0x0000000000000000        0x0 /home/param/.arduino15/packages/arduino/tools/arm-none-eabi-gcc/4.8.3-2014q1/bin/../lib/gcc/arm-none-eabi/4.8.3/../../../../arm-none-eabi/lib/armv7-m/libc.a(lib_a-atexit.o)
 .data          0x0000000000000000        0x0 /home/param/.arduino15/packages/arduino/tools/arm-none-eabi-gcc/4.8.3-2014q1/bin/../lib/gcc/arm-none-eabi/4.8.3/../../../../arm-none-eabi/lib/armv7-m/libc.a(lib_a-atexit.o)
 .bss           0x0000000000000000        0x0 /home/param/.arduino15/packages/arduino/tools/arm-none-eabi-gcc/4.8.3-2014q1/bin/../lib/gcc/arm-none-eabi/4.8.3/../../../../arm-none-eabi/lib/armv7-m/libc.a(lib_a-atexit.o)
 .text          0x0000000000000000        0x0 /home/param/.arduino15/packages/arduino/tools/arm-none-eabi-gcc/4.8.3-2014q1/bin/../lib/gcc/arm-none-eabi/4.8.3/../../../../arm-none-eabi/lib/armv7-m/libc.a(lib_a-fini.o)
 .data          0x0000000000000000        0x0 /home/param/.arduino15/packages/arduino/tools/arm-none-eabi-gcc/4.8.3-2014q1/bin/../lib/gcc/arm-none-eabi/4.8.3/../../../../arm-none-eabi/lib/armv7-m/libc.a(lib_a-fini.o)
 .bss           0x0000000000000000        0x0 /home/param/.arduino15/packages/arduino/tools/arm-none-eabi-gcc/4.8.3-2014q1/bin/../lib/gcc/arm-none-eabi/4.8.3/../../../../arm-none-eabi/lib/armv7-m/libc.a(lib_a-fini.o)
 .text          0x0000000000000000        0x0 /home/param/.arduino15/packages/arduino/tools/arm-none-eabi-gcc/4.8.3-2014q1/bin/../lib/gcc/arm-none-eabi/4.8.3/../../../../arm-none-eabi/lib/armv7-m/libc.a(lib_a-__atexit.o)
 .data          0x0000000000000000        0x0 /home/param/.arduino15/packages/arduino/tools/arm-none-eabi-gcc/4.8.3-2014q1/bin/../lib/gcc/arm-none-eabi/4.8.3/../../../../arm-none-eabi/lib/armv7-m/libc.a(lib_a-__atexit.o)
 .bss           0x0000000000000000        0x0 /home/param/.arduino15/packages/arduino/tools/arm-none-eabi-gcc/4.8.3-2014q1/bin/../lib/gcc/arm-none-eabi/4.8.3/../../../../arm-none-eabi/lib/armv7-m/libc.a(lib_a-__atexit.o)
 .text          0x0000000000000000        0x0 /home/param/.arduino15/packages/arduino/tools/arm-none-eabi-gcc/4.8.3-2014q1/bin/../lib/gcc/arm-none-eabi/4.8.3/armv7-m/crtend.o
 .data          0x0000000000000000        0x0 /home/param/.arduino15/packages/arduino/tools/arm-none-eabi-gcc/4.8.3-2014q1/bin/../lib/gcc/arm-none-eabi/4.8.3/armv7-m/crtend.o
 .bss           0x0000000000000000        0x0 /home/param/.arduino15/packages/arduino/tools/arm-none-eabi-gcc/4.8.3-2014q1/bin/../lib/gcc/arm-none-eabi/4.8.3/armv7-m/crtend.o
 .eh_frame      0x0000000000000000        0x4 /home/param/.arduino15/packages/arduino/tools/arm-none-eabi-gcc/4.8.3-2014q1/bin/../lib/gcc/arm-none-eabi/4.8.3/armv7-m/crtend.o
 .jcr           0x0000000000000000        0x4 /home/param/.arduino15/packages/arduino/tools/arm-none-eabi-gcc/4.8.3-2014q1/bin/../lib/gcc/arm-none-eabi/4.8.3/armv7-m/crtend.o
 .text          0x0000000000000000        0x0 /home/param/.arduino15/packages/arduino/tools/arm-none-eabi-gcc/4.8.3-2014q1/bin/../lib/gcc/arm-none-eabi/4.8.3/armv7-m/crtn.o
 .data          0x0000000000000000        0x0 /home/param/.arduino15/packages/arduino/tools/arm-none-eabi-gcc/4.8.3-2014q1/bin/../lib/gcc/arm-none-eabi/4.8.3/armv7-m/crtn.o
 .bss           0x0000000000000000        0x0 /home/param/.arduino15/packages/arduino/tools/arm-none-eabi-gcc/4.8.3-2014q1/bin/../lib/gcc/arm-none-eabi/4.8.3/armv7-m/crtn.o

Memory Configuration

Name             Origin             Length             Attributes
ram              0x0000000020000000 0x0000000000005000 xrw
rom              0x0000000008000000 0x0000000000010000 xr
*default*        0x0000000000000000 0xffffffffffffffff

Linker script and memory map

LOAD /home/param/.arduino15/packages/arduino/tools/arm-none-eabi-gcc/4.8.3-2014q1/bin/../lib/gcc/arm-none-eabi/4.8.3/armv7-m/crti.o
LOAD /home/param/.arduino15/packages/arduino/tools/arm-none-eabi-gcc/4.8.3-2014q1/bin/../lib/gcc/arm-none-eabi/4.8.3/armv7-m/crtbegin.o
LOAD /home/param/.arduino15/packages/arduino/tools/arm-none-eabi-gcc/4.8.3-2014q1/bin/../lib/gcc/arm-none-eabi/4.8.3/../../../../arm-none-eabi/lib/armv7-m/crt0.o
LOAD /home/param/.arduino15/packages/arduino/tools/arm-none-eabi-gcc/4.8.3-2014q1/bin/../lib/gcc/arm-none-eabi/4.8.3/armv7-m/libgcc.a
START GROUP
LOAD /mnt/Workspace/drone_parachute/build/sketch/main.ino.cpp.o
LOAD /mnt/Workspace/drone_parachute/build/libraries/Bolder_Flight_Systems_MPU9250/MPU9250.cpp.o
LOAD /mnt/Workspace/drone_parachute/build/libraries/Wire/SoftWire.cpp.o
LOAD /mnt/Workspace/drone_parachute/build/libraries/Wire/Wire.cpp.o
LOAD /mnt/Workspace/drone_parachute/build/libraries/Wire/utility/WireBase.cpp.o
LOAD /mnt/Workspace/drone_parachute/build/libraries/SPI/SPI.cpp.o
LOAD /mnt/Workspace/drone_parachute/build/libraries/Servo/Servo.cpp.o
LOAD /mnt/Workspace/drone_parachute/build/core/wirish/start.S.o
LOAD /mnt/Workspace/drone_parachute/build/core/wirish/start_c.c.o
LOAD /mnt/Workspace/drone_parachute/build/core/wirish/syscalls.c.o
LOAD /mnt/Workspace/drone_parachute/build/core/board.cpp.o
LOAD /mnt/Workspace/drone_parachute/build/core/wirish/boards.cpp.o
LOAD /mnt/Workspace/drone_parachute/build/core/wirish/boards_setup.cpp.o
LOAD /mnt/Workspace/drone_parachute/build/core/core.a
END GROUP
LOAD /home/param/.arduino15/packages/arduino/tools/arm-none-eabi-gcc/4.8.3-2014q1/bin/../lib/gcc/arm-none-eabi/4.8.3/../../../../arm-none-eabi/lib/armv7-m/libstdc++.a
LOAD /home/param/.arduino15/packages/arduino/tools/arm-none-eabi-gcc/4.8.3-2014q1/bin/../lib/gcc/arm-none-eabi/4.8.3/../../../../arm-none-eabi/lib/armv7-m/libm.a
START GROUP
LOAD /home/param/.arduino15/packages/arduino/tools/arm-none-eabi-gcc/4.8.3-2014q1/bin/../lib/gcc/arm-none-eabi/4.8.3/armv7-m/libgcc.a
LOAD /home/param/.arduino15/packages/arduino/tools/arm-none-eabi-gcc/4.8.3-2014q1/bin/../lib/gcc/arm-none-eabi/4.8.3/../../../../arm-none-eabi/lib/armv7-m/libc.a
END GROUP
LOAD /home/param/.arduino15/packages/arduino/tools/arm-none-eabi-gcc/4.8.3-2014q1/bin/../lib/gcc/arm-none-eabi/4.8.3/armv7-m/crtend.o
LOAD /home/param/.arduino15/packages/arduino/tools/arm-none-eabi-gcc/4.8.3-2014q1/bin/../lib/gcc/arm-none-eabi/4.8.3/armv7-m/crtn.o
START GROUP
LOAD /home/param/.arduino15/packages/arduino/tools/arm-none-eabi-gcc/4.8.3-2014q1/bin/../lib/gcc/arm-none-eabi/4.8.3/armv7-m/libgcc.a
LOAD /home/param/.arduino15/packages/arduino/tools/arm-none-eabi-gcc/4.8.3-2014q1/bin/../lib/gcc/arm-none-eabi/4.8.3/../../../../arm-none-eabi/lib/armv7-m/libc.a
LOAD /home/param/.arduino15/packages/arduino/tools/arm-none-eabi-gcc/4.8.3-2014q1/bin/../lib/gcc/arm-none-eabi/4.8.3/../../../../arm-none-eabi/lib/armv7-m/libm.a
END GROUP
START GROUP
LOAD /home/param/.arduino15/packages/arduino/tools/arm-none-eabi-gcc/4.8.3-2014q1/bin/../lib/gcc/arm-none-eabi/4.8.3/../../../../arm-none-eabi/lib/armv7-m/libnosys.a
END GROUP
                0x0000000020005000                PROVIDE (__msp_init, (ORIGIN (ram) + 0x5000))
                0x0000000008001cd8                PROVIDE (__exc_reset, __start__)

.text           0x0000000008000000     0x65fc
                0x0000000008000000                __text_start__ = .
 *(.stm32.interrupt_vector)
 .stm32.interrupt_vector
                0x0000000008000000       0xec /mnt/Workspace/drone_parachute/build/core/core.a(vector_table.S.o)
                0x0000000008000000                __stm32_vector_table
 *(.text .text.* .gnu.linkonce.t.*)
 .text          0x00000000080000ec       0x54 /home/param/.arduino15/packages/arduino/tools/arm-none-eabi-gcc/4.8.3-2014q1/bin/../lib/gcc/arm-none-eabi/4.8.3/armv7-m/crtbegin.o
 .text._Z4loopv
                0x0000000008000140        0x2 /mnt/Workspace/drone_parachute/build/sketch/main.ino.cpp.o
                0x0000000008000140                loop()
 *fill*         0x0000000008000142        0x2 
 .text._Z23check_main_battery_voltv
                0x0000000008000144       0x70 /mnt/Workspace/drone_parachute/build/sketch/main.ino.cpp.o
                0x0000000008000144                check_main_battery_volt()
 .text._Z11refresh_imuv
                0x00000000080001b4        0xc /mnt/Workspace/drone_parachute/build/sketch/main.ino.cpp.o
                0x00000000080001b4                refresh_imu()
 .text._Z11check_statev
                0x00000000080001c0      0x268 /mnt/Workspace/drone_parachute/build/sketch/main.ino.cpp.o
                0x00000000080001c0                check_state()
 .text._Z14parachute_initv
                0x0000000008000428       0x2c /mnt/Workspace/drone_parachute/build/sketch/main.ino.cpp.o
                0x0000000008000428                parachute_init()
 .text._Z12deploy_chutev
                0x0000000008000454       0x30 /mnt/Workspace/drone_parachute/build/sketch/main.ino.cpp.o
                0x0000000008000454                deploy_chute()
 .text._Z11kill_rotorsv
                0x0000000008000484        0x8 /mnt/Workspace/drone_parachute/build/sketch/main.ino.cpp.o
                0x0000000008000484                kill_rotors()
 .text._Z17error_signal_initv
                0x000000000800048c       0x16 /mnt/Workspace/drone_parachute/build/sketch/main.ino.cpp.o
                0x000000000800048c                error_signal_init()
 .text._Z18raise_error_signalv
                0x00000000080004a2       0x32 /mnt/Workspace/drone_parachute/build/sketch/main.ino.cpp.o
                0x00000000080004a2                raise_error_signal()
 *fill*         0x00000000080004d4        0x4 
 .text._Z14batteries_initv
                0x00000000080004d8       0xd8 /mnt/Workspace/drone_parachute/build/sketch/main.ino.cpp.o
                0x00000000080004d8                batteries_init()
 .text._Z12check_systemv
                0x00000000080005b0       0x30 /mnt/Workspace/drone_parachute/build/sketch/main.ino.cpp.o
                0x00000000080005b0                check_system()
 .text._Z8imu_initv
                0x00000000080005e0       0x40 /mnt/Workspace/drone_parachute/build/sketch/main.ino.cpp.o
                0x00000000080005e0                imu_init()
 .text._Z5setupv
                0x0000000008000620       0x80 /mnt/Workspace/drone_parachute/build/sketch/main.ino.cpp.o
                0x0000000008000620                setup()
 .text.startup._GLOBAL__sub_I__Z5setupv
                0x00000000080006a0       0x24 /mnt/Workspace/drone_parachute/build/sketch/main.ino.cpp.o
 .text._ZN7MPU9250C2ER7TwoWireh
                0x00000000080006c4      0x294 /mnt/Workspace/drone_parachute/build/libraries/Bolder_Flight_Systems_MPU9250/MPU9250.cpp.o
                0x00000000080006c4                MPU9250::MPU9250(TwoWire&, unsigned char)
                0x00000000080006c4                MPU9250::MPU9250(TwoWire&, unsigned char)
 .text._ZN7MPU925013getAccelX_mssEv
                0x0000000008000958        0x4 /mnt/Workspace/drone_parachute/build/libraries/Bolder_Flight_Systems_MPU9250/MPU9250.cpp.o
                0x0000000008000958                MPU9250::getAccelX_mss()
 .text._ZN7MPU925013getAccelY_mssEv
                0x000000000800095c        0x4 /mnt/Workspace/drone_parachute/build/libraries/Bolder_Flight_Systems_MPU9250/MPU9250.cpp.o
                0x000000000800095c                MPU9250::getAccelY_mss()
 .text._ZN7MPU925013getAccelZ_mssEv
                0x0000000008000960        0x4 /mnt/Workspace/drone_parachute/build/libraries/Bolder_Flight_Systems_MPU9250/MPU9250.cpp.o
                0x0000000008000960                MPU9250::getAccelZ_mss()
 .text._ZN7MPU925013getGyroX_radsEv
                0x0000000008000964        0x4 /mnt/Workspace/drone_parachute/build/libraries/Bolder_Flight_Systems_MPU9250/MPU9250.cpp.o
                0x0000000008000964                MPU9250::getGyroX_rads()
 .text._ZN7MPU925013getGyroY_radsEv
                0x0000000008000968        0x4 /mnt/Workspace/drone_parachute/build/libraries/Bolder_Flight_Systems_MPU9250/MPU9250.cpp.o
                0x0000000008000968                MPU9250::getGyroY_rads()
 .text._ZN7MPU925013getGyroZ_radsEv
                0x000000000800096c        0x4 /mnt/Workspace/drone_parachute/build/libraries/Bolder_Flight_Systems_MPU9250/MPU9250.cpp.o
                0x000000000800096c                MPU9250::getGyroZ_rads()
 .text._ZN7MPU925010getMagX_uTEv
                0x0000000008000970        0x4 /mnt/Workspace/drone_parachute/build/libraries/Bolder_Flight_Systems_MPU9250/MPU9250.cpp.o
                0x0000000008000970                MPU9250::getMagX_uT()
 .text._ZN7MPU925010getMagY_uTEv
                0x0000000008000974        0x4 /mnt/Workspace/drone_parachute/build/libraries/Bolder_Flight_Systems_MPU9250/MPU9250.cpp.o
                0x0000000008000974                MPU9250::getMagY_uT()
 .text._ZN7MPU925010getMagZ_uTEv
                0x0000000008000978        0x4 /mnt/Workspace/drone_parachute/build/libraries/Bolder_Flight_Systems_MPU9250/MPU9250.cpp.o
                0x0000000008000978                MPU9250::getMagZ_uT()
 .text._ZN7MPU925016getTemperature_CEv
                0x000000000800097c        0x4 /mnt/Workspace/drone_parachute/build/libraries/Bolder_Flight_Systems_MPU9250/MPU9250.cpp.o
                0x000000000800097c                MPU9250::getTemperature_C()
 .text._ZN7MPU925013readRegistersEhhPh
                0x0000000008000980      0x130 /mnt/Workspace/drone_parachute/build/libraries/Bolder_Flight_Systems_MPU9250/MPU9250.cpp.o
                0x0000000008000980                MPU9250::readRegisters(unsigned char, unsigned char, unsigned char*)
 .text._ZN7MPU925010readSensorEv
                0x0000000008000ab0      0x29e /mnt/Workspace/drone_parachute/build/libraries/Bolder_Flight_Systems_MPU9250/MPU9250.cpp.o
                0x0000000008000ab0                MPU9250::readSensor()
 .text._ZN7MPU925013writeRegisterEhh
                0x0000000008000d4e       0xc6 /mnt/Workspace/drone_parachute/build/libraries/Bolder_Flight_Systems_MPU9250/MPU9250.cpp.o
                0x0000000008000d4e                MPU9250::writeRegister(unsigned char, unsigned char)
 .text._ZN7MPU925013setAccelRangeENS_10AccelRangeE
                0x0000000008000e14       0x9c /mnt/Workspace/drone_parachute/build/libraries/Bolder_Flight_Systems_MPU9250/MPU9250.cpp.o
                0x0000000008000e14                MPU9250::setAccelRange(MPU9250::AccelRange)
 .text._ZN7MPU925012setGyroRangeENS_9GyroRangeE
                0x0000000008000eb0       0x9c /mnt/Workspace/drone_parachute/build/libraries/Bolder_Flight_Systems_MPU9250/MPU9250.cpp.o
                0x0000000008000eb0                MPU9250::setGyroRange(MPU9250::GyroRange)
 .text._ZN7MPU925016setDlpfBandwidthENS_13DlpfBandwidthE
                0x0000000008000f4c       0xda /mnt/Workspace/drone_parachute/build/libraries/Bolder_Flight_Systems_MPU9250/MPU9250.cpp.o
                0x0000000008000f4c                MPU9250::setDlpfBandwidth(MPU9250::DlpfBandwidth)
 .text._ZN7MPU925019readAK8963RegistersEhhPh
                0x0000000008001026       0x6e /mnt/Workspace/drone_parachute/build/libraries/Bolder_Flight_Systems_MPU9250/MPU9250.cpp.o
                0x0000000008001026                MPU9250::readAK8963Registers(unsigned char, unsigned char, unsigned char*)
 .text._ZN7MPU925019writeAK8963RegisterEhh
                0x0000000008001094       0x8e /mnt/Workspace/drone_parachute/build/libraries/Bolder_Flight_Systems_MPU9250/MPU9250.cpp.o
                0x0000000008001094                MPU9250::writeAK8963Register(unsigned char, unsigned char)
 .text._ZN7MPU92506setSrdEh
                0x0000000008001122       0xa6 /mnt/Workspace/drone_parachute/build/libraries/Bolder_Flight_Systems_MPU9250/MPU9250.cpp.o
                0x0000000008001122                MPU9250::setSrd(unsigned char)
 .text._ZN7MPU925013calibrateGyroEv
                0x00000000080011c8      0x148 /mnt/Workspace/drone_parachute/build/libraries/Bolder_Flight_Systems_MPU9250/MPU9250.cpp.o
                0x00000000080011c8                MPU9250::calibrateGyro()
 .text._ZN7MPU92506whoAmIEv
                0x0000000008001310       0x20 /mnt/Workspace/drone_parachute/build/libraries/Bolder_Flight_Systems_MPU9250/MPU9250.cpp.o
                0x0000000008001310                MPU9250::whoAmI()
 .text._ZN7MPU925012whoAmIAK8963Ev
                0x0000000008001330       0x20 /mnt/Workspace/drone_parachute/build/libraries/Bolder_Flight_Systems_MPU9250/MPU9250.cpp.o
                0x0000000008001330                MPU9250::whoAmIAK8963()
 .text._ZN7MPU92505beginEv
                0x0000000008001350      0x358 /mnt/Workspace/drone_parachute/build/libraries/Bolder_Flight_Systems_MPU9250/MPU9250.cpp.o
                0x0000000008001350                MPU9250::begin()
 .text._ZN7TwoWire7processEv
                0x00000000080016a8        0xc /mnt/Workspace/drone_parachute/build/libraries/Wire/Wire.cpp.o
                0x00000000080016a8                TwoWire::process()
 .text._ZN7TwoWire5beginEh
                0x00000000080016b4        0xe /mnt/Workspace/drone_parachute/build/libraries/Wire/Wire.cpp.o
                0x00000000080016b4                TwoWire::begin(unsigned char)
 .text.i2c_disable
                0x00000000080016c2       0x1a /mnt/Workspace/drone_parachute/build/libraries/Wire/Wire.cpp.o
 .text._ZN7TwoWire3endEv
                0x00000000080016dc       0x10 /mnt/Workspace/drone_parachute/build/libraries/Wire/Wire.cpp.o
                0x00000000080016dc                TwoWire::end()
 .text._ZN7TwoWire7processEh
                0x00000000080016ec       0x4a /mnt/Workspace/drone_parachute/build/libraries/Wire/Wire.cpp.o
                0x00000000080016ec                TwoWire::process(unsigned char)
 *fill*         0x0000000008001736        0x2 
 .text._ZN7TwoWireD2Ev
                0x0000000008001738       0x24 /mnt/Workspace/drone_parachute/build/libraries/Wire/Wire.cpp.o
                0x0000000008001738                TwoWire::~TwoWire()
                0x0000000008001738                TwoWire::~TwoWire()
 .text._ZN7TwoWire8setClockEm
                0x000000000800175c       0x26 /mnt/Workspace/drone_parachute/build/libraries/Wire/Wire.cpp.o
                0x000000000800175c                TwoWire::setClock(unsigned long)
 *fill*         0x0000000008001782        0x2 
 .text.startup._GLOBAL__sub_I__ZN7TwoWire7processEh
                0x0000000008001784       0x28 /mnt/Workspace/drone_parachute/build/libraries/Wire/Wire.cpp.o
 .text.exit._GLOBAL__sub_D__ZN7TwoWire7processEh
                0x00000000080017ac        0xc /mnt/Workspace/drone_parachute/build/libraries/Wire/Wire.cpp.o
 .text._ZN8WireBase5beginEh
                0x00000000080017b8       0x14 /mnt/Workspace/drone_parachute/build/libraries/Wire/utility/WireBase.cpp.o
                0x00000000080017b8                WireBase::begin(unsigned char)
 .text._ZN8WireBase17beginTransmissionEh
                0x00000000080017cc       0x14 /mnt/Workspace/drone_parachute/build/libraries/Wire/utility/WireBase.cpp.o
                0x00000000080017cc                WireBase::beginTransmission(unsigned char)
 .text._ZN8WireBase15endTransmissionEb
                0x00000000080017e0       0x1e /mnt/Workspace/drone_parachute/build/libraries/Wire/utility/WireBase.cpp.o
                0x00000000080017e0                WireBase::endTransmission(bool)
 .text._ZN8WireBase15endTransmissionEv
                0x00000000080017fe        0x6 /mnt/Workspace/drone_parachute/build/libraries/Wire/utility/WireBase.cpp.o
                0x00000000080017fe                WireBase::endTransmission()
 .text._ZN8WireBase11requestFromEhib
                0x0000000008001804       0x38 /mnt/Workspace/drone_parachute/build/libraries/Wire/utility/WireBase.cpp.o
                0x0000000008001804                WireBase::requestFrom(unsigned char, int, bool)
 .text._ZN8WireBase5writeEh
                0x000000000800183c       0x28 /mnt/Workspace/drone_parachute/build/libraries/Wire/utility/WireBase.cpp.o
                0x000000000800183c                WireBase::write(unsigned char)
 .text._ZN8WireBase4readEv
                0x0000000008001864       0x3e /mnt/Workspace/drone_parachute/build/libraries/Wire/utility/WireBase.cpp.o
                0x0000000008001864                WireBase::read()
 .text._ZL12waitSpiTxEndP7spi_dev
                0x00000000080018a2       0x10 /mnt/Workspace/drone_parachute/build/libraries/SPI/SPI.cpp.o
 .text._ZL11disable_pwmPK14stm32_pin_info
                0x00000000080018b2       0x10 /mnt/Workspace/drone_parachute/build/libraries/SPI/SPI.cpp.o
 *fill*         0x00000000080018c2        0x2 
 .text._ZL15dev_to_spi_pinsP7spi_dev.isra.8
                0x00000000080018c4       0x1c /mnt/Workspace/drone_parachute/build/libraries/SPI/SPI.cpp.o
 .text._ZL15configure_gpiosP7spi_devb
                0x00000000080018e0       0x84 /mnt/Workspace/drone_parachute/build/libraries/SPI/SPI.cpp.o
 .text._ZL19determine_baud_rateP7spi_devm.isra.9
                0x0000000008001964       0x3c /mnt/Workspace/drone_parachute/build/libraries/SPI/SPI.cpp.o
 .text._ZN8SPIClassC2Em
                0x00000000080019a0       0xbc /mnt/Workspace/drone_parachute/build/libraries/SPI/SPI.cpp.o
                0x00000000080019a0                SPIClass::SPIClass(unsigned long)
                0x00000000080019a0                SPIClass::SPIClass(unsigned long)
 .text._ZN8SPIClass14updateSettingsEv
                0x0000000008001a5c       0x24 /mnt/Workspace/drone_parachute/build/libraries/SPI/SPI.cpp.o
                0x0000000008001a5c                SPIClass::updateSettings()
 .text._ZN8SPIClass5beginEv
                0x0000000008001a80       0x24 /mnt/Workspace/drone_parachute/build/libraries/SPI/SPI.cpp.o
                0x0000000008001a80                SPIClass::begin()
 .text._ZN8SPIClass15setClockDividerEm
                0x0000000008001aa4       0x18 /mnt/Workspace/drone_parachute/build/libraries/SPI/SPI.cpp.o
                0x0000000008001aa4                SPIClass::setClockDivider(unsigned long)
 .text._ZN8SPIClass11setBitOrderE8BitOrder
                0x0000000008001abc       0x18 /mnt/Workspace/drone_parachute/build/libraries/SPI/SPI.cpp.o
                0x0000000008001abc                SPIClass::setBitOrder(BitOrder)
 .text._ZN8SPIClass11setDataSizeEm
                0x0000000008001ad4       0x30 /mnt/Workspace/drone_parachute/build/libraries/SPI/SPI.cpp.o
                0x0000000008001ad4                SPIClass::setDataSize(unsigned long)
 .text._ZN8SPIClass11setDataModeEh
                0x0000000008001b04       0x1a /mnt/Workspace/drone_parachute/build/libraries/SPI/SPI.cpp.o
                0x0000000008001b04                SPIClass::setDataMode(unsigned char)
 .text._ZN8SPIClass16beginTransactionEh11SPISettings
                0x0000000008001b1e       0x46 /mnt/Workspace/drone_parachute/build/libraries/SPI/SPI.cpp.o
                0x0000000008001b1e                SPIClass::beginTransaction(unsigned char, SPISettings)
 .text._ZN8SPIClass14endTransactionEv
                0x0000000008001b64        0x2 /mnt/Workspace/drone_parachute/build/libraries/SPI/SPI.cpp.o
                0x0000000008001b64                SPIClass::endTransaction()
 .text._ZNK8SPIClass8transferEh
                0x0000000008001b66       0x1a /mnt/Workspace/drone_parachute/build/libraries/SPI/SPI.cpp.o
                0x0000000008001b66                SPIClass::transfer(unsigned char) const
 .text.startup._GLOBAL__sub_I__ZN8SPIClassC2Em
                0x0000000008001b80        0xc /mnt/Workspace/drone_parachute/build/libraries/SPI/SPI.cpp.o
 .text._ZN5Servo17writeMicrosecondsEt
                0x0000000008001b8c       0x50 /mnt/Workspace/drone_parachute/build/libraries/Servo/Servo.cpp.o
                0x0000000008001b8c                Servo::writeMicroseconds(unsigned short)
 .text._ZN5Servo5writeEi
                0x0000000008001bdc       0x3c /mnt/Workspace/drone_parachute/build/libraries/Servo/Servo.cpp.o
                0x0000000008001bdc                Servo::write(int)
 .text._ZN5Servo11resetFieldsEv
                0x0000000008001c18       0x1c /mnt/Workspace/drone_parachute/build/libraries/Servo/Servo.cpp.o
                0x0000000008001c18                Servo::resetFields()
 .text._ZN5ServoC2Ev
                0x0000000008001c34        0xc /mnt/Workspace/drone_parachute/build/libraries/Servo/Servo.cpp.o
                0x0000000008001c34                Servo::Servo()
                0x0000000008001c34                Servo::Servo()
 .text._ZN5Servo6detachEv
                0x0000000008001c40       0x30 /mnt/Workspace/drone_parachute/build/libraries/Servo/Servo.cpp.o
                0x0000000008001c40                Servo::detach()
 .text._ZN5Servo6attachEhttss
                0x0000000008001c70       0x68 /mnt/Workspace/drone_parachute/build/libraries/Servo/Servo.cpp.o
                0x0000000008001c70                Servo::attach(unsigned char, unsigned short, unsigned short, short, short)
 .text          0x0000000008001cd8       0x10 /mnt/Workspace/drone_parachute/build/core/wirish/start.S.o
                0x0000000008001cd8                __start__
 .text.start_c  0x0000000008001ce8       0x58 /mnt/Workspace/drone_parachute/build/core/wirish/start_c.c.o
                0x0000000008001ce8                start_c
 .text._Z9boardInitv
                0x0000000008001d40        0x2 /mnt/Workspace/drone_parachute/build/core/board.cpp.o
                0x0000000008001d40                boardInit()
 *fill*         0x0000000008001d42        0x2 
 .text.startup._GLOBAL__sub_I__Z9boardInitv
                0x0000000008001d44       0x48 /mnt/Workspace/drone_parachute/build/core/board.cpp.o
 .text._ZL18adc_default_configP7adc_dev
                0x0000000008001d8c       0x1c /mnt/Workspace/drone_parachute/build/core/wirish/boards.cpp.o
 .text._ZL20timer_default_configP9timer_dev
                0x0000000008001da8       0x9e /mnt/Workspace/drone_parachute/build/core/wirish/boards.cpp.o
 *fill*         0x0000000008001e46        0x2 
 .text._Z4initv
                0x0000000008001e48       0xbc /mnt/Workspace/drone_parachute/build/core/wirish/boards.cpp.o
                0x0000000008001e48                init()
 .text._ZN6wirish4priv15board_reset_pllEv
                0x0000000008001f04        0x2 /mnt/Workspace/drone_parachute/build/core/wirish/boards_setup.cpp.o
                0x0000000008001f04                wirish::priv::board_reset_pll()
 .text._ZN6wirish4priv28board_setup_clock_prescalersEv
                0x0000000008001f06       0x2e /mnt/Workspace/drone_parachute/build/core/wirish/boards_setup.cpp.o
                0x0000000008001f06                wirish::priv::board_setup_clock_prescalers()
 .text._ZN6wirish4priv16board_setup_gpioEv
                0x0000000008001f34        0x4 /mnt/Workspace/drone_parachute/build/core/wirish/boards_setup.cpp.o
                0x0000000008001f34                wirish::priv::board_setup_gpio()
 .text._ZN6wirish4priv15board_setup_usbEv
                0x0000000008001f38        0x2 /mnt/Workspace/drone_parachute/build/core/wirish/boards_setup.cpp.o
                0x0000000008001f38                wirish::priv::board_setup_usb()
 .text._ZN6wirish4priv11series_initEv
                0x0000000008001f3a        0x4 /mnt/Workspace/drone_parachute/build/core/wirish/boards_setup.cpp.o
                0x0000000008001f3a                wirish::priv::series_init()
 *fill*         0x0000000008001f3e        0x2 
 .text          0x0000000008001f40       0x60 /mnt/Workspace/drone_parachute/build/core/core.a(exc.S.o)
                0x0000000008001f40                __exc_nmi
                0x0000000008001f44                __exc_hardfault
                0x0000000008001f48                __exc_memmanage
                0x0000000008001f4c                __exc_busfault
                0x0000000008001f50                __exc_usagefault
 .text          0x0000000008001fa0        0x2 /mnt/Workspace/drone_parachute/build/core/core.a(isrs.S.o)
                0x0000000008001fa0                __stm32reservedexception9
                0x0000000008001fa0                __exc_debug_monitor
                0x0000000008001fa0                __exc_svc
                0x0000000008001fa0                __irq_can_rx1
                0x0000000008001fa0                __irq_spi2
                0x0000000008001fa0                __irq_can_sce
                0x0000000008001fa0                __irq_pvd
                0x0000000008001fa0                __irq_tamper
                0x0000000008001fa0                __default_handler
                0x0000000008001fa0                __irq_wwdg
                0x0000000008001fa0                __stm32reservedexception10
                0x0000000008001fa0                __irq_flash
                0x0000000008001fa0                __stm32reservedexception13
                0x0000000008001fa0                __irq_rtc
                0x0000000008001fa0                __irq_spi1
                0x0000000008001fa0                __stm32reservedexception7
                0x0000000008001fa0                __irq_usb_hp_can_tx
                0x0000000008001fa0                __irq_rtcalarm
                0x0000000008001fa0                __stm32reservedexception8
                0x0000000008001fa0                __exc_pendsv
                0x0000000008001fa0                __irq_usbwakeup
                0x0000000008001fa0                __irq_rcc
 .text.adc_init
                0x0000000008001fa2       0x14 /mnt/Workspace/drone_parachute/build/core/core.a(adc.c.o)
                0x0000000008001fa2                adc_init
 .text.adc_set_extsel
                0x0000000008001fb6       0x12 /mnt/Workspace/drone_parachute/build/core/core.a(adc.c.o)
                0x0000000008001fb6                adc_set_extsel
 .text.adc_set_sample_rate
                0x0000000008001fc8       0x30 /mnt/Workspace/drone_parachute/build/core/core.a(adc.c.o)
                0x0000000008001fc8                adc_set_sample_rate
 .text.adc_read
                0x0000000008001ff8       0x20 /mnt/Workspace/drone_parachute/build/core/core.a(adc.c.o)
                0x0000000008001ff8                adc_read
 .text.__irq_adc
                0x0000000008002018       0x50 /mnt/Workspace/drone_parachute/build/core/core.a(adc_f1.c.o)
                0x0000000008002018                __irq_adc
 .text.adc_calibrate
                0x0000000008002068       0x24 /mnt/Workspace/drone_parachute/build/core/core.a(adc_f1.c.o)
                0x0000000008002068                adc_calibrate
 .text.adc_set_prescaler
                0x000000000800208c        0x8 /mnt/Workspace/drone_parachute/build/core/core.a(adc_f1.c.o)
                0x000000000800208c                adc_set_prescaler
 .text.adc_foreach
                0x0000000008002094       0x1c /mnt/Workspace/drone_parachute/build/core/core.a(adc_f1.c.o)
                0x0000000008002094                adc_foreach
 .text.adc_enable_single_swstart
                0x00000000080020b0       0x36 /mnt/Workspace/drone_parachute/build/core/core.a(adc_f1.c.o)
                0x00000000080020b0                adc_enable_single_swstart
 .text.dma_irq_handler
                0x00000000080020e6       0x1c /mnt/Workspace/drone_parachute/build/core/core.a(dma_f1.c.o)
 *fill*         0x0000000008002102        0x2 
 .text.__irq_dma1_channel1
                0x0000000008002104       0x10 /mnt/Workspace/drone_parachute/build/core/core.a(dma_f1.c.o)
                0x0000000008002104                __irq_dma1_channel1
 .text.__irq_dma1_channel2
                0x0000000008002114       0x10 /mnt/Workspace/drone_parachute/build/core/core.a(dma_f1.c.o)
                0x0000000008002114                __irq_dma1_channel2
 .text.__irq_dma1_channel3
                0x0000000008002124       0x10 /mnt/Workspace/drone_parachute/build/core/core.a(dma_f1.c.o)
                0x0000000008002124                __irq_dma1_channel3
 .text.__irq_dma1_channel4
                0x0000000008002134       0x10 /mnt/Workspace/drone_parachute/build/core/core.a(dma_f1.c.o)
                0x0000000008002134                __irq_dma1_channel4
 .text.__irq_dma1_channel5
                0x0000000008002144       0x10 /mnt/Workspace/drone_parachute/build/core/core.a(dma_f1.c.o)
                0x0000000008002144                __irq_dma1_channel5
 .text.__irq_dma1_channel6
                0x0000000008002154       0x10 /mnt/Workspace/drone_parachute/build/core/core.a(dma_f1.c.o)
                0x0000000008002154                __irq_dma1_channel6
 .text.__irq_dma1_channel7
                0x0000000008002164       0x10 /mnt/Workspace/drone_parachute/build/core/core.a(dma_f1.c.o)
                0x0000000008002164                __irq_dma1_channel7
 .text.dispatch_single_exti
                0x0000000008002174       0x2c /mnt/Workspace/drone_parachute/build/core/core.a(exti.c.o)
                0x0000000008002174                dispatch_single_exti
 .text.dispatch_extis
                0x00000000080021a0       0x4c /mnt/Workspace/drone_parachute/build/core/core.a(exti.c.o)
                0x00000000080021a0                dispatch_extis
 .text.__irq_exti0
                0x00000000080021ec        0x6 /mnt/Workspace/drone_parachute/build/core/core.a(exti.c.o)
                0x00000000080021ec                __irq_exti0
 .text.__irq_exti1
                0x00000000080021f2        0x6 /mnt/Workspace/drone_parachute/build/core/core.a(exti.c.o)
                0x00000000080021f2                __irq_exti1
 .text.__irq_exti2
                0x00000000080021f8        0x6 /mnt/Workspace/drone_parachute/build/core/core.a(exti.c.o)
                0x00000000080021f8                __irq_exti2
 .text.__irq_exti3
                0x00000000080021fe        0x6 /mnt/Workspace/drone_parachute/build/core/core.a(exti.c.o)
                0x00000000080021fe                __irq_exti3
 .text.__irq_exti4
                0x0000000008002204        0x6 /mnt/Workspace/drone_parachute/build/core/core.a(exti.c.o)
                0x0000000008002204                __irq_exti4
 .text.__irq_exti9_5
                0x000000000800220a        0x8 /mnt/Workspace/drone_parachute/build/core/core.a(exti.c.o)
                0x000000000800220a                __irq_exti9_5
 .text.__irq_exti15_10
                0x0000000008002212        0x8 /mnt/Workspace/drone_parachute/build/core/core.a(exti.c.o)
                0x0000000008002212                __irq_exti15_10
 *fill*         0x000000000800221a        0x2 
 .text.flash_set_latency
                0x000000000800221c       0x14 /mnt/Workspace/drone_parachute/build/core/core.a(flash.c.o)
                0x000000000800221c                flash_set_latency
 .text.gpio_init_all
                0x0000000008002230       0x30 /mnt/Workspace/drone_parachute/build/core/core.a(gpio_f1.c.o)
                0x0000000008002230                gpio_init_all
 .text.gpio_set_mode
                0x0000000008002260       0x50 /mnt/Workspace/drone_parachute/build/core/core.a(gpio_f1.c.o)
                0x0000000008002260                gpio_set_mode
 .text.afio_init
                0x00000000080022b0       0x12 /mnt/Workspace/drone_parachute/build/core/core.a(gpio_f1.c.o)
                0x00000000080022b0                afio_init
 *fill*         0x00000000080022c2        0x2 
 .text.afio_remap
                0x00000000080022c4       0x20 /mnt/Workspace/drone_parachute/build/core/core.a(gpio_f1.c.o)
                0x00000000080022c4                afio_remap
 .text.nvic_irq_enable
                0x00000000080022e4       0x1c /mnt/Workspace/drone_parachute/build/core/core.a(i2c.c.o)
 .text.i2c_disable_irq
                0x0000000008002300        0xc /mnt/Workspace/drone_parachute/build/core/core.a(i2c.c.o)
 .text.delay_us.part.0.constprop.6
                0x000000000800230c        0xa /mnt/Workspace/drone_parachute/build/core/core.a(i2c.c.o)
 .text.i2c_bus_reset
                0x0000000008002316       0xc2 /mnt/Workspace/drone_parachute/build/core/core.a(i2c.c.o)
                0x0000000008002316                i2c_bus_reset
 .text.i2c_init
                0x00000000080023d8       0x1e /mnt/Workspace/drone_parachute/build/core/core.a(i2c.c.o)
                0x00000000080023d8                i2c_init
 *fill*         0x00000000080023f6        0x2 
 .text.wait_for_state_change
                0x00000000080023f8       0x98 /mnt/Workspace/drone_parachute/build/core/core.a(i2c.c.o)
                0x00000000080023f8                wait_for_state_change
 .text.i2c_master_xfer
                0x0000000008002490       0xcc /mnt/Workspace/drone_parachute/build/core/core.a(i2c.c.o)
                0x0000000008002490                i2c_master_xfer
 .text._i2c_irq_handler
                0x000000000800255c      0x3d8 /mnt/Workspace/drone_parachute/build/core/core.a(i2c.c.o)
                0x000000000800255c                _i2c_irq_handler
 .text._i2c_irq_error_handler
                0x0000000008002934       0x84 /mnt/Workspace/drone_parachute/build/core/core.a(i2c.c.o)
                0x0000000008002934                _i2c_irq_error_handler
 .text.i2c_set_ccr_trise
                0x00000000080029b8       0x54 /mnt/Workspace/drone_parachute/build/core/core.a(i2c.c.o)
                0x00000000080029b8                i2c_set_ccr_trise
 .text.i2c_master_enable
                0x0000000008002a0c      0x1b4 /mnt/Workspace/drone_parachute/build/core/core.a(i2c.c.o)
                0x0000000008002a0c                i2c_master_enable
 .text.i2c_config_gpios
                0x0000000008002bc0       0x58 /mnt/Workspace/drone_parachute/build/core/core.a(i2c_f1.c.o)
                0x0000000008002bc0                i2c_config_gpios
 .text.i2c_master_release_bus
                0x0000000008002c18       0x4c /mnt/Workspace/drone_parachute/build/core/core.a(i2c_f1.c.o)
                0x0000000008002c18                i2c_master_release_bus
 .text.__irq_i2c1_ev
                0x0000000008002c64        0xc /mnt/Workspace/drone_parachute/build/core/core.a(i2c_f1.c.o)
                0x0000000008002c64                __irq_i2c1_ev
 .text.__irq_i2c2_ev
                0x0000000008002c70        0xc /mnt/Workspace/drone_parachute/build/core/core.a(i2c_f1.c.o)
                0x0000000008002c70                __irq_i2c2_ev
 .text.__irq_i2c1_er
                0x0000000008002c7c        0xc /mnt/Workspace/drone_parachute/build/core/core.a(i2c_f1.c.o)
                0x0000000008002c7c                __irq_i2c1_er
 .text.__irq_i2c2_er
                0x0000000008002c88        0xc /mnt/Workspace/drone_parachute/build/core/core.a(i2c_f1.c.o)
                0x0000000008002c88                __irq_i2c2_er
 .text._i2c_irq_priority_fixup
                0x0000000008002c94        0xa /mnt/Workspace/drone_parachute/build/core/core.a(i2c_f1.c.o)
                0x0000000008002c94                _i2c_irq_priority_fixup
 *fill*         0x0000000008002c9e        0x2 
 .text.nvic_irq_set_priority
                0x0000000008002ca0       0x28 /mnt/Workspace/drone_parachute/build/core/core.a(nvic.c.o)
                0x0000000008002ca0                nvic_irq_set_priority
 .text.nvic_init
                0x0000000008002cc8       0x30 /mnt/Workspace/drone_parachute/build/core/core.a(nvic.c.o)
                0x0000000008002cc8                nvic_init
 .text.rcc_dev_clk
                0x0000000008002cf8        0xc /mnt/Workspace/drone_parachute/build/core/core.a(rcc.c.o)
                0x0000000008002cf8                rcc_dev_clk
 .text.rcc_switch_sysclk
                0x0000000008002d04       0x20 /mnt/Workspace/drone_parachute/build/core/core.a(rcc.c.o)
                0x0000000008002d04                rcc_switch_sysclk
 .text.rcc_turn_on_clk
                0x0000000008002d24       0x1a /mnt/Workspace/drone_parachute/build/core/core.a(rcc.c.o)
                0x0000000008002d24                rcc_turn_on_clk
 .text.rcc_turn_off_clk
                0x0000000008002d3e       0x1c /mnt/Workspace/drone_parachute/build/core/core.a(rcc.c.o)
                0x0000000008002d3e                rcc_turn_off_clk
 .text.rcc_is_clk_on
                0x0000000008002d5a       0x1e /mnt/Workspace/drone_parachute/build/core/core.a(rcc.c.o)
                0x0000000008002d5a                rcc_is_clk_on
 .text.rcc_is_clk_ready
                0x0000000008002d78       0x18 /mnt/Workspace/drone_parachute/build/core/core.a(rcc.c.o)
                0x0000000008002d78                rcc_is_clk_ready
 .text.rcc_configure_pll
                0x0000000008002d90       0x38 /mnt/Workspace/drone_parachute/build/core/core.a(rcc_f1.c.o)
                0x0000000008002d90                rcc_configure_pll
 .text.rcc_clk_enable
                0x0000000008002dc8       0x30 /mnt/Workspace/drone_parachute/build/core/core.a(rcc_f1.c.o)
                0x0000000008002dc8                rcc_clk_enable
 .text.rcc_reset_dev
                0x0000000008002df8       0x34 /mnt/Workspace/drone_parachute/build/core/core.a(rcc_f1.c.o)
                0x0000000008002df8                rcc_reset_dev
 .text.rcc_set_prescaler
                0x0000000008002e2c       0x20 /mnt/Workspace/drone_parachute/build/core/core.a(rcc_f1.c.o)
                0x0000000008002e2c                rcc_set_prescaler
 .text.rcc_clk_disable
                0x0000000008002e4c       0x30 /mnt/Workspace/drone_parachute/build/core/core.a(rcc_f1.c.o)
                0x0000000008002e4c                rcc_clk_disable
 .text.bb_peri_set_bit
                0x0000000008002e7c        0xe /mnt/Workspace/drone_parachute/build/core/core.a(spi.c.o)
 .text.spi_init
                0x0000000008002e8a       0x14 /mnt/Workspace/drone_parachute/build/core/core.a(spi.c.o)
                0x0000000008002e8a                spi_init
 .text.spi_peripheral_enable
                0x0000000008002e9e        0xa /mnt/Workspace/drone_parachute/build/core/core.a(spi.c.o)
                0x0000000008002e9e                spi_peripheral_enable
 .text.spi_peripheral_disable
                0x0000000008002ea8        0xa /mnt/Workspace/drone_parachute/build/core/core.a(spi.c.o)
                0x0000000008002ea8                spi_peripheral_disable
 .text.spi_reconfigure
                0x0000000008002eb2       0x2c /mnt/Workspace/drone_parachute/build/core/core.a(spi.c.o)
 .text.spi_master_enable
                0x0000000008002ede        0xc /mnt/Workspace/drone_parachute/build/core/core.a(spi.c.o)
                0x0000000008002ede                spi_master_enable
 .text.spi_config_gpios
                0x0000000008002eea       0x5a /mnt/Workspace/drone_parachute/build/core/core.a(spi_f1.c.o)
                0x0000000008002eea                spi_config_gpios
 .text.systick_init
                0x0000000008002f44       0x10 /mnt/Workspace/drone_parachute/build/core/core.a(systick.c.o)
                0x0000000008002f44                systick_init
 .text.__exc_systick
                0x0000000008002f54       0x1c /mnt/Workspace/drone_parachute/build/core/core.a(systick.c.o)
                0x0000000008002f54                __exc_systick
 .text.timer_oc_set_mode
                0x0000000008002f70       0x3a /mnt/Workspace/drone_parachute/build/core/core.a(timer.c.o)
 .text.dispatch_general
                0x0000000008002faa       0x66 /mnt/Workspace/drone_parachute/build/core/core.a(timer.c.o)
 .text.timer_cc_enable
                0x0000000008003010       0x1c /mnt/Workspace/drone_parachute/build/core/core.a(timer.c.o)
 .text.timer_foreach
                0x000000000800302c       0x28 /mnt/Workspace/drone_parachute/build/core/core.a(timer.c.o)
                0x000000000800302c                timer_foreach
 .text.timer_init
                0x0000000008003054       0x14 /mnt/Workspace/drone_parachute/build/core/core.a(timer.c.o)
                0x0000000008003054                timer_init
 .text.timer_has_cc_channel
                0x0000000008003068       0x50 /mnt/Workspace/drone_parachute/build/core/core.a(timer.c.o)
                0x0000000008003068                timer_has_cc_channel
 .text.timer_detach_interrupt
                0x00000000080030b8       0x1e /mnt/Workspace/drone_parachute/build/core/core.a(timer.c.o)
                0x00000000080030b8                timer_detach_interrupt
 .text.input_capture_mode
                0x00000000080030d6       0x1a /mnt/Workspace/drone_parachute/build/core/core.a(timer.c.o)
                0x00000000080030d6                input_capture_mode
 .text.timer_set_mode
                0x00000000080030f0       0xcc /mnt/Workspace/drone_parachute/build/core/core.a(timer.c.o)
                0x00000000080030f0                timer_set_mode
 .text.__irq_tim1_brk
                0x00000000080031bc       0x24 /mnt/Workspace/drone_parachute/build/core/core.a(timer.c.o)
                0x00000000080031bc                __irq_tim1_brk
 .text.__irq_tim1_up
                0x00000000080031e0       0x24 /mnt/Workspace/drone_parachute/build/core/core.a(timer.c.o)
                0x00000000080031e0                __irq_tim1_up
 .text.__irq_tim1_trg_com
                0x0000000008003204       0x34 /mnt/Workspace/drone_parachute/build/core/core.a(timer.c.o)
                0x0000000008003204                __irq_tim1_trg_com
 .text.__irq_tim1_cc
                0x0000000008003238       0x50 /mnt/Workspace/drone_parachute/build/core/core.a(timer.c.o)
                0x0000000008003238                __irq_tim1_cc
 .text.__irq_tim2
                0x0000000008003288        0xc /mnt/Workspace/drone_parachute/build/core/core.a(timer.c.o)
                0x0000000008003288                __irq_tim2
 .text.__irq_tim3
                0x0000000008003294        0xc /mnt/Workspace/drone_parachute/build/core/core.a(timer.c.o)
                0x0000000008003294                __irq_tim3
 .text.__irq_tim4
                0x00000000080032a0        0xc /mnt/Workspace/drone_parachute/build/core/core.a(timer.c.o)
                0x00000000080032a0                __irq_tim4
 .text.usart_irq
                0x00000000080032ac       0xc8 /mnt/Workspace/drone_parachute/build/core/core.a(usart_f1.c.o)
 .text.usart_config_gpios_async
                0x0000000008003374       0x4a /mnt/Workspace/drone_parachute/build/core/core.a(usart_f1.c.o)
                0x0000000008003374                usart_config_gpios_async
 *fill*         0x00000000080033be        0x2 
 .text.usart_set_baud_rate
                0x00000000080033c0       0x54 /mnt/Workspace/drone_parachute/build/core/core.a(usart_f1.c.o)
                0x00000000080033c0                usart_set_baud_rate
 .text.__irq_usart1
                0x0000000008003414       0x18 /mnt/Workspace/drone_parachute/build/core/core.a(usart_f1.c.o)
                0x0000000008003414                __irq_usart1
 .text.__irq_usart2
                0x000000000800342c       0x18 /mnt/Workspace/drone_parachute/build/core/core.a(usart_f1.c.o)
                0x000000000800342c                __irq_usart2
 .text.__irq_usart3
                0x0000000008003444       0x18 /mnt/Workspace/drone_parachute/build/core/core.a(usart_f1.c.o)
                0x0000000008003444                __irq_usart3
 .text._usart_clock_freq
                0x000000000800345c       0x24 /mnt/Workspace/drone_parachute/build/core/core.a(usart_private.c.o)
                0x000000000800345c                _usart_clock_freq
 .text.usb_resume
                0x0000000008003480       0xb4 /mnt/Workspace/drone_parachute/build/core/core.a(usb.c.o)
 .text.__irq_usb_lp_can_rx0
                0x0000000008003534      0x1f0 /mnt/Workspace/drone_parachute/build/core/core.a(usb.c.o)
                0x0000000008003534                __irq_usb_lp_can_rx0
 .text.usb_set_ep_rx_stat
                0x0000000008003724       0x22 /mnt/Workspace/drone_parachute/build/core/core.a(usb_cdcacm.c.o)
 *fill*         0x0000000008003746        0x2 
 .text.vcomGetSetLineCoding
                0x0000000008003748       0x18 /mnt/Workspace/drone_parachute/build/core/core.a(usb_cdcacm.c.o)
 .text.usbDataSetup
                0x0000000008003760       0x54 /mnt/Workspace/drone_parachute/build/core/core.a(usb_cdcacm.c.o)
 .text.usbNoDataSetup
                0x00000000080037b4       0x50 /mnt/Workspace/drone_parachute/build/core/core.a(usb_cdcacm.c.o)
 .text.usbGetInterfaceSetting
                0x0000000008003804       0x10 /mnt/Workspace/drone_parachute/build/core/core.a(usb_cdcacm.c.o)
 .text.usbGetStringDescriptor
                0x0000000008003814       0x20 /mnt/Workspace/drone_parachute/build/core/core.a(usb_cdcacm.c.o)
 .text.usbGetConfigDescriptor
                0x0000000008003834        0xc /mnt/Workspace/drone_parachute/build/core/core.a(usb_cdcacm.c.o)
 .text.usbGetDeviceDescriptor
                0x0000000008003840        0xc /mnt/Workspace/drone_parachute/build/core/core.a(usb_cdcacm.c.o)
 .text.usbInit  0x000000000800384c       0x44 /mnt/Workspace/drone_parachute/build/core/core.a(usb_cdcacm.c.o)
 .text.usbReset
                0x0000000008003890      0x160 /mnt/Workspace/drone_parachute/build/core/core.a(usb_cdcacm.c.o)
 .text.usb_set_ep_rx_count
                0x00000000080039f0       0x4c /mnt/Workspace/drone_parachute/build/core/core.a(usb_reg_map.c.o)
                0x00000000080039f0                usb_set_ep_rx_count
 .text.Standard_GetConfiguration
                0x0000000008003a3c       0x24 /mnt/Workspace/drone_parachute/build/core/core.a(usb_core.c.o)
                0x0000000008003a3c                Standard_GetConfiguration
 .text.Standard_GetInterface
                0x0000000008003a60       0x24 /mnt/Workspace/drone_parachute/build/core/core.a(usb_core.c.o)
                0x0000000008003a60                Standard_GetInterface
 .text.Standard_GetStatus
                0x0000000008003a84       0x90 /mnt/Workspace/drone_parachute/build/core/core.a(usb_core.c.o)
                0x0000000008003a84                Standard_GetStatus
 .text.DataStageIn
                0x0000000008003b14       0xa8 /mnt/Workspace/drone_parachute/build/core/core.a(usb_core.c.o)
 .text.Standard_SetConfiguration
                0x0000000008003bbc       0x38 /mnt/Workspace/drone_parachute/build/core/core.a(usb_core.c.o)
                0x0000000008003bbc                Standard_SetConfiguration
 .text.Standard_SetInterface
                0x0000000008003bf4       0x48 /mnt/Workspace/drone_parachute/build/core/core.a(usb_core.c.o)
                0x0000000008003bf4                Standard_SetInterface
 .text.Standard_ClearFeature
                0x0000000008003c3c       0xd0 /mnt/Workspace/drone_parachute/build/core/core.a(usb_core.c.o)
                0x0000000008003c3c                Standard_ClearFeature
 .text.Standard_SetEndPointFeature
                0x0000000008003d0c       0x84 /mnt/Workspace/drone_parachute/build/core/core.a(usb_core.c.o)
                0x0000000008003d0c                Standard_SetEndPointFeature
 .text.Standard_SetDeviceFeature
                0x0000000008003d90       0x24 /mnt/Workspace/drone_parachute/build/core/core.a(usb_core.c.o)
                0x0000000008003d90                Standard_SetDeviceFeature
 .text.Standard_GetDescriptorData
                0x0000000008003db4       0x1c /mnt/Workspace/drone_parachute/build/core/core.a(usb_core.c.o)
                0x0000000008003db4                Standard_GetDescriptorData
 .text.Post0_Process
                0x0000000008003dd0       0x40 /mnt/Workspace/drone_parachute/build/core/core.a(usb_core.c.o)
                0x0000000008003dd0                Post0_Process
 .text.Setup0_Process
                0x0000000008003e10      0x2d0 /mnt/Workspace/drone_parachute/build/core/core.a(usb_core.c.o)
                0x0000000008003e10                Setup0_Process
 .text.Out0_Process
                0x00000000080040e0       0xc8 /mnt/Workspace/drone_parachute/build/core/core.a(usb_core.c.o)
                0x00000000080040e0                Out0_Process
 .text.SetDeviceAddress
                0x00000000080041a8       0x38 /mnt/Workspace/drone_parachute/build/core/core.a(usb_core.c.o)
                0x00000000080041a8                SetDeviceAddress
 .text.In0_Process
                0x00000000080041e0       0x5c /mnt/Workspace/drone_parachute/build/core/core.a(usb_core.c.o)
                0x00000000080041e0                In0_Process
 .text.NOP_Process
                0x000000000800423c        0x2 /mnt/Workspace/drone_parachute/build/core/core.a(usb_core.c.o)
                0x000000000800423c                NOP_Process
 .text.UserToPMABufferCopy
                0x000000000800423e       0x30 /mnt/Workspace/drone_parachute/build/core/core.a(usb_mem.c.o)
                0x000000000800423e                UserToPMABufferCopy
 .text.PMAToUserBufferCopy
                0x000000000800426e       0x32 /mnt/Workspace/drone_parachute/build/core/core.a(usb_mem.c.o)
                0x000000000800426e                PMAToUserBufferCopy
 .text.SetEPTxStatus
                0x00000000080042a0       0x2a /mnt/Workspace/drone_parachute/build/core/core.a(usb_regs.c.o)
                0x00000000080042a0                SetEPTxStatus
 .text.ClearDTOG_RX
                0x00000000080042ca       0x20 /mnt/Workspace/drone_parachute/build/core/core.a(usb_regs.c.o)
                0x00000000080042ca                ClearDTOG_RX
 .text.ClearDTOG_TX
                0x00000000080042ea       0x20 /mnt/Workspace/drone_parachute/build/core/core.a(usb_regs.c.o)
                0x00000000080042ea                ClearDTOG_TX
 *fill*         0x000000000800430a        0x2 
 .text.GetEPTxAddr
                0x000000000800430c       0x1c /mnt/Workspace/drone_parachute/build/core/core.a(usb_regs.c.o)
                0x000000000800430c                GetEPTxAddr
 .text.GetEPRxAddr
                0x0000000008004328       0x1c /mnt/Workspace/drone_parachute/build/core/core.a(usb_regs.c.o)
                0x0000000008004328                GetEPRxAddr
 .text.SetEPTxCount
                0x0000000008004344       0x1c /mnt/Workspace/drone_parachute/build/core/core.a(usb_regs.c.o)
                0x0000000008004344                SetEPTxCount
 .text.SetEPRxCount
                0x0000000008004360       0x40 /mnt/Workspace/drone_parachute/build/core/core.a(usb_regs.c.o)
                0x0000000008004360                SetEPRxCount
 .text.usart_putc
                0x00000000080043a0       0x1c /mnt/Workspace/drone_parachute/build/core/core.a(util.c.o)
 .text.usart_putstr
                0x00000000080043bc       0x16 /mnt/Workspace/drone_parachute/build/core/core.a(util.c.o)
 *fill*         0x00000000080043d2        0x2 
 .text.throb    0x00000000080043d4       0x4c /mnt/Workspace/drone_parachute/build/core/core.a(util.c.o)
                0x00000000080043d4                throb
 .text.__error  0x0000000008004420       0x14 /mnt/Workspace/drone_parachute/build/core/core.a(util.c.o)
                0x0000000008004420                __error
 .text._fail    0x0000000008004434       0x64 /mnt/Workspace/drone_parachute/build/core/core.a(util.c.o)
                0x0000000008004434                _fail
 .text.rb_full_count
                0x0000000008004498       0x22 /mnt/Workspace/drone_parachute/build/core/core.a(HardwareSerial.cpp.o)
 .text._ZN14HardwareSerial4readEv
                0x00000000080044ba       0x3a /mnt/Workspace/drone_parachute/build/core/core.a(HardwareSerial.cpp.o)
                0x00000000080044ba                HardwareSerial::read()
 .text._ZN14HardwareSerial9availableEv
                0x00000000080044f4        0xc /mnt/Workspace/drone_parachute/build/core/core.a(HardwareSerial.cpp.o)
                0x00000000080044f4                HardwareSerial::available()
 .text._ZN14HardwareSerial4peekEv
                0x0000000008004500       0x22 /mnt/Workspace/drone_parachute/build/core/core.a(HardwareSerial.cpp.o)
                0x0000000008004500                HardwareSerial::peek()
 .text._ZN14HardwareSerial5flushEv
                0x0000000008004522       0x1a /mnt/Workspace/drone_parachute/build/core/core.a(HardwareSerial.cpp.o)
                0x0000000008004522                HardwareSerial::flush()
 .text._ZN14HardwareSerial5writeEh
                0x000000000800453c       0x1e /mnt/Workspace/drone_parachute/build/core/core.a(HardwareSerial.cpp.o)
                0x000000000800453c                HardwareSerial::write(unsigned char)
 *fill*         0x000000000800455a        0x2 
 .text._ZN14HardwareSerialC2EP9usart_devhh
                0x000000000800455c       0x1c /mnt/Workspace/drone_parachute/build/core/core.a(HardwareSerial.cpp.o)
                0x000000000800455c                HardwareSerial::HardwareSerial(usart_dev*, unsigned char, unsigned char)
                0x000000000800455c                HardwareSerial::HardwareSerial(usart_dev*, unsigned char, unsigned char)
 .text._ZN14HardwareSerial5beginEmh
                0x0000000008004578       0x78 /mnt/Workspace/drone_parachute/build/core/core.a(HardwareSerial.cpp.o)
                0x0000000008004578                HardwareSerial::begin(unsigned long, unsigned char)
 .text._ZN14HardwareSerial5beginEm
                0x00000000080045f0        0x6 /mnt/Workspace/drone_parachute/build/core/core.a(HardwareSerial.cpp.o)
                0x00000000080045f0                HardwareSerial::begin(unsigned long)
 .text._ZN5Print5writeEPKvm
                0x00000000080045f6       0x20 /mnt/Workspace/drone_parachute/build/core/core.a(Print.cpp.o)
                0x00000000080045f6                Print::write(void const*, unsigned long)
 .text._ZN5Print5writeEPKc
                0x0000000008004616       0x1e /mnt/Workspace/drone_parachute/build/core/core.a(Print.cpp.o)
                0x0000000008004616                Print::write(char const*)
 .text._ZN5Print5printEc
                0x0000000008004634        0xa /mnt/Workspace/drone_parachute/build/core/core.a(Print.cpp.o)
                0x0000000008004634                Print::print(char)
 .text._ZN5Print5printEPKc
                0x000000000800463e        0xa /mnt/Workspace/drone_parachute/build/core/core.a(Print.cpp.o)
                0x000000000800463e                Print::print(char const*)
 .text._ZN5Print7printlnEv
                0x0000000008004648       0x18 /mnt/Workspace/drone_parachute/build/core/core.a(Print.cpp.o)
                0x0000000008004648                Print::println()
 .text._ZN5Print7printlnEPKc
                0x0000000008004660       0x14 /mnt/Workspace/drone_parachute/build/core/core.a(Print.cpp.o)
                0x0000000008004660                Print::println(char const*)
 .text._ZN5Print11printNumberEyh
                0x0000000008004674       0x84 /mnt/Workspace/drone_parachute/build/core/core.a(Print.cpp.o)
                0x0000000008004674                Print::printNumber(unsigned long long, unsigned char)
 .text._ZN5Print5printExi
                0x00000000080046f8       0x32 /mnt/Workspace/drone_parachute/build/core/core.a(Print.cpp.o)
                0x00000000080046f8                Print::print(long long, int)
 .text._ZN5Print5printEii
                0x000000000800472a       0x12 /mnt/Workspace/drone_parachute/build/core/core.a(Print.cpp.o)
                0x000000000800472a                Print::print(int, int)
 *fill*         0x000000000800473c        0x4 
 .text._ZN5Print10printFloatEdh
                0x0000000008004740      0x158 /mnt/Workspace/drone_parachute/build/core/core.a(Print.cpp.o)
                0x0000000008004740                Print::printFloat(double, unsigned char)
 .text._ZN5Print5printEdi
                0x0000000008004898        0xa /mnt/Workspace/drone_parachute/build/core/core.a(Print.cpp.o)
                0x0000000008004898                Print::print(double, int)
 .text._ZN5Print7printlnEdi
                0x00000000080048a2       0x1c /mnt/Workspace/drone_parachute/build/core/core.a(Print.cpp.o)
                0x00000000080048a2                Print::println(double, int)
 .text.__cxa_pure_virtual
                0x00000000080048be        0x2 /mnt/Workspace/drone_parachute/build/core/core.a(cxxabi-compat.cpp.o)
                0x00000000080048be                __cxa_pure_virtual
 .text.startup._Z7premainv
                0x00000000080048c0        0x4 /mnt/Workspace/drone_parachute/build/core/core.a(main.cpp.o)
                0x00000000080048c0                premain()
 .text.startup.main
                0x00000000080048c4        0xc /mnt/Workspace/drone_parachute/build/core/core.a(main.cpp.o)
                0x00000000080048c4                main
 .text._Z8pwmWriteht
                0x00000000080048d0       0x3c /mnt/Workspace/drone_parachute/build/core/core.a(pwm.cpp.o)
                0x00000000080048d0                pwmWrite(unsigned char, unsigned short)
 .text._Z7pinModeh13WiringPinMode
                0x000000000800490c       0x9c /mnt/Workspace/drone_parachute/build/core/core.a(wirish_digital_f1.cpp.o)
                0x000000000800490c                pinMode(unsigned char, WiringPinMode)
 .text._Z10analogReadh
                0x00000000080049a8       0x1c /mnt/Workspace/drone_parachute/build/core/core.a(wirish_analog.cpp.o)
                0x00000000080049a8                analogRead(unsigned char)
 .text._Z12digitalWritehh
                0x00000000080049c4       0x2c /mnt/Workspace/drone_parachute/build/core/core.a(wirish_digital.cpp.o)
                0x00000000080049c4                digitalWrite(unsigned char, unsigned char)
 .text._ZL6microsv
                0x00000000080049f0       0x34 /mnt/Workspace/drone_parachute/build/core/core.a(wirish_time.cpp.o)
 .text._Z5delaym
                0x0000000008004a24       0x2a /mnt/Workspace/drone_parachute/build/core/core.a(wirish_time.cpp.o)
                0x0000000008004a24                delay(unsigned long)
 .text.__empty  0x0000000008004a4e        0x2 /mnt/Workspace/drone_parachute/build/core/core.a(hooks.c.o)
                0x0000000008004a4e                yield
 .text.gpio_init
                0x0000000008004a50       0x14 /mnt/Workspace/drone_parachute/build/core/core.a(gpio.c.o)
                0x0000000008004a50                gpio_init
 .text.usart_init
                0x0000000008004a64       0x4c /mnt/Workspace/drone_parachute/build/core/core.a(usart.c.o)
                0x0000000008004a64                usart_init
 .text.usart_enable
                0x0000000008004ab0       0x14 /mnt/Workspace/drone_parachute/build/core/core.a(usart.c.o)
                0x0000000008004ab0                usart_enable
 .text.usart_tx
                0x0000000008004ac4       0x9c /mnt/Workspace/drone_parachute/build/core/core.a(usart.c.o)
                0x0000000008004ac4                usart_tx
 .text.usart_putudec
                0x0000000008004b60       0x44 /mnt/Workspace/drone_parachute/build/core/core.a(usart.c.o)
                0x0000000008004b60                usart_putudec
 .text.sqrt     0x0000000008004ba4       0xac /home/param/.arduino15/packages/arduino/tools/arm-none-eabi-gcc/4.8.3-2014q1/bin/../lib/gcc/arm-none-eabi/4.8.3/../../../../arm-none-eabi/lib/armv7-m/libm.a(lib_a-w_sqrt.o)
                0x0000000008004ba4                sqrt
 .text.__ieee754_sqrt
                0x0000000008004c50      0x180 /home/param/.arduino15/packages/arduino/tools/arm-none-eabi-gcc/4.8.3-2014q1/bin/../lib/gcc/arm-none-eabi/4.8.3/../../../../arm-none-eabi/lib/armv7-m/libm.a(lib_a-e_sqrt.o)
                0x0000000008004c50                __ieee754_sqrt
 .text.__fpclassifyd
                0x0000000008004dd0       0x50 /home/param/.arduino15/packages/arduino/tools/arm-none-eabi-gcc/4.8.3-2014q1/bin/../lib/gcc/arm-none-eabi/4.8.3/../../../../arm-none-eabi/lib/armv7-m/libm.a(lib_a-s_fpclassify.o)
                0x0000000008004dd0                __fpclassifyd
 .text.matherr  0x0000000008004e20        0x4 /home/param/.arduino15/packages/arduino/tools/arm-none-eabi-gcc/4.8.3-2014q1/bin/../lib/gcc/arm-none-eabi/4.8.3/../../../../arm-none-eabi/lib/armv7-m/libm.a(lib_a-s_matherr.o)
                0x0000000008004e20                matherr
 .text          0x0000000008004e24      0x370 /home/param/.arduino15/packages/arduino/tools/arm-none-eabi-gcc/4.8.3-2014q1/bin/../lib/gcc/arm-none-eabi/4.8.3/armv7-m/libgcc.a(_arm_addsubdf3.o)
                0x0000000008004e24                __aeabi_drsub
                0x0000000008004e2c                __aeabi_dsub
                0x0000000008004e2c                __subdf3
                0x0000000008004e30                __adddf3
                0x0000000008004e30                __aeabi_dadd
                0x00000000080050a8                __aeabi_ui2d
                0x00000000080050a8                __floatunsidf
                0x00000000080050c8                __floatsidf
                0x00000000080050c8                __aeabi_i2d
                0x00000000080050ec                __extendsfdf2
                0x00000000080050ec                __aeabi_f2d
                0x0000000008005128                __aeabi_ul2d
                0x0000000008005128                __floatundidf
                0x0000000008005138                __floatdidf
                0x0000000008005138                __aeabi_l2d
 .text          0x0000000008005194      0x424 /home/param/.arduino15/packages/arduino/tools/arm-none-eabi-gcc/4.8.3-2014q1/bin/../lib/gcc/arm-none-eabi/4.8.3/armv7-m/libgcc.a(_arm_muldivdf3.o)
                0x0000000008005194                __aeabi_dmul
                0x0000000008005194                __muldf3
                0x00000000080053e8                __aeabi_ddiv
                0x00000000080053e8                __divdf3
 .text          0x00000000080055b8      0x110 /home/param/.arduino15/packages/arduino/tools/arm-none-eabi-gcc/4.8.3-2014q1/bin/../lib/gcc/arm-none-eabi/4.8.3/armv7-m/libgcc.a(_arm_cmpdf2.o)
                0x00000000080055b8                __gtdf2
                0x00000000080055b8                __gedf2
                0x00000000080055c0                __ltdf2
                0x00000000080055c0                __ledf2
                0x00000000080055c8                __cmpdf2
                0x00000000080055c8                __eqdf2
                0x00000000080055c8                __nedf2
                0x0000000008005644                __aeabi_cdrcmple
                0x0000000008005654                __aeabi_cdcmple
                0x0000000008005654                __aeabi_cdcmpeq
                0x0000000008005664                __aeabi_dcmpeq
                0x0000000008005678                __aeabi_dcmplt
                0x000000000800568c                __aeabi_dcmple
                0x00000000080056a0                __aeabi_dcmpge
                0x00000000080056b4                __aeabi_dcmpgt
 .text          0x00000000080056c8       0x50 /home/param/.arduino15/packages/arduino/tools/arm-none-eabi-gcc/4.8.3-2014q1/bin/../lib/gcc/arm-none-eabi/4.8.3/armv7-m/libgcc.a(_arm_fixdfsi.o)
                0x00000000080056c8                __fixdfsi
                0x00000000080056c8                __aeabi_d2iz
 .text          0x0000000008005718       0xa0 /home/param/.arduino15/packages/arduino/tools/arm-none-eabi-gcc/4.8.3-2014q1/bin/../lib/gcc/arm-none-eabi/4.8.3/armv7-m/libgcc.a(_arm_truncdfsf2.o)
                0x0000000008005718                __aeabi_d2f
                0x0000000008005718                __truncdfsf2
 .text          0x00000000080057b8      0x21c /home/param/.arduino15/packages/arduino/tools/arm-none-eabi-gcc/4.8.3-2014q1/bin/../lib/gcc/arm-none-eabi/4.8.3/armv7-m/libgcc.a(_arm_addsubsf3.o)
                0x00000000080057b8                __aeabi_frsub
                0x00000000080057c0                __subsf3
                0x00000000080057c0                __aeabi_fsub
                0x00000000080057c4                __aeabi_fadd
                0x00000000080057c4                __addsf3
                0x0000000008005924                __aeabi_ui2f
                0x0000000008005924                __floatunsisf
                0x000000000800592c                __aeabi_i2f
                0x000000000800592c                __floatsisf
                0x0000000008005948                __floatundisf
                0x0000000008005948                __aeabi_ul2f
                0x0000000008005958                __floatdisf
                0x0000000008005958                __aeabi_l2f
 .text          0x00000000080059d4      0x2a0 /home/param/.arduino15/packages/arduino/tools/arm-none-eabi-gcc/4.8.3-2014q1/bin/../lib/gcc/arm-none-eabi/4.8.3/armv7-m/libgcc.a(_arm_muldivsf3.o)
                0x00000000080059d4                __mulsf3
                0x00000000080059d4                __aeabi_fmul
                0x0000000008005b3c                __divsf3
                0x0000000008005b3c                __aeabi_fdiv
 .text          0x0000000008005c74       0xec /home/param/.arduino15/packages/arduino/tools/arm-none-eabi-gcc/4.8.3-2014q1/bin/../lib/gcc/arm-none-eabi/4.8.3/armv7-m/libgcc.a(_arm_cmpsf2.o)
                0x0000000008005c74                __gtsf2
                0x0000000008005c74                __gesf2
                0x0000000008005c7c                __lesf2
                0x0000000008005c7c                __ltsf2
                0x0000000008005c84                __nesf2
                0x0000000008005c84                __eqsf2
                0x0000000008005c84                __cmpsf2
                0x0000000008005ce4                __aeabi_cfrcmple
                0x0000000008005cec                __aeabi_cfcmple
                0x0000000008005cec                __aeabi_cfcmpeq
                0x0000000008005cfc                __aeabi_fcmpeq
                0x0000000008005d10                __aeabi_fcmplt
                0x0000000008005d24                __aeabi_fcmple
                0x0000000008005d38                __aeabi_fcmpge
                0x0000000008005d4c                __aeabi_fcmpgt
 .text          0x0000000008005d60       0x38 /home/param/.arduino15/packages/arduino/tools/arm-none-eabi-gcc/4.8.3-2014q1/bin/../lib/gcc/arm-none-eabi/4.8.3/armv7-m/libgcc.a(_aeabi_ldivmod.o)
                0x0000000008005d60                __aeabi_ldivmod
 .text          0x0000000008005d98       0x2c /home/param/.arduino15/packages/arduino/tools/arm-none-eabi-gcc/4.8.3-2014q1/bin/../lib/gcc/arm-none-eabi/4.8.3/armv7-m/libgcc.a(_aeabi_uldivmod.o)
                0x0000000008005d98                __aeabi_uldivmod
 .text          0x0000000008005dc4       0x30 /home/param/.arduino15/packages/arduino/tools/arm-none-eabi-gcc/4.8.3-2014q1/bin/../lib/gcc/arm-none-eabi/4.8.3/armv7-m/libgcc.a(_fixdfdi.o)
                0x0000000008005dc4                __aeabi_d2lz
                0x0000000008005dc4                __fixdfdi
 .text          0x0000000008005df4       0x44 /home/param/.arduino15/packages/arduino/tools/arm-none-eabi-gcc/4.8.3-2014q1/bin/../lib/gcc/arm-none-eabi/4.8.3/armv7-m/libgcc.a(_fixunsdfdi.o)
                0x0000000008005df4                __aeabi_d2ulz
                0x0000000008005df4                __fixunsdfdi
 .text          0x0000000008005e38       0x60 /home/param/.arduino15/packages/arduino/tools/arm-none-eabi-gcc/4.8.3-2014q1/bin/../lib/gcc/arm-none-eabi/4.8.3/armv7-m/libgcc.a(bpabi.o)
                0x0000000008005e38                __gnu_ldivmod_helper
                0x0000000008005e68                __gnu_uldivmod_helper
 .text          0x0000000008005e98        0x4 /home/param/.arduino15/packages/arduino/tools/arm-none-eabi-gcc/4.8.3-2014q1/bin/../lib/gcc/arm-none-eabi/4.8.3/armv7-m/libgcc.a(_dvmd_tls.o)
                0x0000000008005e98                __aeabi_ldiv0
                0x0000000008005e98                __aeabi_idiv0
 .text          0x0000000008005e9c       0x40 /home/param/.arduino15/packages/arduino/tools/arm-none-eabi-gcc/4.8.3-2014q1/bin/../lib/gcc/arm-none-eabi/4.8.3/armv7-m/libgcc.a(_arm_fixunsdfsi.o)
                0x0000000008005e9c                __fixunsdfsi
                0x0000000008005e9c                __aeabi_d2uiz
 .text          0x0000000008005edc      0x2a0 /home/param/.arduino15/packages/arduino/tools/arm-none-eabi-gcc/4.8.3-2014q1/bin/../lib/gcc/arm-none-eabi/4.8.3/armv7-m/libgcc.a(_divdi3.o)
                0x0000000008005edc                __divdi3
 .text          0x000000000800617c      0x290 /home/param/.arduino15/packages/arduino/tools/arm-none-eabi-gcc/4.8.3-2014q1/bin/../lib/gcc/arm-none-eabi/4.8.3/armv7-m/libgcc.a(_udivdi3.o)
                0x000000000800617c                __udivdi3
 .text.__errno  0x000000000800640c        0xc /home/param/.arduino15/packages/arduino/tools/arm-none-eabi-gcc/4.8.3-2014q1/bin/../lib/gcc/arm-none-eabi/4.8.3/../../../../arm-none-eabi/lib/armv7-m/libc.a(lib_a-errno.o)
                0x000000000800640c                __errno
 .text.__libc_init_array
                0x0000000008006418       0x50 /home/param/.arduino15/packages/arduino/tools/arm-none-eabi-gcc/4.8.3-2014q1/bin/../lib/gcc/arm-none-eabi/4.8.3/../../../../arm-none-eabi/lib/armv7-m/libc.a(lib_a-init.o)
                0x0000000008006418                __libc_init_array
 .text.strlen   0x0000000008006468       0x60 /home/param/.arduino15/packages/arduino/tools/arm-none-eabi-gcc/4.8.3-2014q1/bin/../lib/gcc/arm-none-eabi/4.8.3/../../../../arm-none-eabi/lib/armv7-m/libc.a(lib_a-strlen.o)
                0x0000000008006468                strlen
 .text.startup.register_fini
                0x00000000080064c8       0x14 /home/param/.arduino15/packages/arduino/tools/arm-none-eabi-gcc/4.8.3-2014q1/bin/../lib/gcc/arm-none-eabi/4.8.3/../../../../arm-none-eabi/lib/armv7-m/libc.a(lib_a-__call_atexit.o)
 .text.atexit   0x00000000080064dc        0xc /home/param/.arduino15/packages/arduino/tools/arm-none-eabi-gcc/4.8.3-2014q1/bin/../lib/gcc/arm-none-eabi/4.8.3/../../../../arm-none-eabi/lib/armv7-m/libc.a(lib_a-atexit.o)
                0x00000000080064dc                atexit
 .text.__libc_fini_array
                0x00000000080064e8       0x30 /home/param/.arduino15/packages/arduino/tools/arm-none-eabi-gcc/4.8.3-2014q1/bin/../lib/gcc/arm-none-eabi/4.8.3/../../../../arm-none-eabi/lib/armv7-m/libc.a(lib_a-fini.o)
                0x00000000080064e8                __libc_fini_array
 .text.__register_exitproc
                0x0000000008006518       0xa8 /home/param/.arduino15/packages/arduino/tools/arm-none-eabi-gcc/4.8.3-2014q1/bin/../lib/gcc/arm-none-eabi/4.8.3/../../../../arm-none-eabi/lib/armv7-m/libc.a(lib_a-__atexit.o)
                0x0000000008006518                __register_exitproc
 *(.plt)
 *(.gnu.warning)
 *(.glue_7t)
 .glue_7t       0x0000000000000000        0x0 linker stubs
 *(.glue_7)
 .glue_7        0x0000000000000000        0x0 linker stubs
 *(.vfp11_veneer)
 .vfp11_veneer  0x0000000000000000        0x0 linker stubs
 *(.ARM.extab* .gnu.linkonce.armextab.*)
 *(.gcc_except_table)
 *(.eh_frame_hdr)
 *(.eh_frame)
 .eh_frame      0x00000000080065c0        0x0 /home/param/.arduino15/packages/arduino/tools/arm-none-eabi-gcc/4.8.3-2014q1/bin/../lib/gcc/arm-none-eabi/4.8.3/armv7-m/crtbegin.o
                0x00000000080065c0                . = ALIGN (0x4)
 *(.init)
 .init          0x00000000080065c0        0x4 /home/param/.arduino15/packages/arduino/tools/arm-none-eabi-gcc/4.8.3-2014q1/bin/../lib/gcc/arm-none-eabi/4.8.3/armv7-m/crti.o
                0x00000000080065c0                _init
 .init          0x00000000080065c4        0x8 /home/param/.arduino15/packages/arduino/tools/arm-none-eabi-gcc/4.8.3-2014q1/bin/../lib/gcc/arm-none-eabi/4.8.3/armv7-m/crtn.o
                0x00000000080065cc                . = ALIGN (0x4)
                0x00000000080065cc                __preinit_array_start = .
 *(.preinit_array)
                0x00000000080065cc                __preinit_array_end = .
                0x00000000080065cc                . = ALIGN (0x4)
                0x00000000080065cc                __init_array_start = .
 *(SORT(.init_array.*))
 .init_array.00000
                0x00000000080065cc        0x4 /home/param/.arduino15/packages/arduino/tools/arm-none-eabi-gcc/4.8.3-2014q1/bin/../lib/gcc/arm-none-eabi/4.8.3/../../../../arm-none-eabi/lib/armv7-m/libc.a(lib_a-__call_atexit.o)
 .init_array.00101
                0x00000000080065d0        0x4 /mnt/Workspace/drone_parachute/build/core/core.a(main.cpp.o)
 *(.init_array)
 .init_array    0x00000000080065d4        0x4 /home/param/.arduino15/packages/arduino/tools/arm-none-eabi-gcc/4.8.3-2014q1/bin/../lib/gcc/arm-none-eabi/4.8.3/armv7-m/crtbegin.o
 .init_array    0x00000000080065d8        0x4 /mnt/Workspace/drone_parachute/build/sketch/main.ino.cpp.o
 .init_array    0x00000000080065dc        0x4 /mnt/Workspace/drone_parachute/build/libraries/Wire/Wire.cpp.o
 .init_array    0x00000000080065e0        0x4 /mnt/Workspace/drone_parachute/build/libraries/SPI/SPI.cpp.o
 .init_array    0x00000000080065e4        0x4 /mnt/Workspace/drone_parachute/build/core/board.cpp.o
                0x00000000080065e8                __init_array_end = .
                0x00000000080065e8                . = ALIGN (0x4)
 *crtbegin.o(.ctors)
 *(EXCLUDE_FILE(*crtend.o) .ctors)
 *(SORT(.ctors.*))
 *crtend.o(.ctors)
                0x00000000080065e8                . = ALIGN (0x4)
 *(.fini)
 .fini          0x00000000080065e8        0x4 /home/param/.arduino15/packages/arduino/tools/arm-none-eabi-gcc/4.8.3-2014q1/bin/../lib/gcc/arm-none-eabi/4.8.3/armv7-m/crti.o
                0x00000000080065e8                _fini
 .fini          0x00000000080065ec        0x8 /home/param/.arduino15/packages/arduino/tools/arm-none-eabi-gcc/4.8.3-2014q1/bin/../lib/gcc/arm-none-eabi/4.8.3/armv7-m/crtn.o
                0x00000000080065f4                . = ALIGN (0x4)
                0x00000000080065f4                __fini_array_start = .
 *(.fini_array)
 .fini_array    0x00000000080065f4        0x4 /home/param/.arduino15/packages/arduino/tools/arm-none-eabi-gcc/4.8.3-2014q1/bin/../lib/gcc/arm-none-eabi/4.8.3/armv7-m/crtbegin.o
 .fini_array    0x00000000080065f8        0x4 /mnt/Workspace/drone_parachute/build/libraries/Wire/Wire.cpp.o
 *(SORT(.fini_array.*))
                0x00000000080065fc                __fini_array_end = .
 *crtbegin.o(.dtors)
 *(EXCLUDE_FILE(*crtend.o) .dtors)
 *(SORT(.dtors.*))
 *crtend.o(.dtors)

.v4_bx          0x00000000080065fc        0x0
 .v4_bx         0x0000000000000000        0x0 linker stubs

.iplt           0x00000000080065fc        0x0
 .iplt          0x0000000000000000        0x0 /home/param/.arduino15/packages/arduino/tools/arm-none-eabi-gcc/4.8.3-2014q1/bin/../lib/gcc/arm-none-eabi/4.8.3/armv7-m/crtbegin.o

.text.align     0x00000000080065fc        0x4
                0x0000000008006600                . = ALIGN (0x8)
 *fill*         0x00000000080065fc        0x4 
                0x0000000008006600                __text_end__ = .
                0x0000000008006600                __exidx_start = .

.ARM.exidx      0x0000000008006600        0x8
 *(.ARM.exidx* .gnu.linkonce.armexidx.*)
 .ARM.exidx     0x0000000008006600        0x8 /mnt/Workspace/drone_parachute/build/core/wirish/start.S.o
 .ARM.exidx     0x0000000008006608        0x0 /home/param/.arduino15/packages/arduino/tools/arm-none-eabi-gcc/4.8.3-2014q1/bin/../lib/gcc/arm-none-eabi/4.8.3/armv7-m/libgcc.a(_divdi3.o)
                                          0x8 (size before relaxing)
 .ARM.exidx     0x0000000008006608        0x0 /home/param/.arduino15/packages/arduino/tools/arm-none-eabi-gcc/4.8.3-2014q1/bin/../lib/gcc/arm-none-eabi/4.8.3/armv7-m/libgcc.a(_udivdi3.o)
                                          0x8 (size before relaxing)
                0x0000000008006608                __exidx_end = .

.data           0x0000000020000000      0x850 load address 0x0000000008006608
                0x0000000020000000                __data_start__ = .
                0x0000000020000000        0x4 LONG 0x0
                0x0000000020000008                . = ALIGN (0x8)
 *fill*         0x0000000020000004        0x4 
 *(.got.plt)
 *(.got)
 *(.data .data.* .gnu.linkonce.d.*)
 .data._ZN6wirish4privL8pll_dataE
                0x0000000020000008        0x4 /mnt/Workspace/drone_parachute/build/core/wirish/boards_setup.cpp.o
 .data._ZN6wirish4priv9w_adc_smpE
                0x000000002000000c        0x1 /mnt/Workspace/drone_parachute/build/core/wirish/boards_setup.cpp.o
                0x000000002000000c                wirish::priv::w_adc_smp
 *fill*         0x000000002000000d        0x1 
 .data._ZN6wirish4priv9w_adc_preE
                0x000000002000000e        0x2 /mnt/Workspace/drone_parachute/build/core/wirish/boards_setup.cpp.o
                0x000000002000000e                wirish::priv::w_adc_pre
 .data._ZN6wirish4priv15w_board_pll_cfgE
                0x0000000020000010        0x8 /mnt/Workspace/drone_parachute/build/core/wirish/boards_setup.cpp.o
                0x0000000020000010                wirish::priv::w_board_pll_cfg
 .data.adc2     0x0000000020000018        0x8 /mnt/Workspace/drone_parachute/build/core/core.a(adc_f1.c.o)
                0x0000000020000018                adc2
 .data.adc1     0x0000000020000020       0x18 /mnt/Workspace/drone_parachute/build/core/core.a(adc_f1.c.o)
                0x0000000020000020                adc1
 .data.ADC2     0x0000000020000038        0x4 /mnt/Workspace/drone_parachute/build/core/core.a(adc_f1.c.o)
                0x0000000020000038                ADC2
 .data.ADC1     0x000000002000003c        0x4 /mnt/Workspace/drone_parachute/build/core/core.a(adc_f1.c.o)
                0x000000002000003c                ADC1
 .data.dma1     0x0000000020000040       0x40 /mnt/Workspace/drone_parachute/build/core/core.a(dma_f1.c.o)
 .data.DMA1     0x0000000020000080        0x4 /mnt/Workspace/drone_parachute/build/core/core.a(dma_f1.c.o)
                0x0000000020000080                DMA1
 .data.gpioa    0x0000000020000084        0x8 /mnt/Workspace/drone_parachute/build/core/core.a(gpio_f1.c.o)
                0x0000000020000084                gpioa
 .data.gpiob    0x000000002000008c        0x8 /mnt/Workspace/drone_parachute/build/core/core.a(gpio_f1.c.o)
                0x000000002000008c                gpiob
 .data.gpioc    0x0000000020000094        0x8 /mnt/Workspace/drone_parachute/build/core/core.a(gpio_f1.c.o)
                0x0000000020000094                gpioc
 .data.gpiod    0x000000002000009c        0x8 /mnt/Workspace/drone_parachute/build/core/core.a(gpio_f1.c.o)
                0x000000002000009c                gpiod
 .data.i2c1     0x00000000200000a4       0x38 /mnt/Workspace/drone_parachute/build/core/core.a(i2c_f1.c.o)
 .data.i2c2     0x00000000200000dc       0x38 /mnt/Workspace/drone_parachute/build/core/core.a(i2c_f1.c.o)
 .data.enable_regs.4411
                0x0000000020000114        0xc /mnt/Workspace/drone_parachute/build/core/core.a(rcc_f1.c.o)
 .data.reset_regs.4415
                0x0000000020000120        0x8 /mnt/Workspace/drone_parachute/build/core/core.a(rcc_f1.c.o)
 .data.enable_regs.4424
                0x0000000020000128        0xc /mnt/Workspace/drone_parachute/build/core/core.a(rcc_f1.c.o)
 .data.spi1     0x0000000020000134        0x8 /mnt/Workspace/drone_parachute/build/core/core.a(spi_f1.c.o)
 .data.spi2     0x000000002000013c        0x8 /mnt/Workspace/drone_parachute/build/core/core.a(spi_f1.c.o)
 .data.SPI1     0x0000000020000144        0x4 /mnt/Workspace/drone_parachute/build/core/core.a(spi_f1.c.o)
                0x0000000020000144                SPI1
 .data.SPI2     0x0000000020000148        0x4 /mnt/Workspace/drone_parachute/build/core/core.a(spi_f1.c.o)
                0x0000000020000148                SPI2
 .data.timer3   0x000000002000014c       0x24 /mnt/Workspace/drone_parachute/build/core/core.a(timer.c.o)
                0x000000002000014c                timer3
 .data.timer4   0x0000000020000170       0x24 /mnt/Workspace/drone_parachute/build/core/core.a(timer.c.o)
                0x0000000020000170                timer4
 .data.timer1   0x0000000020000194       0x28 /mnt/Workspace/drone_parachute/build/core/core.a(timer.c.o)
                0x0000000020000194                timer1
 .data.timer2   0x00000000200001bc       0x24 /mnt/Workspace/drone_parachute/build/core/core.a(timer.c.o)
                0x00000000200001bc                timer2
 .data.USART1   0x00000000200001e0        0x4 /mnt/Workspace/drone_parachute/build/core/core.a(usart_f1.c.o)
                0x00000000200001e0                USART1
 .data.USART2   0x00000000200001e4        0x4 /mnt/Workspace/drone_parachute/build/core/core.a(usart_f1.c.o)
                0x00000000200001e4                USART2
 .data.USART3   0x00000000200001e8        0x4 /mnt/Workspace/drone_parachute/build/core/core.a(usart_f1.c.o)
                0x00000000200001e8                USART3
 .data.usart1   0x00000000200001ec       0x94 /mnt/Workspace/drone_parachute/build/core/core.a(usart_f1.c.o)
 .data.usart2   0x0000000020000280       0x94 /mnt/Workspace/drone_parachute/build/core/core.a(usart_f1.c.o)
 .data.usart3   0x0000000020000314       0x94 /mnt/Workspace/drone_parachute/build/core/core.a(usart_f1.c.o)
 .data.USBLIB   0x00000000200003a8        0x4 /mnt/Workspace/drone_parachute/build/core/core.a(usb.c.o)
                0x00000000200003a8                USBLIB
 .data.usblib   0x00000000200003ac       0x10 /mnt/Workspace/drone_parachute/build/core/core.a(usb.c.o)
 .data.Config_Descriptor
                0x00000000200003bc        0x8 /mnt/Workspace/drone_parachute/build/core/core.a(usb_cdcacm.c.o)
 .data.Device_Property
                0x00000000200003c4       0x30 /mnt/Workspace/drone_parachute/build/core/core.a(usb_cdcacm.c.o)
                0x00000000200003c4                Device_Property
 .data.String_Descriptor
                0x00000000200003f4       0x18 /mnt/Workspace/drone_parachute/build/core/core.a(usb_cdcacm.c.o)
 .data.line_coding
                0x000000002000040c        0x7 /mnt/Workspace/drone_parachute/build/core/core.a(usb_cdcacm.c.o)
 *fill*         0x0000000020000413        0x1 
 .data.Device_Descriptor
                0x0000000020000414        0x8 /mnt/Workspace/drone_parachute/build/core/core.a(usb_cdcacm.c.o)
 .data.Device_Table
                0x000000002000041c        0x2 /mnt/Workspace/drone_parachute/build/core/core.a(usb_cdcacm.c.o)
                0x000000002000041c                Device_Table
 .data.__fdlib_version
                0x000000002000041e        0x1 /home/param/.arduino15/packages/arduino/tools/arm-none-eabi-gcc/4.8.3-2014q1/bin/../lib/gcc/arm-none-eabi/4.8.3/../../../../arm-none-eabi/lib/armv7-m/libm.a(lib_a-s_lib_ver.o)
                0x000000002000041e                __fdlib_version
 *fill*         0x000000002000041f        0x1 
 .data.impure_data
                0x0000000020000420      0x428 /home/param/.arduino15/packages/arduino/tools/arm-none-eabi-gcc/4.8.3-2014q1/bin/../lib/gcc/arm-none-eabi/4.8.3/../../../../arm-none-eabi/lib/armv7-m/libc.a(lib_a-impure.o)
 .data._impure_ptr
                0x0000000020000848        0x4 /home/param/.arduino15/packages/arduino/tools/arm-none-eabi-gcc/4.8.3-2014q1/bin/../lib/gcc/arm-none-eabi/4.8.3/../../../../arm-none-eabi/lib/armv7-m/libc.a(lib_a-impure.o)
                0x0000000020000848                _impure_ptr
                0x0000000020000850                . = ALIGN (0x8)
 *fill*         0x000000002000084c        0x4 
                0x0000000020000850                __data_end__ = .

.jcr            0x0000000020000850        0x0 load address 0x0000000008006e58
 .jcr           0x0000000020000850        0x0 /home/param/.arduino15/packages/arduino/tools/arm-none-eabi-gcc/4.8.3-2014q1/bin/../lib/gcc/arm-none-eabi/4.8.3/armv7-m/crtbegin.o

.igot.plt       0x0000000020000850        0x0 load address 0x0000000008006e58
 .igot.plt      0x0000000000000000        0x0 /home/param/.arduino15/packages/arduino/tools/arm-none-eabi-gcc/4.8.3-2014q1/bin/../lib/gcc/arm-none-eabi/4.8.3/armv7-m/crtbegin.o

.rodata         0x0000000008006e58      0x944
 *(.rodata .rodata.* .gnu.linkonce.r.*)
 .rodata.str1.1
                0x0000000008006e58       0xba /mnt/Workspace/drone_parachute/build/sketch/main.ino.cpp.o
 *fill*         0x0000000008006f12        0x6 
 .rodata._ZTV7TwoWire
                0x0000000008006f18       0x18 /mnt/Workspace/drone_parachute/build/libraries/Wire/Wire.cpp.o
                0x0000000008006f18                vtable for TwoWire
 .rodata._ZTV8WireBase
                0x0000000008006f30       0x18 /mnt/Workspace/drone_parachute/build/libraries/Wire/utility/WireBase.cpp.o
                0x0000000008006f30                vtable for WireBase
 .rodata.str1.1
                0x0000000008006f48       0x63 /mnt/Workspace/drone_parachute/build/libraries/SPI/SPI.cpp.o
 .rodata.str1.1
                0x0000000008006fab       0x65 /mnt/Workspace/drone_parachute/build/libraries/Servo/Servo.cpp.o
                                         0x67 (size before relaxing)
 .rodata.PIN_MAP
                0x0000000008007010      0x230 /mnt/Workspace/drone_parachute/build/core/board.cpp.o
                0x0000000008007010                PIN_MAP
 .rodata.GPIOC  0x0000000008007240        0x4 /mnt/Workspace/drone_parachute/build/core/core.a(gpio_f1.c.o)
                0x0000000008007240                GPIOC
 .rodata.str1.1
                0x0000000008007244       0x7f /mnt/Workspace/drone_parachute/build/core/core.a(i2c.c.o)
 *fill*         0x00000000080072c3        0x1 
 .rodata.I2C1   0x00000000080072c4        0x4 /mnt/Workspace/drone_parachute/build/core/core.a(i2c_f1.c.o)
                0x00000000080072c4                I2C1
 .rodata.str1.1
                0x00000000080072c8       0xbb /mnt/Workspace/drone_parachute/build/core/core.a(rcc_f1.c.o)
 .rodata.rcc_dev_table
                0x0000000008007383       0x5c /mnt/Workspace/drone_parachute/build/core/core.a(rcc_f1.c.o)
                0x0000000008007383                rcc_dev_table
 *fill*         0x00000000080073df        0x1 
 .rodata.masks.4420
                0x00000000080073e0       0x14 /mnt/Workspace/drone_parachute/build/core/core.a(rcc_f1.c.o)
 .rodata.str1.1
                0x00000000080073f4       0xba /mnt/Workspace/drone_parachute/build/core/core.a(timer.c.o)
                                         0xbc (size before relaxing)
 .rodata.str1.1
                0x00000000080074ae       0x73 /mnt/Workspace/drone_parachute/build/core/core.a(usart_f1.c.o)
 .rodata.str1.1
                0x0000000008007521       0x82 /mnt/Workspace/drone_parachute/build/core/core.a(usb.c.o)
 .rodata.usbVcomDescriptor_iProduct
                0x00000000080075a3        0xc /mnt/Workspace/drone_parachute/build/core/core.a(usb_cdcacm.c.o)
 .rodata.usbVcomDescriptor_iManufacturer
                0x00000000080075af       0x12 /mnt/Workspace/drone_parachute/build/core/core.a(usb_cdcacm.c.o)
 .rodata.usbVcomDescriptor_Device
                0x00000000080075c1       0x12 /mnt/Workspace/drone_parachute/build/core/core.a(usb_cdcacm.c.o)
 .rodata.usbVcomDescriptor_Config
                0x00000000080075d3       0x43 /mnt/Workspace/drone_parachute/build/core/core.a(usb_cdcacm.c.o)
 .rodata.usbVcomDescriptor_LangID
                0x0000000008007616        0x4 /mnt/Workspace/drone_parachute/build/core/core.a(usb_cdcacm.c.o)
 .rodata.str1.1
                0x000000000800761a       0x3f /mnt/Workspace/drone_parachute/build/core/core.a(util.c.o)
                                         0x42 (size before relaxing)
 *fill*         0x0000000008007659        0x7 
 .rodata._ZTV14HardwareSerial
                0x0000000008007660       0x28 /mnt/Workspace/drone_parachute/build/core/core.a(HardwareSerial.cpp.o)
                0x0000000008007660                vtable for HardwareSerial
 .rodata.str1.1
                0x0000000008007688       0x11 /mnt/Workspace/drone_parachute/build/core/core.a(Print.cpp.o)
 .rodata.str1.1
                0x0000000008007699       0x6d /mnt/Workspace/drone_parachute/build/core/core.a(pwm.cpp.o)
 .rodata.str1.1
                0x0000000008007706       0x71 /mnt/Workspace/drone_parachute/build/core/core.a(wirish_digital_f1.cpp.o)
                                         0x73 (size before relaxing)
 *fill*         0x0000000008007777        0x1 
 .rodata.str1.4
                0x0000000008007778        0x5 /home/param/.arduino15/packages/arduino/tools/arm-none-eabi-gcc/4.8.3-2014q1/bin/../lib/gcc/arm-none-eabi/4.8.3/../../../../arm-none-eabi/lib/armv7-m/libm.a(lib_a-w_sqrt.o)
                                          0x8 (size before relaxing)
 *fill*         0x000000000800777d        0x3 
 .rodata.str1.4
                0x0000000008007780        0x4 /home/param/.arduino15/packages/arduino/tools/arm-none-eabi-gcc/4.8.3-2014q1/bin/../lib/gcc/arm-none-eabi/4.8.3/../../../../arm-none-eabi/lib/armv7-m/libc.a(lib_a-impure.o)
 .rodata._global_impure_ptr
                0x0000000008007784        0x4 /home/param/.arduino15/packages/arduino/tools/arm-none-eabi-gcc/4.8.3-2014q1/bin/../lib/gcc/arm-none-eabi/4.8.3/../../../../arm-none-eabi/lib/armv7-m/libc.a(lib_a-impure.o)
                0x0000000008007784                _global_impure_ptr
 *(.USER_FLASH)
 .USER_FLASH    0x0000000008007788       0x10 /mnt/Workspace/drone_parachute/build/libraries/SPI/SPI.cpp.o
                0x0000000008007798                . = ALIGN (0x4)
                0x0000000008007798                _lm_rom_img_cfgp = .
                0x0000000008007798        0x4 LONG 0x8006608 LOADADDR (.data)
                0x0000000020000c98                _lm_heap_start = DEFINED (_lm_heap_start)?_lm_heap_start:_end
                0x0000000020005000                _lm_heap_end = DEFINED (_lm_heap_end)?_lm_heap_end:__msp_init

.rel.dyn        0x000000000800779c        0x0
 .rel.iplt      0x0000000000000000        0x0 /home/param/.arduino15/packages/arduino/tools/arm-none-eabi-gcc/4.8.3-2014q1/bin/../lib/gcc/arm-none-eabi/4.8.3/armv7-m/crtbegin.o

.bss            0x0000000020000850      0x448
                0x0000000020000850                . = ALIGN (0x8)
                0x0000000020000850                __bss_start__ = .
 *(.bss .bss.* .gnu.linkonce.b.*)
 .bss           0x0000000020000850       0x1c /home/param/.arduino15/packages/arduino/tools/arm-none-eabi-gcc/4.8.3-2014q1/bin/../lib/gcc/arm-none-eabi/4.8.3/armv7-m/crtbegin.o
 .bss.FREEFALL_MAYDAY
                0x000000002000086c        0x1 /mnt/Workspace/drone_parachute/build/sketch/main.ino.cpp.o
                0x000000002000086c                FREEFALL_MAYDAY
 *fill*         0x000000002000086d        0x3 
 .bss._ZL8az_ffall
                0x0000000020000870        0x4 /mnt/Workspace/drone_parachute/build/sketch/main.ino.cpp.o
 .bss._ZL19container_lid_servo
                0x0000000020000874        0xa /mnt/Workspace/drone_parachute/build/sketch/main.ino.cpp.o
 .bss.BATTERY_MAYDAY
                0x000000002000087e        0x1 /mnt/Workspace/drone_parachute/build/sketch/main.ino.cpp.o
                0x000000002000087e                BATTERY_MAYDAY
 *fill*         0x000000002000087f        0x1 
 .bss._ZL8ax_ffall
                0x0000000020000880        0x4 /mnt/Workspace/drone_parachute/build/sketch/main.ino.cpp.o
 .bss._ZL21main_battery_volt_est
                0x0000000020000884        0x4 /mnt/Workspace/drone_parachute/build/sketch/main.ino.cpp.o
 .bss._ZL9a_net_gnd
                0x0000000020000888        0x4 /mnt/Workspace/drone_parachute/build/sketch/main.ino.cpp.o
 *fill*         0x000000002000088c        0x4 
 .bss._ZL3IMU   0x0000000020000890      0x1d0 /mnt/Workspace/drone_parachute/build/sketch/main.ino.cpp.o
 .bss._ZL8ay_ffall
                0x0000000020000a60        0x4 /mnt/Workspace/drone_parachute/build/sketch/main.ino.cpp.o
 .bss._ZL23backup_battery_volt_est
                0x0000000020000a64        0x4 /mnt/Workspace/drone_parachute/build/sketch/main.ino.cpp.o
 .bss._ZL3pos   0x0000000020000a68        0x4 /mnt/Workspace/drone_parachute/build/sketch/main.ino.cpp.o
 .bss._ZL6status
                0x0000000020000a6c        0x4 /mnt/Workspace/drone_parachute/build/sketch/main.ino.cpp.o
 .bss.Wire      0x0000000020000a70       0x60 /mnt/Workspace/drone_parachute/build/libraries/Wire/Wire.cpp.o
                0x0000000020000a70                Wire
 .bss._ZL10_spi2_this
                0x0000000020000ad0        0x4 /mnt/Workspace/drone_parachute/build/libraries/SPI/SPI.cpp.o
 .bss._ZL10_spi1_this
                0x0000000020000ad4        0x4 /mnt/Workspace/drone_parachute/build/libraries/SPI/SPI.cpp.o
 .bss.SPI       0x0000000020000ad8       0x4c /mnt/Workspace/drone_parachute/build/libraries/SPI/SPI.cpp.o
                0x0000000020000ad8                SPI
 .bss.Serial1   0x0000000020000b24       0x18 /mnt/Workspace/drone_parachute/build/core/board.cpp.o
                0x0000000020000b24                Serial1
 .bss.Serial2   0x0000000020000b3c       0x18 /mnt/Workspace/drone_parachute/build/core/board.cpp.o
                0x0000000020000b3c                Serial2
 .bss.Serial3   0x0000000020000b54       0x18 /mnt/Workspace/drone_parachute/build/core/board.cpp.o
                0x0000000020000b54                Serial3
 .bss.exti_channels
                0x0000000020000b6c       0x80 /mnt/Workspace/drone_parachute/build/core/core.a(exti.c.o)
                0x0000000020000b6c                exti_channels
 .bss.systick_user_callback
                0x0000000020000bec        0x4 /mnt/Workspace/drone_parachute/build/core/core.a(systick.c.o)
 .bss.usart1_wb
                0x0000000020000bf0        0xc /mnt/Workspace/drone_parachute/build/core/core.a(usart_f1.c.o)
 .bss.usart1_rb
                0x0000000020000bfc        0xc /mnt/Workspace/drone_parachute/build/core/core.a(usart_f1.c.o)
 .bss.usart2_rb
                0x0000000020000c08        0xc /mnt/Workspace/drone_parachute/build/core/core.a(usart_f1.c.o)
 .bss.usart3_rb
                0x0000000020000c14        0xc /mnt/Workspace/drone_parachute/build/core/core.a(usart_f1.c.o)
 .bss.usart2_wb
                0x0000000020000c20        0xc /mnt/Workspace/drone_parachute/build/core/core.a(usart_f1.c.o)
 .bss.usart3_wb
                0x0000000020000c2c        0xc /mnt/Workspace/drone_parachute/build/core/core.a(usart_f1.c.o)
 .bss.line_dtr_rts
                0x0000000020000c38        0x1 /mnt/Workspace/drone_parachute/build/core/core.a(usb_cdcacm.c.o)
 *fill*         0x0000000020000c39        0x3 
 .bss.tx_head   0x0000000020000c3c        0x4 /mnt/Workspace/drone_parachute/build/core/core.a(usb_cdcacm.c.o)
 .bss.transmitting
                0x0000000020000c40        0x1 /mnt/Workspace/drone_parachute/build/core/core.a(usb_cdcacm.c.o)
 *fill*         0x0000000020000c41        0x3 
 .bss.rx_tail   0x0000000020000c44        0x4 /mnt/Workspace/drone_parachute/build/core/core.a(usb_cdcacm.c.o)
 .bss.iface_setup_hook
                0x0000000020000c48        0x4 /mnt/Workspace/drone_parachute/build/core/core.a(usb_cdcacm.c.o)
 .bss.rx_head   0x0000000020000c4c        0x4 /mnt/Workspace/drone_parachute/build/core/core.a(usb_cdcacm.c.o)
 .bss.tx_tail   0x0000000020000c50        0x4 /mnt/Workspace/drone_parachute/build/core/core.a(usb_cdcacm.c.o)
 .bss.Data_Mul_MaxPacketSize
                0x0000000020000c54        0x1 /mnt/Workspace/drone_parachute/build/core/core.a(usb_core.c.o)
                0x0000000020000c54                Data_Mul_MaxPacketSize
 *(COMMON)
 *fill*         0x0000000020000c55        0x3 
 COMMON         0x0000000020000c58        0x4 /mnt/Workspace/drone_parachute/build/core/core.a(systick.c.o)
                0x0000000020000c58                systick_uptime_millis
 COMMON         0x0000000020000c5c        0x6 /mnt/Workspace/drone_parachute/build/core/core.a(usb.c.o)
                0x0000000020000c5c                SaveRState
                0x0000000020000c5e                SaveTState
                0x0000000020000c60                ResumeS
 COMMON         0x0000000020000c62        0x2 /mnt/Workspace/drone_parachute/build/core/core.a(usb_core.c.o)
                0x0000000020000c62                StatusInfo
 COMMON         0x0000000020000c64       0x32 /mnt/Workspace/drone_parachute/build/core/core.a(usb_init.c.o)
                0x0000000020000c64                SaveState
                0x0000000020000c68                pProperty
                0x0000000020000c6c                EPindex
                0x0000000020000c70                Device_Info
                0x0000000020000c8c                pUser_Standard_Requests
                0x0000000020000c90                pInformation
                0x0000000020000c94                wInterrupt_Mask
                0x0000000020000c98                . = ALIGN (0x8)
 *fill*         0x0000000020000c96        0x2 
                0x0000000020000c98                __bss_end__ = .
                0x0000000020000c98                _end = __bss_end__

.stab
 *(.stab)

.stabstr
 *(.stabstr)

.debug
 *(.debug)

.line
 *(.line)

.debug_srcinfo
 *(.debug_srcinfo)

.debug_sfnames
 *(.debug_sfnames)

.debug_aranges  0x0000000000000000     0x15a8
 *(.debug_aranges)
 .debug_aranges
                0x0000000000000000       0x98 /mnt/Workspace/drone_parachute/build/sketch/main.ino.cpp.o
 .debug_aranges
                0x0000000000000098      0x228 /mnt/Workspace/drone_parachute/build/libraries/Bolder_Flight_Systems_MPU9250/MPU9250.cpp.o
 .debug_aranges
                0x00000000000002c0       0xa0 /mnt/Workspace/drone_parachute/build/libraries/Wire/SoftWire.cpp.o
 .debug_aranges
                0x0000000000000360       0x68 /mnt/Workspace/drone_parachute/build/libraries/Wire/Wire.cpp.o
 .debug_aranges
                0x00000000000003c8       0x88 /mnt/Workspace/drone_parachute/build/libraries/Wire/utility/WireBase.cpp.o
 .debug_aranges
                0x0000000000000450      0x190 /mnt/Workspace/drone_parachute/build/libraries/SPI/SPI.cpp.o
 .debug_aranges
                0x00000000000005e0       0x58 /mnt/Workspace/drone_parachute/build/libraries/Servo/Servo.cpp.o
 .debug_aranges
                0x0000000000000638       0x20 /mnt/Workspace/drone_parachute/build/core/wirish/start.S.o
 .debug_aranges
                0x0000000000000658       0x20 /mnt/Workspace/drone_parachute/build/core/wirish/start_c.c.o
 .debug_aranges
                0x0000000000000678       0x88 /mnt/Workspace/drone_parachute/build/core/wirish/syscalls.c.o
 .debug_aranges
                0x0000000000000700       0x28 /mnt/Workspace/drone_parachute/build/core/board.cpp.o
 .debug_aranges
                0x0000000000000728       0x40 /mnt/Workspace/drone_parachute/build/core/wirish/boards.cpp.o
 .debug_aranges
                0x0000000000000768       0x40 /mnt/Workspace/drone_parachute/build/core/wirish/boards_setup.cpp.o
 .debug_aranges
                0x00000000000007a8       0x20 /mnt/Workspace/drone_parachute/build/core/core.a(exc.S.o)
 .debug_aranges
                0x00000000000007c8       0x20 /mnt/Workspace/drone_parachute/build/core/core.a(isrs.S.o)
 .debug_aranges
                0x00000000000007e8       0x38 /mnt/Workspace/drone_parachute/build/core/core.a(adc.c.o)
 .debug_aranges
                0x0000000000000820       0x58 /mnt/Workspace/drone_parachute/build/core/core.a(adc_f1.c.o)
 .debug_aranges
                0x0000000000000878       0x28 /mnt/Workspace/drone_parachute/build/core/core.a(dma.c.o)
 .debug_aranges
                0x00000000000008a0       0xb0 /mnt/Workspace/drone_parachute/build/core/core.a(dma_f1.c.o)
 .debug_aranges
                0x0000000000000950       0x80 /mnt/Workspace/drone_parachute/build/core/core.a(exti.c.o)
 .debug_aranges
                0x00000000000009d0       0x20 /mnt/Workspace/drone_parachute/build/core/core.a(exti_f1.c.o)
 .debug_aranges
                0x00000000000009f0       0x20 /mnt/Workspace/drone_parachute/build/core/core.a(flash.c.o)
 .debug_aranges
                0x0000000000000a10       0x40 /mnt/Workspace/drone_parachute/build/core/core.a(gpio_f1.c.o)
 .debug_aranges
                0x0000000000000a50       0x88 /mnt/Workspace/drone_parachute/build/core/core.a(i2c.c.o)
 .debug_aranges
                0x0000000000000ad8       0x50 /mnt/Workspace/drone_parachute/build/core/core.a(i2c_f1.c.o)
 .debug_aranges
                0x0000000000000b28       0x38 /mnt/Workspace/drone_parachute/build/core/core.a(nvic.c.o)
 .debug_aranges
                0x0000000000000b60       0x48 /mnt/Workspace/drone_parachute/build/core/core.a(rcc.c.o)
 .debug_aranges
                0x0000000000000ba8       0x48 /mnt/Workspace/drone_parachute/build/core/core.a(rcc_f1.c.o)
 .debug_aranges
                0x0000000000000bf0       0x78 /mnt/Workspace/drone_parachute/build/core/core.a(spi.c.o)
 .debug_aranges
                0x0000000000000c68       0x28 /mnt/Workspace/drone_parachute/build/core/core.a(spi_f1.c.o)
 .debug_aranges
                0x0000000000000c90       0x40 /mnt/Workspace/drone_parachute/build/core/core.a(systick.c.o)
 .debug_aranges
                0x0000000000000cd0       0xb0 /mnt/Workspace/drone_parachute/build/core/core.a(timer.c.o)
 .debug_aranges
                0x0000000000000d80       0x50 /mnt/Workspace/drone_parachute/build/core/core.a(usart_f1.c.o)
 .debug_aranges
                0x0000000000000dd0       0x20 /mnt/Workspace/drone_parachute/build/core/core.a(usart_private.c.o)
 .debug_aranges
                0x0000000000000df0       0x38 /mnt/Workspace/drone_parachute/build/core/core.a(usb.c.o)
 .debug_aranges
                0x0000000000000e28      0x128 /mnt/Workspace/drone_parachute/build/core/core.a(usb_cdcacm.c.o)
 .debug_aranges
                0x0000000000000f50       0x20 /mnt/Workspace/drone_parachute/build/core/core.a(usb_reg_map.c.o)
 .debug_aranges
                0x0000000000000f70       0x98 /mnt/Workspace/drone_parachute/build/core/core.a(usb_core.c.o)
 .debug_aranges
                0x0000000000001008       0x20 /mnt/Workspace/drone_parachute/build/core/core.a(usb_init.c.o)
 .debug_aranges
                0x0000000000001028       0x28 /mnt/Workspace/drone_parachute/build/core/core.a(usb_mem.c.o)
 .debug_aranges
                0x0000000000001050      0x1f0 /mnt/Workspace/drone_parachute/build/core/core.a(usb_regs.c.o)
 .debug_aranges
                0x0000000000001240       0x50 /mnt/Workspace/drone_parachute/build/core/core.a(util.c.o)
 .debug_aranges
                0x0000000000001290       0x70 /mnt/Workspace/drone_parachute/build/core/core.a(HardwareSerial.cpp.o)
 .debug_aranges
                0x0000000000001300      0x110 /mnt/Workspace/drone_parachute/build/core/core.a(Print.cpp.o)
 .debug_aranges
                0x0000000000001410       0x28 /mnt/Workspace/drone_parachute/build/core/core.a(cxxabi-compat.cpp.o)
 .debug_aranges
                0x0000000000001438       0x28 /mnt/Workspace/drone_parachute/build/core/core.a(main.cpp.o)
 .debug_aranges
                0x0000000000001460       0x28 /mnt/Workspace/drone_parachute/build/core/core.a(pwm.cpp.o)
 .debug_aranges
                0x0000000000001488       0x20 /mnt/Workspace/drone_parachute/build/core/core.a(wirish_digital_f1.cpp.o)
 .debug_aranges
                0x00000000000014a8       0x20 /mnt/Workspace/drone_parachute/build/core/core.a(wirish_analog.cpp.o)
 .debug_aranges
                0x00000000000014c8       0x28 /mnt/Workspace/drone_parachute/build/core/core.a(wirish_digital.cpp.o)
 .debug_aranges
                0x00000000000014f0       0x30 /mnt/Workspace/drone_parachute/build/core/core.a(wirish_time.cpp.o)
 .debug_aranges
                0x0000000000001520       0x20 /mnt/Workspace/drone_parachute/build/core/core.a(hooks.c.o)
 .debug_aranges
                0x0000000000001540       0x20 /mnt/Workspace/drone_parachute/build/core/core.a(gpio.c.o)
 .debug_aranges
                0x0000000000001560       0x48 /mnt/Workspace/drone_parachute/build/core/core.a(usart.c.o)

.debug_pubnames
 *(.debug_pubnames)

.debug_info     0x0000000000000000    0x2f1b8
 *(.debug_info .gnu.linkonce.wi.*)
 .debug_info    0x0000000000000000     0x3458 /mnt/Workspace/drone_parachute/build/sketch/main.ino.cpp.o
 .debug_info    0x0000000000003458     0x4968 /mnt/Workspace/drone_parachute/build/libraries/Bolder_Flight_Systems_MPU9250/MPU9250.cpp.o
 .debug_info    0x0000000000007dc0     0x1980 /mnt/Workspace/drone_parachute/build/libraries/Wire/SoftWire.cpp.o
 .debug_info    0x0000000000009740      0xd87 /mnt/Workspace/drone_parachute/build/libraries/Wire/Wire.cpp.o
 .debug_info    0x000000000000a4c7      0xf2c /mnt/Workspace/drone_parachute/build/libraries/Wire/utility/WireBase.cpp.o
 .debug_info    0x000000000000b3f3     0x35bf /mnt/Workspace/drone_parachute/build/libraries/SPI/SPI.cpp.o
 .debug_info    0x000000000000e9b2     0x13c0 /mnt/Workspace/drone_parachute/build/libraries/Servo/Servo.cpp.o
 .debug_info    0x000000000000fd72       0xe5 /mnt/Workspace/drone_parachute/build/core/wirish/start.S.o
 .debug_info    0x000000000000fe57      0x14d /mnt/Workspace/drone_parachute/build/core/wirish/start_c.c.o
 .debug_info    0x000000000000ffa4      0x5cd /mnt/Workspace/drone_parachute/build/core/wirish/syscalls.c.o
 .debug_info    0x0000000000010571      0xf2e /mnt/Workspace/drone_parachute/build/core/board.cpp.o
 .debug_info    0x000000000001149f     0x142d /mnt/Workspace/drone_parachute/build/core/wirish/boards.cpp.o
 .debug_info    0x00000000000128cc      0x665 /mnt/Workspace/drone_parachute/build/core/wirish/boards_setup.cpp.o
 .debug_info    0x0000000000012f31       0xd5 /mnt/Workspace/drone_parachute/build/core/core.a(exc.S.o)
 .debug_info    0x0000000000013006       0xea /mnt/Workspace/drone_parachute/build/core/core.a(isrs.S.o)
 .debug_info    0x00000000000130f0      0x79a /mnt/Workspace/drone_parachute/build/core/core.a(adc.c.o)
 .debug_info    0x000000000001388a      0xe4a /mnt/Workspace/drone_parachute/build/core/core.a(adc_f1.c.o)
 .debug_info    0x00000000000146d4      0x74e /mnt/Workspace/drone_parachute/build/core/core.a(dma.c.o)
 .debug_info    0x0000000000014e22     0x1b08 /mnt/Workspace/drone_parachute/build/core/core.a(dma_f1.c.o)
 .debug_info    0x000000000001692a      0xd95 /mnt/Workspace/drone_parachute/build/core/core.a(exti.c.o)
 .debug_info    0x00000000000176bf      0x213 /mnt/Workspace/drone_parachute/build/core/core.a(exti_f1.c.o)
 .debug_info    0x00000000000178d2      0x128 /mnt/Workspace/drone_parachute/build/core/core.a(flash.c.o)
 .debug_info    0x00000000000179fa      0x6d6 /mnt/Workspace/drone_parachute/build/core/core.a(gpio_f1.c.o)
 .debug_info    0x00000000000180d0     0x1b04 /mnt/Workspace/drone_parachute/build/core/core.a(i2c.c.o)
 .debug_info    0x0000000000019bd4      0xc25 /mnt/Workspace/drone_parachute/build/core/core.a(i2c_f1.c.o)
 .debug_info    0x000000000001a7f9      0x5a2 /mnt/Workspace/drone_parachute/build/core/core.a(nvic.c.o)
 .debug_info    0x000000000001ad9b      0x556 /mnt/Workspace/drone_parachute/build/core/core.a(rcc.c.o)
 .debug_info    0x000000000001b2f1      0xc01 /mnt/Workspace/drone_parachute/build/core/core.a(rcc_f1.c.o)
 .debug_info    0x000000000001bef2      0xa88 /mnt/Workspace/drone_parachute/build/core/core.a(spi.c.o)
 .debug_info    0x000000000001c97a      0x794 /mnt/Workspace/drone_parachute/build/core/core.a(spi_f1.c.o)
 .debug_info    0x000000000001d10e      0x182 /mnt/Workspace/drone_parachute/build/core/core.a(systick.c.o)
 .debug_info    0x000000000001d290     0x1a43 /mnt/Workspace/drone_parachute/build/core/core.a(timer.c.o)
 .debug_info    0x000000000001ecd3      0xbe0 /mnt/Workspace/drone_parachute/build/core/core.a(usart_f1.c.o)
 .debug_info    0x000000000001f8b3      0x595 /mnt/Workspace/drone_parachute/build/core/core.a(usart_private.c.o)
 .debug_info    0x000000000001fe48      0xd9b /mnt/Workspace/drone_parachute/build/core/core.a(usb.c.o)
 .debug_info    0x0000000000020be3     0x22d2 /mnt/Workspace/drone_parachute/build/core/core.a(usb_cdcacm.c.o)
 .debug_info    0x0000000000022eb5      0x26c /mnt/Workspace/drone_parachute/build/core/core.a(usb_reg_map.c.o)
 .debug_info    0x0000000000023121      0xddf /mnt/Workspace/drone_parachute/build/core/core.a(usb_core.c.o)
 .debug_info    0x0000000000023f00      0x3ed /mnt/Workspace/drone_parachute/build/core/core.a(usb_init.c.o)
 .debug_info    0x00000000000242ed      0x183 /mnt/Workspace/drone_parachute/build/core/core.a(usb_mem.c.o)
 .debug_info    0x0000000000024470      0xc88 /mnt/Workspace/drone_parachute/build/core/core.a(usb_regs.c.o)
 .debug_info    0x00000000000250f8      0xad2 /mnt/Workspace/drone_parachute/build/core/core.a(util.c.o)
 .debug_info    0x0000000000025bca     0x29ea /mnt/Workspace/drone_parachute/build/core/core.a(HardwareSerial.cpp.o)
 .debug_info    0x00000000000285b4     0x258c /mnt/Workspace/drone_parachute/build/core/core.a(Print.cpp.o)
 .debug_info    0x000000000002ab40      0x526 /mnt/Workspace/drone_parachute/build/core/core.a(cxxabi-compat.cpp.o)
 .debug_info    0x000000000002b066       0x99 /mnt/Workspace/drone_parachute/build/core/core.a(main.cpp.o)
 .debug_info    0x000000000002b0ff      0xc15 /mnt/Workspace/drone_parachute/build/core/core.a(pwm.cpp.o)
 .debug_info    0x000000000002bd14      0xcdd /mnt/Workspace/drone_parachute/build/core/core.a(wirish_digital_f1.cpp.o)
 .debug_info    0x000000000002c9f1      0xa7e /mnt/Workspace/drone_parachute/build/core/core.a(wirish_analog.cpp.o)
 .debug_info    0x000000000002d46f      0xb0b /mnt/Workspace/drone_parachute/build/core/core.a(wirish_digital.cpp.o)
 .debug_info    0x000000000002df7a      0x2c6 /mnt/Workspace/drone_parachute/build/core/core.a(wirish_time.cpp.o)
 .debug_info    0x000000000002e240       0x33 /mnt/Workspace/drone_parachute/build/core/core.a(hooks.c.o)
 .debug_info    0x000000000002e273      0x313 /mnt/Workspace/drone_parachute/build/core/core.a(gpio.c.o)
 .debug_info    0x000000000002e586      0xc32 /mnt/Workspace/drone_parachute/build/core/core.a(usart.c.o)

.debug_abbrev   0x0000000000000000     0x7ff2
 *(.debug_abbrev)
 .debug_abbrev  0x0000000000000000      0x52e /mnt/Workspace/drone_parachute/build/sketch/main.ino.cpp.o
 .debug_abbrev  0x000000000000052e      0x58f /mnt/Workspace/drone_parachute/build/libraries/Bolder_Flight_Systems_MPU9250/MPU9250.cpp.o
 .debug_abbrev  0x0000000000000abd      0x426 /mnt/Workspace/drone_parachute/build/libraries/Wire/SoftWire.cpp.o
 .debug_abbrev  0x0000000000000ee3      0x3ac /mnt/Workspace/drone_parachute/build/libraries/Wire/Wire.cpp.o
 .debug_abbrev  0x000000000000128f      0x320 /mnt/Workspace/drone_parachute/build/libraries/Wire/utility/WireBase.cpp.o
 .debug_abbrev  0x00000000000015af      0x6a0 /mnt/Workspace/drone_parachute/build/libraries/SPI/SPI.cpp.o
 .debug_abbrev  0x0000000000001c4f      0x3f8 /mnt/Workspace/drone_parachute/build/libraries/Servo/Servo.cpp.o
 .debug_abbrev  0x0000000000002047       0x14 /mnt/Workspace/drone_parachute/build/core/wirish/start.S.o
 .debug_abbrev  0x000000000000205b       0xfd /mnt/Workspace/drone_parachute/build/core/wirish/start_c.c.o
 .debug_abbrev  0x0000000000002158      0x17e /mnt/Workspace/drone_parachute/build/core/wirish/syscalls.c.o
 .debug_abbrev  0x00000000000022d6      0x1ea /mnt/Workspace/drone_parachute/build/core/board.cpp.o
 .debug_abbrev  0x00000000000024c0      0x3dd /mnt/Workspace/drone_parachute/build/core/wirish/boards.cpp.o
 .debug_abbrev  0x000000000000289d      0x196 /mnt/Workspace/drone_parachute/build/core/wirish/boards_setup.cpp.o
 .debug_abbrev  0x0000000000002a33       0x14 /mnt/Workspace/drone_parachute/build/core/core.a(exc.S.o)
 .debug_abbrev  0x0000000000002a47       0x14 /mnt/Workspace/drone_parachute/build/core/core.a(isrs.S.o)
 .debug_abbrev  0x0000000000002a5b      0x20b /mnt/Workspace/drone_parachute/build/core/core.a(adc.c.o)
 .debug_abbrev  0x0000000000002c66      0x2e6 /mnt/Workspace/drone_parachute/build/core/core.a(adc_f1.c.o)
 .debug_abbrev  0x0000000000002f4c      0x19d /mnt/Workspace/drone_parachute/build/core/core.a(dma.c.o)
 .debug_abbrev  0x00000000000030e9      0x41a /mnt/Workspace/drone_parachute/build/core/core.a(dma_f1.c.o)
 .debug_abbrev  0x0000000000003503      0x2ad /mnt/Workspace/drone_parachute/build/core/core.a(exti.c.o)
 .debug_abbrev  0x00000000000037b0       0xdb /mnt/Workspace/drone_parachute/build/core/core.a(exti_f1.c.o)
 .debug_abbrev  0x000000000000388b       0x9f /mnt/Workspace/drone_parachute/build/core/core.a(flash.c.o)
 .debug_abbrev  0x000000000000392a      0x191 /mnt/Workspace/drone_parachute/build/core/core.a(gpio_f1.c.o)
 .debug_abbrev  0x0000000000003abb      0x42d /mnt/Workspace/drone_parachute/build/core/core.a(i2c.c.o)
 .debug_abbrev  0x0000000000003ee8      0x20b /mnt/Workspace/drone_parachute/build/core/core.a(i2c_f1.c.o)
 .debug_abbrev  0x00000000000040f3      0x1ac /mnt/Workspace/drone_parachute/build/core/core.a(nvic.c.o)
 .debug_abbrev  0x000000000000429f      0x17f /mnt/Workspace/drone_parachute/build/core/core.a(rcc.c.o)
 .debug_abbrev  0x000000000000441e      0x28c /mnt/Workspace/drone_parachute/build/core/core.a(rcc_f1.c.o)
 .debug_abbrev  0x00000000000046aa      0x2ad /mnt/Workspace/drone_parachute/build/core/core.a(spi.c.o)
 .debug_abbrev  0x0000000000004957      0x152 /mnt/Workspace/drone_parachute/build/core/core.a(spi_f1.c.o)
 .debug_abbrev  0x0000000000004aa9      0x10f /mnt/Workspace/drone_parachute/build/core/core.a(systick.c.o)
 .debug_abbrev  0x0000000000004bb8      0x4af /mnt/Workspace/drone_parachute/build/core/core.a(timer.c.o)
 .debug_abbrev  0x0000000000005067      0x2b6 /mnt/Workspace/drone_parachute/build/core/core.a(usart_f1.c.o)
 .debug_abbrev  0x000000000000531d      0x144 /mnt/Workspace/drone_parachute/build/core/core.a(usart_private.c.o)
 .debug_abbrev  0x0000000000005461      0x343 /mnt/Workspace/drone_parachute/build/core/core.a(usb.c.o)
 .debug_abbrev  0x00000000000057a4      0x47d /mnt/Workspace/drone_parachute/build/core/core.a(usb_cdcacm.c.o)
 .debug_abbrev  0x0000000000005c21      0x193 /mnt/Workspace/drone_parachute/build/core/core.a(usb_reg_map.c.o)
 .debug_abbrev  0x0000000000005db4      0x3a6 /mnt/Workspace/drone_parachute/build/core/core.a(usb_core.c.o)
 .debug_abbrev  0x000000000000615a      0x101 /mnt/Workspace/drone_parachute/build/core/core.a(usb_init.c.o)
 .debug_abbrev  0x000000000000625b       0xa6 /mnt/Workspace/drone_parachute/build/core/core.a(usb_mem.c.o)
 .debug_abbrev  0x0000000000006301      0x1f3 /mnt/Workspace/drone_parachute/build/core/core.a(usb_regs.c.o)
 .debug_abbrev  0x00000000000064f4      0x2cb /mnt/Workspace/drone_parachute/build/core/core.a(util.c.o)
 .debug_abbrev  0x00000000000067bf      0x535 /mnt/Workspace/drone_parachute/build/core/core.a(HardwareSerial.cpp.o)
 .debug_abbrev  0x0000000000006cf4      0x414 /mnt/Workspace/drone_parachute/build/core/core.a(Print.cpp.o)
 .debug_abbrev  0x0000000000007108      0x163 /mnt/Workspace/drone_parachute/build/core/core.a(cxxabi-compat.cpp.o)
 .debug_abbrev  0x000000000000726b       0x7b /mnt/Workspace/drone_parachute/build/core/core.a(main.cpp.o)
 .debug_abbrev  0x00000000000072e6      0x21e /mnt/Workspace/drone_parachute/build/core/core.a(pwm.cpp.o)
 .debug_abbrev  0x0000000000007504      0x250 /mnt/Workspace/drone_parachute/build/core/core.a(wirish_digital_f1.cpp.o)
 .debug_abbrev  0x0000000000007754      0x15f /mnt/Workspace/drone_parachute/build/core/core.a(wirish_analog.cpp.o)
 .debug_abbrev  0x00000000000078b3      0x17e /mnt/Workspace/drone_parachute/build/core/core.a(wirish_digital.cpp.o)
 .debug_abbrev  0x0000000000007a31      0x189 /mnt/Workspace/drone_parachute/build/core/core.a(wirish_time.cpp.o)
 .debug_abbrev  0x0000000000007bba       0x26 /mnt/Workspace/drone_parachute/build/core/core.a(hooks.c.o)
 .debug_abbrev  0x0000000000007be0      0x113 /mnt/Workspace/drone_parachute/build/core/core.a(gpio.c.o)
 .debug_abbrev  0x0000000000007cf3      0x2ff /mnt/Workspace/drone_parachute/build/core/core.a(usart.c.o)

.debug_line     0x0000000000000000     0xd7fc
 *(.debug_line)
 .debug_line    0x0000000000000000      0x8bf /mnt/Workspace/drone_parachute/build/sketch/main.ino.cpp.o
 .debug_line    0x00000000000008bf      0xebe /mnt/Workspace/drone_parachute/build/libraries/Bolder_Flight_Systems_MPU9250/MPU9250.cpp.o
 .debug_line    0x000000000000177d      0x65f /mnt/Workspace/drone_parachute/build/libraries/Wire/SoftWire.cpp.o
 .debug_line    0x0000000000001ddc      0x499 /mnt/Workspace/drone_parachute/build/libraries/Wire/Wire.cpp.o
 .debug_line    0x0000000000002275      0x552 /mnt/Workspace/drone_parachute/build/libraries/Wire/utility/WireBase.cpp.o
 .debug_line    0x00000000000027c7      0xc24 /mnt/Workspace/drone_parachute/build/libraries/SPI/SPI.cpp.o
 .debug_line    0x00000000000033eb      0x4ce /mnt/Workspace/drone_parachute/build/libraries/Servo/Servo.cpp.o
 .debug_line    0x00000000000038b9       0xa6 /mnt/Workspace/drone_parachute/build/core/wirish/start.S.o
 .debug_line    0x000000000000395f       0xb4 /mnt/Workspace/drone_parachute/build/core/wirish/start_c.c.o
 .debug_line    0x0000000000003a13      0x2dc /mnt/Workspace/drone_parachute/build/core/wirish/syscalls.c.o
 .debug_line    0x0000000000003cef      0x3ed /mnt/Workspace/drone_parachute/build/core/board.cpp.o
 .debug_line    0x00000000000040dc      0x473 /mnt/Workspace/drone_parachute/build/core/wirish/boards.cpp.o
 .debug_line    0x000000000000454f      0x362 /mnt/Workspace/drone_parachute/build/core/wirish/boards_setup.cpp.o
 .debug_line    0x00000000000048b1       0xa9 /mnt/Workspace/drone_parachute/build/core/core.a(exc.S.o)
 .debug_line    0x000000000000495a       0xa6 /mnt/Workspace/drone_parachute/build/core/core.a(isrs.S.o)
 .debug_line    0x0000000000004a00      0x2f8 /mnt/Workspace/drone_parachute/build/core/core.a(adc.c.o)
 .debug_line    0x0000000000004cf8      0x3a4 /mnt/Workspace/drone_parachute/build/core/core.a(adc_f1.c.o)
 .debug_line    0x000000000000509c      0x346 /mnt/Workspace/drone_parachute/build/core/core.a(dma.c.o)
 .debug_line    0x00000000000053e2      0x6bc /mnt/Workspace/drone_parachute/build/core/core.a(dma_f1.c.o)
 .debug_line    0x0000000000005a9e      0x3e2 /mnt/Workspace/drone_parachute/build/core/core.a(exti.c.o)
 .debug_line    0x0000000000005e80      0x2ec /mnt/Workspace/drone_parachute/build/core/core.a(exti_f1.c.o)
 .debug_line    0x000000000000616c      0x27a /mnt/Workspace/drone_parachute/build/core/core.a(flash.c.o)
 .debug_line    0x00000000000063e6      0x30f /mnt/Workspace/drone_parachute/build/core/core.a(gpio_f1.c.o)
 .debug_line    0x00000000000066f5      0x8c0 /mnt/Workspace/drone_parachute/build/core/core.a(i2c.c.o)
 .debug_line    0x0000000000006fb5      0x3f9 /mnt/Workspace/drone_parachute/build/core/core.a(i2c_f1.c.o)
 .debug_line    0x00000000000073ae      0x2e2 /mnt/Workspace/drone_parachute/build/core/core.a(nvic.c.o)
 .debug_line    0x0000000000007690      0x36d /mnt/Workspace/drone_parachute/build/core/core.a(rcc.c.o)
 .debug_line    0x00000000000079fd      0x3e0 /mnt/Workspace/drone_parachute/build/core/core.a(rcc_f1.c.o)
 .debug_line    0x0000000000007ddd      0x3b3 /mnt/Workspace/drone_parachute/build/core/core.a(spi.c.o)
 .debug_line    0x0000000000008190      0x2c6 /mnt/Workspace/drone_parachute/build/core/core.a(spi_f1.c.o)
 .debug_line    0x0000000000008456      0x25a /mnt/Workspace/drone_parachute/build/core/core.a(systick.c.o)
 .debug_line    0x00000000000086b0      0x5fa /mnt/Workspace/drone_parachute/build/core/core.a(timer.c.o)
 .debug_line    0x0000000000008caa      0x41c /mnt/Workspace/drone_parachute/build/core/core.a(usart_f1.c.o)
 .debug_line    0x00000000000090c6      0x2b6 /mnt/Workspace/drone_parachute/build/core/core.a(usart_private.c.o)
 .debug_line    0x000000000000937c      0x4e9 /mnt/Workspace/drone_parachute/build/core/core.a(usb.c.o)
 .debug_line    0x0000000000009865      0x8e0 /mnt/Workspace/drone_parachute/build/core/core.a(usb_cdcacm.c.o)
 .debug_line    0x000000000000a145      0x2ad /mnt/Workspace/drone_parachute/build/core/core.a(usb_reg_map.c.o)
 .debug_line    0x000000000000a3f2      0x415 /mnt/Workspace/drone_parachute/build/core/core.a(usb_core.c.o)
 .debug_line    0x000000000000a807      0x12a /mnt/Workspace/drone_parachute/build/core/core.a(usb_init.c.o)
 .debug_line    0x000000000000a931      0x164 /mnt/Workspace/drone_parachute/build/core/core.a(usb_mem.c.o)
 .debug_line    0x000000000000aa95      0x58e /mnt/Workspace/drone_parachute/build/core/core.a(usb_regs.c.o)
 .debug_line    0x000000000000b023      0x37e /mnt/Workspace/drone_parachute/build/core/core.a(util.c.o)
 .debug_line    0x000000000000b3a1      0x500 /mnt/Workspace/drone_parachute/build/core/core.a(HardwareSerial.cpp.o)
 .debug_line    0x000000000000b8a1      0x57c /mnt/Workspace/drone_parachute/build/core/core.a(Print.cpp.o)
 .debug_line    0x000000000000be1d      0x22e /mnt/Workspace/drone_parachute/build/core/core.a(cxxabi-compat.cpp.o)
 .debug_line    0x000000000000c04b       0xa1 /mnt/Workspace/drone_parachute/build/core/core.a(main.cpp.o)
 .debug_line    0x000000000000c0ec      0x312 /mnt/Workspace/drone_parachute/build/core/core.a(pwm.cpp.o)
 .debug_line    0x000000000000c3fe      0x3ab /mnt/Workspace/drone_parachute/build/core/core.a(wirish_digital_f1.cpp.o)
 .debug_line    0x000000000000c7a9      0x2de /mnt/Workspace/drone_parachute/build/core/core.a(wirish_analog.cpp.o)
 .debug_line    0x000000000000ca87      0x32c /mnt/Workspace/drone_parachute/build/core/core.a(wirish_digital.cpp.o)
 .debug_line    0x000000000000cdb3      0x310 /mnt/Workspace/drone_parachute/build/core/core.a(wirish_time.cpp.o)
 .debug_line    0x000000000000d0c3       0x8a /mnt/Workspace/drone_parachute/build/core/core.a(hooks.c.o)
 .debug_line    0x000000000000d14d      0x29f /mnt/Workspace/drone_parachute/build/core/core.a(gpio.c.o)
 .debug_line    0x000000000000d3ec      0x410 /mnt/Workspace/drone_parachute/build/core/core.a(usart.c.o)

.debug_frame    0x0000000000000000     0x33b0
 *(.debug_frame)
 .debug_frame   0x0000000000000000      0x184 /mnt/Workspace/drone_parachute/build/sketch/main.ino.cpp.o
 .debug_frame   0x0000000000000184      0x5e0 /mnt/Workspace/drone_parachute/build/libraries/Bolder_Flight_Systems_MPU9250/MPU9250.cpp.o
 .debug_frame   0x0000000000000764      0x1a8 /mnt/Workspace/drone_parachute/build/libraries/Wire/SoftWire.cpp.o
 .debug_frame   0x000000000000090c       0xe4 /mnt/Workspace/drone_parachute/build/libraries/Wire/Wire.cpp.o
 .debug_frame   0x00000000000009f0      0x120 /mnt/Workspace/drone_parachute/build/libraries/Wire/utility/WireBase.cpp.o
 .debug_frame   0x0000000000000b10      0x458 /mnt/Workspace/drone_parachute/build/libraries/SPI/SPI.cpp.o
 .debug_frame   0x0000000000000f68       0xd8 /mnt/Workspace/drone_parachute/build/libraries/Servo/Servo.cpp.o
 .debug_frame   0x0000000000001040       0x28 /mnt/Workspace/drone_parachute/build/core/wirish/start_c.c.o
 .debug_frame   0x0000000000001068      0x130 /mnt/Workspace/drone_parachute/build/core/wirish/syscalls.c.o
 .debug_frame   0x0000000000001198       0x38 /mnt/Workspace/drone_parachute/build/core/board.cpp.o
 .debug_frame   0x00000000000011d0       0x84 /mnt/Workspace/drone_parachute/build/core/wirish/boards.cpp.o
 .debug_frame   0x0000000000001254       0x68 /mnt/Workspace/drone_parachute/build/core/wirish/boards_setup.cpp.o
 .debug_frame   0x00000000000012bc       0x64 /mnt/Workspace/drone_parachute/build/core/core.a(adc.c.o)
 .debug_frame   0x0000000000001320       0xb4 /mnt/Workspace/drone_parachute/build/core/core.a(adc_f1.c.o)
 .debug_frame   0x00000000000013d4       0x38 /mnt/Workspace/drone_parachute/build/core/core.a(dma.c.o)
 .debug_frame   0x000000000000140c      0x1b4 /mnt/Workspace/drone_parachute/build/core/core.a(dma_f1.c.o)
 .debug_frame   0x00000000000015c0      0x120 /mnt/Workspace/drone_parachute/build/core/core.a(exti.c.o)
 .debug_frame   0x00000000000016e0       0x20 /mnt/Workspace/drone_parachute/build/core/core.a(exti_f1.c.o)
 .debug_frame   0x0000000000001700       0x20 /mnt/Workspace/drone_parachute/build/core/core.a(flash.c.o)
 .debug_frame   0x0000000000001720       0x7c /mnt/Workspace/drone_parachute/build/core/core.a(gpio_f1.c.o)
 .debug_frame   0x000000000000179c      0x14c /mnt/Workspace/drone_parachute/build/core/core.a(i2c.c.o)
 .debug_frame   0x00000000000018e8       0x94 /mnt/Workspace/drone_parachute/build/core/core.a(i2c_f1.c.o)
 .debug_frame   0x000000000000197c       0x5c /mnt/Workspace/drone_parachute/build/core/core.a(nvic.c.o)
 .debug_frame   0x00000000000019d8       0x70 /mnt/Workspace/drone_parachute/build/core/core.a(rcc.c.o)
 .debug_frame   0x0000000000001a48       0xa8 /mnt/Workspace/drone_parachute/build/core/core.a(rcc_f1.c.o)
 .debug_frame   0x0000000000001af0       0xec /mnt/Workspace/drone_parachute/build/core/core.a(spi.c.o)
 .debug_frame   0x0000000000001bdc       0x48 /mnt/Workspace/drone_parachute/build/core/core.a(spi_f1.c.o)
 .debug_frame   0x0000000000001c24       0x68 /mnt/Workspace/drone_parachute/build/core/core.a(systick.c.o)
 .debug_frame   0x0000000000001c8c      0x1d0 /mnt/Workspace/drone_parachute/build/core/core.a(timer.c.o)
 .debug_frame   0x0000000000001e5c       0xac /mnt/Workspace/drone_parachute/build/core/core.a(usart_f1.c.o)
 .debug_frame   0x0000000000001f08       0x28 /mnt/Workspace/drone_parachute/build/core/core.a(usart_private.c.o)
 .debug_frame   0x0000000000001f30       0x6c /mnt/Workspace/drone_parachute/build/core/core.a(usb.c.o)
 .debug_frame   0x0000000000001f9c      0x2cc /mnt/Workspace/drone_parachute/build/core/core.a(usb_cdcacm.c.o)
 .debug_frame   0x0000000000002268       0x20 /mnt/Workspace/drone_parachute/build/core/core.a(usb_reg_map.c.o)
 .debug_frame   0x0000000000002288      0x1ac /mnt/Workspace/drone_parachute/build/core/core.a(usb_core.c.o)
 .debug_frame   0x0000000000002434       0x28 /mnt/Workspace/drone_parachute/build/core/core.a(usb_init.c.o)
 .debug_frame   0x000000000000245c       0x4c /mnt/Workspace/drone_parachute/build/core/core.a(usb_mem.c.o)
 .debug_frame   0x00000000000024a8      0x3d0 /mnt/Workspace/drone_parachute/build/core/core.a(usb_regs.c.o)
 .debug_frame   0x0000000000002878       0xc8 /mnt/Workspace/drone_parachute/build/core/core.a(util.c.o)
 .debug_frame   0x0000000000002940      0x10c /mnt/Workspace/drone_parachute/build/core/core.a(HardwareSerial.cpp.o)
 .debug_frame   0x0000000000002a4c      0x378 /mnt/Workspace/drone_parachute/build/core/core.a(Print.cpp.o)
 .debug_frame   0x0000000000002dc4       0x38 /mnt/Workspace/drone_parachute/build/core/core.a(cxxabi-compat.cpp.o)
 .debug_frame   0x0000000000002dfc       0x38 /mnt/Workspace/drone_parachute/build/core/core.a(main.cpp.o)
 .debug_frame   0x0000000000002e34       0x48 /mnt/Workspace/drone_parachute/build/core/core.a(pwm.cpp.o)
 .debug_frame   0x0000000000002e7c       0x2c /mnt/Workspace/drone_parachute/build/core/core.a(wirish_digital_f1.cpp.o)
 .debug_frame   0x0000000000002ea8       0x20 /mnt/Workspace/drone_parachute/build/core/core.a(wirish_analog.cpp.o)
 .debug_frame   0x0000000000002ec8       0x30 /mnt/Workspace/drone_parachute/build/core/core.a(wirish_digital.cpp.o)
 .debug_frame   0x0000000000002ef8       0x4c /mnt/Workspace/drone_parachute/build/core/core.a(wirish_time.cpp.o)
 .debug_frame   0x0000000000002f44       0x20 /mnt/Workspace/drone_parachute/build/core/core.a(hooks.c.o)
 .debug_frame   0x0000000000002f64       0x28 /mnt/Workspace/drone_parachute/build/core/core.a(gpio.c.o)
 .debug_frame   0x0000000000002f8c       0xb4 /mnt/Workspace/drone_parachute/build/core/core.a(usart.c.o)
 .debug_frame   0x0000000000003040       0x38 /home/param/.arduino15/packages/arduino/tools/arm-none-eabi-gcc/4.8.3-2014q1/bin/../lib/gcc/arm-none-eabi/4.8.3/../../../../arm-none-eabi/lib/armv7-m/libm.a(lib_a-w_sqrt.o)
 .debug_frame   0x0000000000003078       0x34 /home/param/.arduino15/packages/arduino/tools/arm-none-eabi-gcc/4.8.3-2014q1/bin/../lib/gcc/arm-none-eabi/4.8.3/../../../../arm-none-eabi/lib/armv7-m/libm.a(lib_a-e_sqrt.o)
 .debug_frame   0x00000000000030ac       0x28 /home/param/.arduino15/packages/arduino/tools/arm-none-eabi-gcc/4.8.3-2014q1/bin/../lib/gcc/arm-none-eabi/4.8.3/../../../../arm-none-eabi/lib/armv7-m/libm.a(lib_a-s_fpclassify.o)
 .debug_frame   0x00000000000030d4       0x20 /home/param/.arduino15/packages/arduino/tools/arm-none-eabi-gcc/4.8.3-2014q1/bin/../lib/gcc/arm-none-eabi/4.8.3/../../../../arm-none-eabi/lib/armv7-m/libm.a(lib_a-s_matherr.o)
 .debug_frame   0x00000000000030f4       0x2c /home/param/.arduino15/packages/arduino/tools/arm-none-eabi-gcc/4.8.3-2014q1/bin/../lib/gcc/arm-none-eabi/4.8.3/armv7-m/libgcc.a(_fixdfdi.o)
 .debug_frame   0x0000000000003120       0x2c /home/param/.arduino15/packages/arduino/tools/arm-none-eabi-gcc/4.8.3-2014q1/bin/../lib/gcc/arm-none-eabi/4.8.3/armv7-m/libgcc.a(_fixunsdfdi.o)
 .debug_frame   0x000000000000314c       0x58 /home/param/.arduino15/packages/arduino/tools/arm-none-eabi-gcc/4.8.3-2014q1/bin/../lib/gcc/arm-none-eabi/4.8.3/armv7-m/libgcc.a(bpabi.o)
 .debug_frame   0x00000000000031a4       0x34 /home/param/.arduino15/packages/arduino/tools/arm-none-eabi-gcc/4.8.3-2014q1/bin/../lib/gcc/arm-none-eabi/4.8.3/armv7-m/libgcc.a(_divdi3.o)
 .debug_frame   0x00000000000031d8       0x34 /home/param/.arduino15/packages/arduino/tools/arm-none-eabi-gcc/4.8.3-2014q1/bin/../lib/gcc/arm-none-eabi/4.8.3/armv7-m/libgcc.a(_udivdi3.o)
 .debug_frame   0x000000000000320c       0x20 /home/param/.arduino15/packages/arduino/tools/arm-none-eabi-gcc/4.8.3-2014q1/bin/../lib/gcc/arm-none-eabi/4.8.3/../../../../arm-none-eabi/lib/armv7-m/libc.a(lib_a-errno.o)
 .debug_frame   0x000000000000322c       0x28 /home/param/.arduino15/packages/arduino/tools/arm-none-eabi-gcc/4.8.3-2014q1/bin/../lib/gcc/arm-none-eabi/4.8.3/../../../../arm-none-eabi/lib/armv7-m/libc.a(lib_a-exit.o)
 .debug_frame   0x0000000000003254       0x2c /home/param/.arduino15/packages/arduino/tools/arm-none-eabi-gcc/4.8.3-2014q1/bin/../lib/gcc/arm-none-eabi/4.8.3/../../../../arm-none-eabi/lib/armv7-m/libc.a(lib_a-init.o)
 .debug_frame   0x0000000000003280       0x2c /home/param/.arduino15/packages/arduino/tools/arm-none-eabi-gcc/4.8.3-2014q1/bin/../lib/gcc/arm-none-eabi/4.8.3/../../../../arm-none-eabi/lib/armv7-m/libc.a(lib_a-memset.o)
 .debug_frame   0x00000000000032ac       0x20 /home/param/.arduino15/packages/arduino/tools/arm-none-eabi-gcc/4.8.3-2014q1/bin/../lib/gcc/arm-none-eabi/4.8.3/../../../../arm-none-eabi/lib/armv7-m/libc.a(lib_a-strcpy.o)
 .debug_frame   0x00000000000032cc       0x20 /home/param/.arduino15/packages/arduino/tools/arm-none-eabi-gcc/4.8.3-2014q1/bin/../lib/gcc/arm-none-eabi/4.8.3/../../../../arm-none-eabi/lib/armv7-m/libc.a(lib_a-strlen.o)
 .debug_frame   0x00000000000032ec       0x48 /home/param/.arduino15/packages/arduino/tools/arm-none-eabi-gcc/4.8.3-2014q1/bin/../lib/gcc/arm-none-eabi/4.8.3/../../../../arm-none-eabi/lib/armv7-m/libc.a(lib_a-__call_atexit.o)
 .debug_frame   0x0000000000003334       0x20 /home/param/.arduino15/packages/arduino/tools/arm-none-eabi-gcc/4.8.3-2014q1/bin/../lib/gcc/arm-none-eabi/4.8.3/../../../../arm-none-eabi/lib/armv7-m/libc.a(lib_a-atexit.o)
 .debug_frame   0x0000000000003354       0x2c /home/param/.arduino15/packages/arduino/tools/arm-none-eabi-gcc/4.8.3-2014q1/bin/../lib/gcc/arm-none-eabi/4.8.3/../../../../arm-none-eabi/lib/armv7-m/libc.a(lib_a-fini.o)
 .debug_frame   0x0000000000003380       0x30 /home/param/.arduino15/packages/arduino/tools/arm-none-eabi-gcc/4.8.3-2014q1/bin/../lib/gcc/arm-none-eabi/4.8.3/../../../../arm-none-eabi/lib/armv7-m/libc.a(lib_a-__atexit.o)

.debug_str      0x0000000000000000     0xa906
 *(.debug_str)
 .debug_str     0x0000000000000000     0x2d52 /mnt/Workspace/drone_parachute/build/sketch/main.ino.cpp.o
                                       0x2f20 (size before relaxing)
 .debug_str     0x0000000000002d52      0x5d8 /mnt/Workspace/drone_parachute/build/libraries/Bolder_Flight_Systems_MPU9250/MPU9250.cpp.o
                                       0x2e58 (size before relaxing)
 .debug_str     0x000000000000332a      0x483 /mnt/Workspace/drone_parachute/build/libraries/Wire/SoftWire.cpp.o
                                       0x1050 (size before relaxing)
 .debug_str     0x00000000000037ad      0x178 /mnt/Workspace/drone_parachute/build/libraries/Wire/Wire.cpp.o
                                        0xd12 (size before relaxing)
 .debug_str     0x0000000000003925      0x200 /mnt/Workspace/drone_parachute/build/libraries/Wire/utility/WireBase.cpp.o
                                        0xdf7 (size before relaxing)
 .debug_str     0x0000000000003b25      0x64d /mnt/Workspace/drone_parachute/build/libraries/SPI/SPI.cpp.o
                                       0x1c82 (size before relaxing)
 .debug_str     0x0000000000004172      0x130 /mnt/Workspace/drone_parachute/build/libraries/Servo/Servo.cpp.o
                                        0xe38 (size before relaxing)
 .debug_str     0x00000000000042a2      0x1b5 /mnt/Workspace/drone_parachute/build/core/wirish/start_c.c.o
                                        0x1ee (size before relaxing)
 .debug_str     0x0000000000004457      0x1d1 /mnt/Workspace/drone_parachute/build/core/wirish/syscalls.c.o
                                        0x37f (size before relaxing)
 .debug_str     0x0000000000004628      0x1d3 /mnt/Workspace/drone_parachute/build/core/board.cpp.o
                                        0xd3e (size before relaxing)
 .debug_str     0x00000000000047fb      0x702 /mnt/Workspace/drone_parachute/build/core/wirish/boards.cpp.o
                                       0x1148 (size before relaxing)
 .debug_str     0x0000000000004efd      0x458 /mnt/Workspace/drone_parachute/build/core/wirish/boards_setup.cpp.o
                                        0xb2d (size before relaxing)
 .debug_str     0x0000000000005355      0x223 /mnt/Workspace/drone_parachute/build/core/core.a(adc.c.o)
                                        0xac7 (size before relaxing)
 .debug_str     0x0000000000005578      0x1ff /mnt/Workspace/drone_parachute/build/core/core.a(adc_f1.c.o)
                                        0xde2 (size before relaxing)
 .debug_str     0x0000000000005777      0x176 /mnt/Workspace/drone_parachute/build/core/core.a(dma.c.o)
                                        0xa4a (size before relaxing)
 .debug_str     0x00000000000058ed      0x85d /mnt/Workspace/drone_parachute/build/core/core.a(dma_f1.c.o)
                                       0x13a4 (size before relaxing)
 .debug_str     0x000000000000614a      0x226 /mnt/Workspace/drone_parachute/build/core/core.a(exti.c.o)
                                        0x931 (size before relaxing)
 .debug_str     0x0000000000006370       0xa3 /mnt/Workspace/drone_parachute/build/core/core.a(exti_f1.c.o)
                                        0x2ec (size before relaxing)
 .debug_str     0x0000000000006413       0x70 /mnt/Workspace/drone_parachute/build/core/core.a(flash.c.o)
                                        0x20b (size before relaxing)
 .debug_str     0x0000000000006483      0x2aa /mnt/Workspace/drone_parachute/build/core/core.a(gpio_f1.c.o)
                                        0x7c3 (size before relaxing)
 .debug_str     0x000000000000672d      0x27e /mnt/Workspace/drone_parachute/build/core/core.a(i2c.c.o)
                                        0xfc6 (size before relaxing)
 .debug_str     0x00000000000069ab       0xce /mnt/Workspace/drone_parachute/build/core/core.a(i2c_f1.c.o)
                                        0xdbd (size before relaxing)
 .debug_str     0x0000000000006a79       0xdf /mnt/Workspace/drone_parachute/build/core/core.a(nvic.c.o)
                                        0x714 (size before relaxing)
 .debug_str     0x0000000000006b58       0xc8 /mnt/Workspace/drone_parachute/build/core/core.a(rcc.c.o)
                                        0x560 (size before relaxing)
 .debug_str     0x0000000000006c20       0xf7 /mnt/Workspace/drone_parachute/build/core/core.a(rcc_f1.c.o)
                                        0x81a (size before relaxing)
 .debug_str     0x0000000000006d17      0x10a /mnt/Workspace/drone_parachute/build/core/core.a(spi.c.o)
                                        0xb93 (size before relaxing)
 .debug_str     0x0000000000006e21       0xae /mnt/Workspace/drone_parachute/build/core/core.a(spi_f1.c.o)
                                        0x9b9 (size before relaxing)
 .debug_str     0x0000000000006ecf       0xdc /mnt/Workspace/drone_parachute/build/core/core.a(systick.c.o)
                                        0x271 (size before relaxing)
 .debug_str     0x0000000000006fab      0x362 /mnt/Workspace/drone_parachute/build/core/core.a(timer.c.o)
                                        0xec5 (size before relaxing)
 .debug_str     0x000000000000730d      0x19f /mnt/Workspace/drone_parachute/build/core/core.a(usart_f1.c.o)
                                        0xad6 (size before relaxing)
 .debug_str     0x00000000000074ac       0x6c /mnt/Workspace/drone_parachute/build/core/core.a(usart_private.c.o)
                                        0x896 (size before relaxing)
 .debug_str     0x0000000000007518      0x60e /mnt/Workspace/drone_parachute/build/core/core.a(usb.c.o)
                                        0xa79 (size before relaxing)
 .debug_str     0x0000000000007b26      0x991 /mnt/Workspace/drone_parachute/build/core/core.a(usb_cdcacm.c.o)
                                       0x183f (size before relaxing)
 .debug_str     0x00000000000084b7       0x99 /mnt/Workspace/drone_parachute/build/core/core.a(usb_reg_map.c.o)
                                        0x294 (size before relaxing)
 .debug_str     0x0000000000008550      0x499 /mnt/Workspace/drone_parachute/build/core/core.a(usb_core.c.o)
                                        0xacc (size before relaxing)
 .debug_str     0x00000000000089e9       0x9e /mnt/Workspace/drone_parachute/build/core/core.a(usb_init.c.o)
                                        0x530 (size before relaxing)
 .debug_str     0x0000000000008a87       0xaa /mnt/Workspace/drone_parachute/build/core/core.a(usb_mem.c.o)
                                        0x1ee (size before relaxing)
 .debug_str     0x0000000000008b31      0x3e3 /mnt/Workspace/drone_parachute/build/core/core.a(usb_regs.c.o)
                                        0x56e (size before relaxing)
 .debug_str     0x0000000000008f14      0x106 /mnt/Workspace/drone_parachute/build/core/core.a(util.c.o)
                                        0xa43 (size before relaxing)
 .debug_str     0x000000000000901a      0xf55 /mnt/Workspace/drone_parachute/build/core/core.a(HardwareSerial.cpp.o)
                                       0x1c1b (size before relaxing)
 .debug_str     0x0000000000009f6f      0x3c0 /mnt/Workspace/drone_parachute/build/core/core.a(Print.cpp.o)
                                        0xfe9 (size before relaxing)
 .debug_str     0x000000000000a32f      0x165 /mnt/Workspace/drone_parachute/build/core/core.a(cxxabi-compat.cpp.o)
                                        0x3a8 (size before relaxing)
 .debug_str     0x000000000000a494       0x70 /mnt/Workspace/drone_parachute/build/core/core.a(main.cpp.o)
                                        0x1b4 (size before relaxing)
 .debug_str     0x000000000000a504       0x90 /mnt/Workspace/drone_parachute/build/core/core.a(pwm.cpp.o)
                                        0xb79 (size before relaxing)
 .debug_str     0x000000000000a594       0x7c /mnt/Workspace/drone_parachute/build/core/core.a(wirish_digital_f1.cpp.o)
                                        0xc6e (size before relaxing)
 .debug_str     0x000000000000a610       0x65 /mnt/Workspace/drone_parachute/build/core/core.a(wirish_analog.cpp.o)
                                        0xa8e (size before relaxing)
 .debug_str     0x000000000000a675       0x66 /mnt/Workspace/drone_parachute/build/core/core.a(wirish_digital.cpp.o)
                                        0xad4 (size before relaxing)
 .debug_str     0x000000000000a6db       0xb5 /mnt/Workspace/drone_parachute/build/core/core.a(wirish_time.cpp.o)
                                        0x367 (size before relaxing)
 .debug_str     0x000000000000a790       0x63 /mnt/Workspace/drone_parachute/build/core/core.a(hooks.c.o)
                                        0x12d (size before relaxing)
 .debug_str     0x000000000000a7f3       0x63 /mnt/Workspace/drone_parachute/build/core/core.a(gpio.c.o)
                                        0x44f (size before relaxing)
 .debug_str     0x000000000000a856       0xb0 /mnt/Workspace/drone_parachute/build/core/core.a(usart.c.o)
                                        0x9d7 (size before relaxing)

.debug_loc      0x0000000000000000     0xc6fc
 *(.debug_loc)
 .debug_loc     0x0000000000000000     0x1560 /mnt/Workspace/drone_parachute/build/libraries/Bolder_Flight_Systems_MPU9250/MPU9250.cpp.o
 .debug_loc     0x0000000000001560      0x50c /mnt/Workspace/drone_parachute/build/libraries/Wire/SoftWire.cpp.o
 .debug_loc     0x0000000000001a6c      0x219 /mnt/Workspace/drone_parachute/build/libraries/Wire/Wire.cpp.o
 .debug_loc     0x0000000000001c85      0x488 /mnt/Workspace/drone_parachute/build/libraries/Wire/utility/WireBase.cpp.o
 .debug_loc     0x000000000000210d     0x125e /mnt/Workspace/drone_parachute/build/libraries/SPI/SPI.cpp.o
 .debug_loc     0x000000000000336b      0x66c /mnt/Workspace/drone_parachute/build/libraries/Servo/Servo.cpp.o
 .debug_loc     0x00000000000039d7       0x87 /mnt/Workspace/drone_parachute/build/core/wirish/start_c.c.o
 .debug_loc     0x0000000000003a5e      0x38a /mnt/Workspace/drone_parachute/build/core/wirish/syscalls.c.o
 .debug_loc     0x0000000000003de8      0x246 /mnt/Workspace/drone_parachute/build/core/wirish/boards.cpp.o
 .debug_loc     0x000000000000402e      0x145 /mnt/Workspace/drone_parachute/build/core/core.a(adc.c.o)
 .debug_loc     0x0000000000004173      0x2c7 /mnt/Workspace/drone_parachute/build/core/core.a(adc_f1.c.o)
 .debug_loc     0x000000000000443a       0x42 /mnt/Workspace/drone_parachute/build/core/core.a(dma.c.o)
 .debug_loc     0x000000000000447c      0xce5 /mnt/Workspace/drone_parachute/build/core/core.a(dma_f1.c.o)
 .debug_loc     0x0000000000005161      0x5c0 /mnt/Workspace/drone_parachute/build/core/core.a(exti.c.o)
 .debug_loc     0x0000000000005721       0x42 /mnt/Workspace/drone_parachute/build/core/core.a(exti_f1.c.o)
 .debug_loc     0x0000000000005763       0x3f /mnt/Workspace/drone_parachute/build/core/core.a(flash.c.o)
 .debug_loc     0x00000000000057a2      0x267 /mnt/Workspace/drone_parachute/build/core/core.a(gpio_f1.c.o)
 .debug_loc     0x0000000000005a09      0xc47 /mnt/Workspace/drone_parachute/build/core/core.a(i2c.c.o)
 .debug_loc     0x0000000000006650      0x1b9 /mnt/Workspace/drone_parachute/build/core/core.a(i2c_f1.c.o)
 .debug_loc     0x0000000000006809      0x121 /mnt/Workspace/drone_parachute/build/core/core.a(nvic.c.o)
 .debug_loc     0x000000000000692a      0x131 /mnt/Workspace/drone_parachute/build/core/core.a(rcc.c.o)
 .debug_loc     0x0000000000006a5b      0x34b /mnt/Workspace/drone_parachute/build/core/core.a(rcc_f1.c.o)
 .debug_loc     0x0000000000006da6      0x387 /mnt/Workspace/drone_parachute/build/core/core.a(spi.c.o)
 .debug_loc     0x000000000000712d      0x19f /mnt/Workspace/drone_parachute/build/core/core.a(spi_f1.c.o)
 .debug_loc     0x00000000000072cc      0xbc7 /mnt/Workspace/drone_parachute/build/core/core.a(timer.c.o)
 .debug_loc     0x0000000000007e93      0x2e8 /mnt/Workspace/drone_parachute/build/core/core.a(usart_f1.c.o)
 .debug_loc     0x000000000000817b       0x3f /mnt/Workspace/drone_parachute/build/core/core.a(usart_private.c.o)
 .debug_loc     0x00000000000081ba      0x4fc /mnt/Workspace/drone_parachute/build/core/core.a(usb.c.o)
 .debug_loc     0x00000000000086b6      0xaab /mnt/Workspace/drone_parachute/build/core/core.a(usb_cdcacm.c.o)
 .debug_loc     0x0000000000009161      0x119 /mnt/Workspace/drone_parachute/build/core/core.a(usb_reg_map.c.o)
 .debug_loc     0x000000000000927a      0x7a1 /mnt/Workspace/drone_parachute/build/core/core.a(usb_core.c.o)
 .debug_loc     0x0000000000009a1b      0x260 /mnt/Workspace/drone_parachute/build/core/core.a(usb_mem.c.o)
 .debug_loc     0x0000000000009c7b      0xbab /mnt/Workspace/drone_parachute/build/core/core.a(usb_regs.c.o)
 .debug_loc     0x000000000000a826      0x27f /mnt/Workspace/drone_parachute/build/core/core.a(util.c.o)
 .debug_loc     0x000000000000aaa5      0x39a /mnt/Workspace/drone_parachute/build/core/core.a(HardwareSerial.cpp.o)
 .debug_loc     0x000000000000ae3f     0x10a7 /mnt/Workspace/drone_parachute/build/core/core.a(Print.cpp.o)
 .debug_loc     0x000000000000bee6       0x81 /mnt/Workspace/drone_parachute/build/core/core.a(cxxabi-compat.cpp.o)
 .debug_loc     0x000000000000bf67      0x114 /mnt/Workspace/drone_parachute/build/core/core.a(pwm.cpp.o)
 .debug_loc     0x000000000000c07b      0x169 /mnt/Workspace/drone_parachute/build/core/core.a(wirish_digital_f1.cpp.o)
 .debug_loc     0x000000000000c1e4       0x3f /mnt/Workspace/drone_parachute/build/core/core.a(wirish_analog.cpp.o)
 .debug_loc     0x000000000000c223       0x7c /mnt/Workspace/drone_parachute/build/core/core.a(wirish_digital.cpp.o)
 .debug_loc     0x000000000000c29f       0x82 /mnt/Workspace/drone_parachute/build/core/core.a(wirish_time.cpp.o)
 .debug_loc     0x000000000000c321       0x2c /mnt/Workspace/drone_parachute/build/core/core.a(gpio.c.o)
 .debug_loc     0x000000000000c34d      0x3af /mnt/Workspace/drone_parachute/build/core/core.a(usart.c.o)

.debug_macinfo
 *(.debug_macinfo)

.debug_weaknames
 *(.debug_weaknames)

.debug_funcnames
 *(.debug_funcnames)

.debug_typenames
 *(.debug_typenames)

.debug_varnames
 *(.debug_varnames)

.note.gnu.arm.ident
 *(.note.gnu.arm.ident)

.ARM.attributes
                0x0000000000000000       0x29
 *(.ARM.attributes)
 .ARM.attributes
                0x0000000000000000       0x1d /home/param/.arduino15/packages/arduino/tools/arm-none-eabi-gcc/4.8.3-2014q1/bin/../lib/gcc/arm-none-eabi/4.8.3/armv7-m/crti.o
 .ARM.attributes
                0x000000000000001d       0x2d /home/param/.arduino15/packages/arduino/tools/arm-none-eabi-gcc/4.8.3-2014q1/bin/../lib/gcc/arm-none-eabi/4.8.3/armv7-m/crtbegin.o
 .ARM.attributes
                0x000000000000004a       0x1b /home/param/.arduino15/packages/arduino/tools/arm-none-eabi-gcc/4.8.3-2014q1/bin/../lib/gcc/arm-none-eabi/4.8.3/../../../../arm-none-eabi/lib/armv7-m/crt0.o
 .ARM.attributes
                0x0000000000000065       0x33 /mnt/Workspace/drone_parachute/build/sketch/main.ino.cpp.o
 .ARM.attributes
                0x0000000000000098       0x33 /mnt/Workspace/drone_parachute/build/libraries/Bolder_Flight_Systems_MPU9250/MPU9250.cpp.o
 .ARM.attributes
                0x00000000000000cb       0x33 /mnt/Workspace/drone_parachute/build/libraries/Wire/SoftWire.cpp.o
 .ARM.attributes
                0x00000000000000fe       0x33 /mnt/Workspace/drone_parachute/build/libraries/Wire/Wire.cpp.o
 .ARM.attributes
                0x0000000000000131       0x33 /mnt/Workspace/drone_parachute/build/libraries/Wire/utility/WireBase.cpp.o
 .ARM.attributes
                0x0000000000000164       0x33 /mnt/Workspace/drone_parachute/build/libraries/SPI/SPI.cpp.o
 .ARM.attributes
                0x0000000000000197       0x33 /mnt/Workspace/drone_parachute/build/libraries/Servo/Servo.cpp.o
 .ARM.attributes
                0x00000000000001ca       0x1b /mnt/Workspace/drone_parachute/build/core/wirish/start.S.o
 .ARM.attributes
                0x00000000000001e5       0x33 /mnt/Workspace/drone_parachute/build/core/wirish/start_c.c.o
 .ARM.attributes
                0x0000000000000218       0x33 /mnt/Workspace/drone_parachute/build/core/wirish/syscalls.c.o
 .ARM.attributes
                0x000000000000024b       0x33 /mnt/Workspace/drone_parachute/build/core/board.cpp.o
 .ARM.attributes
                0x000000000000027e       0x33 /mnt/Workspace/drone_parachute/build/core/wirish/boards.cpp.o
 .ARM.attributes
                0x00000000000002b1       0x33 /mnt/Workspace/drone_parachute/build/core/wirish/boards_setup.cpp.o
 .ARM.attributes
                0x00000000000002e4       0x1b /mnt/Workspace/drone_parachute/build/core/core.a(exc.S.o)
 .ARM.attributes
                0x00000000000002ff       0x1b /mnt/Workspace/drone_parachute/build/core/core.a(isrs.S.o)
 .ARM.attributes
                0x000000000000031a       0x1b /mnt/Workspace/drone_parachute/build/core/core.a(vector_table.S.o)
 .ARM.attributes
                0x0000000000000335       0x33 /mnt/Workspace/drone_parachute/build/core/core.a(adc.c.o)
 .ARM.attributes
                0x0000000000000368       0x33 /mnt/Workspace/drone_parachute/build/core/core.a(adc_f1.c.o)
 .ARM.attributes
                0x000000000000039b       0x33 /mnt/Workspace/drone_parachute/build/core/core.a(dma.c.o)
 .ARM.attributes
                0x00000000000003ce       0x33 /mnt/Workspace/drone_parachute/build/core/core.a(dma_f1.c.o)
 .ARM.attributes
                0x0000000000000401       0x33 /mnt/Workspace/drone_parachute/build/core/core.a(exti.c.o)
 .ARM.attributes
                0x0000000000000434       0x33 /mnt/Workspace/drone_parachute/build/core/core.a(exti_f1.c.o)
 .ARM.attributes
                0x0000000000000467       0x33 /mnt/Workspace/drone_parachute/build/core/core.a(flash.c.o)
 .ARM.attributes
                0x000000000000049a       0x33 /mnt/Workspace/drone_parachute/build/core/core.a(gpio_f1.c.o)
 .ARM.attributes
                0x00000000000004cd       0x33 /mnt/Workspace/drone_parachute/build/core/core.a(i2c.c.o)
 .ARM.attributes
                0x0000000000000500       0x33 /mnt/Workspace/drone_parachute/build/core/core.a(i2c_f1.c.o)
 .ARM.attributes
                0x0000000000000533       0x33 /mnt/Workspace/drone_parachute/build/core/core.a(nvic.c.o)
 .ARM.attributes
                0x0000000000000566       0x33 /mnt/Workspace/drone_parachute/build/core/core.a(rcc.c.o)
 .ARM.attributes
                0x0000000000000599       0x33 /mnt/Workspace/drone_parachute/build/core/core.a(rcc_f1.c.o)
 .ARM.attributes
                0x00000000000005cc       0x33 /mnt/Workspace/drone_parachute/build/core/core.a(spi.c.o)
 .ARM.attributes
                0x00000000000005ff       0x33 /mnt/Workspace/drone_parachute/build/core/core.a(spi_f1.c.o)
 .ARM.attributes
                0x0000000000000632       0x33 /mnt/Workspace/drone_parachute/build/core/core.a(systick.c.o)
 .ARM.attributes
                0x0000000000000665       0x33 /mnt/Workspace/drone_parachute/build/core/core.a(timer.c.o)
 .ARM.attributes
                0x0000000000000698       0x33 /mnt/Workspace/drone_parachute/build/core/core.a(usart_f1.c.o)
 .ARM.attributes
                0x00000000000006cb       0x33 /mnt/Workspace/drone_parachute/build/core/core.a(usart_private.c.o)
 .ARM.attributes
                0x00000000000006fe       0x33 /mnt/Workspace/drone_parachute/build/core/core.a(usb.c.o)
 .ARM.attributes
                0x0000000000000731       0x33 /mnt/Workspace/drone_parachute/build/core/core.a(usb_cdcacm.c.o)
 .ARM.attributes
                0x0000000000000764       0x33 /mnt/Workspace/drone_parachute/build/core/core.a(usb_reg_map.c.o)
 .ARM.attributes
                0x0000000000000797       0x33 /mnt/Workspace/drone_parachute/build/core/core.a(usb_core.c.o)
 .ARM.attributes
                0x00000000000007ca       0x33 /mnt/Workspace/drone_parachute/build/core/core.a(usb_init.c.o)
 .ARM.attributes
                0x00000000000007fd       0x33 /mnt/Workspace/drone_parachute/build/core/core.a(usb_mem.c.o)
 .ARM.attributes
                0x0000000000000830       0x33 /mnt/Workspace/drone_parachute/build/core/core.a(usb_regs.c.o)
 .ARM.attributes
                0x0000000000000863       0x33 /mnt/Workspace/drone_parachute/build/core/core.a(util.c.o)
 .ARM.attributes
                0x0000000000000896       0x33 /mnt/Workspace/drone_parachute/build/core/core.a(HardwareSerial.cpp.o)
 .ARM.attributes
                0x00000000000008c9       0x33 /mnt/Workspace/drone_parachute/build/core/core.a(Print.cpp.o)
 .ARM.attributes
                0x00000000000008fc       0x33 /mnt/Workspace/drone_parachute/build/core/core.a(cxxabi-compat.cpp.o)
 .ARM.attributes
                0x000000000000092f       0x33 /mnt/Workspace/drone_parachute/build/core/core.a(main.cpp.o)
 .ARM.attributes
                0x0000000000000962       0x33 /mnt/Workspace/drone_parachute/build/core/core.a(pwm.cpp.o)
 .ARM.attributes
                0x0000000000000995       0x33 /mnt/Workspace/drone_parachute/build/core/core.a(wirish_digital_f1.cpp.o)
 .ARM.attributes
                0x00000000000009c8       0x33 /mnt/Workspace/drone_parachute/build/core/core.a(wirish_analog.cpp.o)
 .ARM.attributes
                0x00000000000009fb       0x33 /mnt/Workspace/drone_parachute/build/core/core.a(wirish_digital.cpp.o)
 .ARM.attributes
                0x0000000000000a2e       0x33 /mnt/Workspace/drone_parachute/build/core/core.a(wirish_time.cpp.o)
 .ARM.attributes
                0x0000000000000a61       0x33 /mnt/Workspace/drone_parachute/build/core/core.a(hooks.c.o)
 .ARM.attributes
                0x0000000000000a94       0x33 /mnt/Workspace/drone_parachute/build/core/core.a(gpio.c.o)
 .ARM.attributes
                0x0000000000000ac7       0x33 /mnt/Workspace/drone_parachute/build/core/core.a(usart.c.o)
 .ARM.attributes
                0x0000000000000afa       0x2d /home/param/.arduino15/packages/arduino/tools/arm-none-eabi-gcc/4.8.3-2014q1/bin/../lib/gcc/arm-none-eabi/4.8.3/../../../../arm-none-eabi/lib/armv7-m/libm.a(lib_a-w_sqrt.o)
 .ARM.attributes
                0x0000000000000b27       0x2d /home/param/.arduino15/packages/arduino/tools/arm-none-eabi-gcc/4.8.3-2014q1/bin/../lib/gcc/arm-none-eabi/4.8.3/../../../../arm-none-eabi/lib/armv7-m/libm.a(lib_a-e_sqrt.o)
 .ARM.attributes
                0x0000000000000b54       0x2d /home/param/.arduino15/packages/arduino/tools/arm-none-eabi-gcc/4.8.3-2014q1/bin/../lib/gcc/arm-none-eabi/4.8.3/../../../../arm-none-eabi/lib/armv7-m/libm.a(lib_a-s_fpclassify.o)
 .ARM.attributes
                0x0000000000000b81       0x2d /home/param/.arduino15/packages/arduino/tools/arm-none-eabi-gcc/4.8.3-2014q1/bin/../lib/gcc/arm-none-eabi/4.8.3/../../../../arm-none-eabi/lib/armv7-m/libm.a(lib_a-s_lib_ver.o)
 .ARM.attributes
                0x0000000000000bae       0x2d /home/param/.arduino15/packages/arduino/tools/arm-none-eabi-gcc/4.8.3-2014q1/bin/../lib/gcc/arm-none-eabi/4.8.3/../../../../arm-none-eabi/lib/armv7-m/libm.a(lib_a-s_matherr.o)
 .ARM.attributes
                0x0000000000000bdb       0x1d /home/param/.arduino15/packages/arduino/tools/arm-none-eabi-gcc/4.8.3-2014q1/bin/../lib/gcc/arm-none-eabi/4.8.3/armv7-m/libgcc.a(_arm_addsubdf3.o)
 .ARM.attributes
                0x0000000000000bf8       0x1d /home/param/.arduino15/packages/arduino/tools/arm-none-eabi-gcc/4.8.3-2014q1/bin/../lib/gcc/arm-none-eabi/4.8.3/armv7-m/libgcc.a(_arm_muldivdf3.o)
 .ARM.attributes
                0x0000000000000c15       0x1d /home/param/.arduino15/packages/arduino/tools/arm-none-eabi-gcc/4.8.3-2014q1/bin/../lib/gcc/arm-none-eabi/4.8.3/armv7-m/libgcc.a(_arm_cmpdf2.o)
 .ARM.attributes
                0x0000000000000c32       0x1d /home/param/.arduino15/packages/arduino/tools/arm-none-eabi-gcc/4.8.3-2014q1/bin/../lib/gcc/arm-none-eabi/4.8.3/armv7-m/libgcc.a(_arm_fixdfsi.o)
 .ARM.attributes
                0x0000000000000c4f       0x1d /home/param/.arduino15/packages/arduino/tools/arm-none-eabi-gcc/4.8.3-2014q1/bin/../lib/gcc/arm-none-eabi/4.8.3/armv7-m/libgcc.a(_arm_truncdfsf2.o)
 .ARM.attributes
                0x0000000000000c6c       0x1d /home/param/.arduino15/packages/arduino/tools/arm-none-eabi-gcc/4.8.3-2014q1/bin/../lib/gcc/arm-none-eabi/4.8.3/armv7-m/libgcc.a(_arm_addsubsf3.o)
 .ARM.attributes
                0x0000000000000c89       0x1d /home/param/.arduino15/packages/arduino/tools/arm-none-eabi-gcc/4.8.3-2014q1/bin/../lib/gcc/arm-none-eabi/4.8.3/armv7-m/libgcc.a(_arm_muldivsf3.o)
 .ARM.attributes
                0x0000000000000ca6       0x1d /home/param/.arduino15/packages/arduino/tools/arm-none-eabi-gcc/4.8.3-2014q1/bin/../lib/gcc/arm-none-eabi/4.8.3/armv7-m/libgcc.a(_arm_cmpsf2.o)
 .ARM.attributes
                0x0000000000000cc3       0x1d /home/param/.arduino15/packages/arduino/tools/arm-none-eabi-gcc/4.8.3-2014q1/bin/../lib/gcc/arm-none-eabi/4.8.3/armv7-m/libgcc.a(_arm_fixsfsi.o)
 .ARM.attributes
                0x0000000000000ce0       0x1d /home/param/.arduino15/packages/arduino/tools/arm-none-eabi-gcc/4.8.3-2014q1/bin/../lib/gcc/arm-none-eabi/4.8.3/armv7-m/libgcc.a(_aeabi_ldivmod.o)
 .ARM.attributes
                0x0000000000000cfd       0x1d /home/param/.arduino15/packages/arduino/tools/arm-none-eabi-gcc/4.8.3-2014q1/bin/../lib/gcc/arm-none-eabi/4.8.3/armv7-m/libgcc.a(_aeabi_uldivmod.o)
 .ARM.attributes
                0x0000000000000d1a       0x2d /home/param/.arduino15/packages/arduino/tools/arm-none-eabi-gcc/4.8.3-2014q1/bin/../lib/gcc/arm-none-eabi/4.8.3/armv7-m/libgcc.a(_fixdfdi.o)
 .ARM.attributes
                0x0000000000000d47       0x2d /home/param/.arduino15/packages/arduino/tools/arm-none-eabi-gcc/4.8.3-2014q1/bin/../lib/gcc/arm-none-eabi/4.8.3/armv7-m/libgcc.a(_fixunsdfdi.o)
 .ARM.attributes
                0x0000000000000d74       0x2d /home/param/.arduino15/packages/arduino/tools/arm-none-eabi-gcc/4.8.3-2014q1/bin/../lib/gcc/arm-none-eabi/4.8.3/armv7-m/libgcc.a(bpabi.o)
 .ARM.attributes
                0x0000000000000da1       0x1d /home/param/.arduino15/packages/arduino/tools/arm-none-eabi-gcc/4.8.3-2014q1/bin/../lib/gcc/arm-none-eabi/4.8.3/armv7-m/libgcc.a(_dvmd_tls.o)
 .ARM.attributes
                0x0000000000000dbe       0x1d /home/param/.arduino15/packages/arduino/tools/arm-none-eabi-gcc/4.8.3-2014q1/bin/../lib/gcc/arm-none-eabi/4.8.3/armv7-m/libgcc.a(_arm_fixunsdfsi.o)
 .ARM.attributes
                0x0000000000000ddb       0x2d /home/param/.arduino15/packages/arduino/tools/arm-none-eabi-gcc/4.8.3-2014q1/bin/../lib/gcc/arm-none-eabi/4.8.3/armv7-m/libgcc.a(_divdi3.o)
 .ARM.attributes
                0x0000000000000e08       0x2d /home/param/.arduino15/packages/arduino/tools/arm-none-eabi-gcc/4.8.3-2014q1/bin/../lib/gcc/arm-none-eabi/4.8.3/armv7-m/libgcc.a(_udivdi3.o)
 .ARM.attributes
                0x0000000000000e35       0x2d /home/param/.arduino15/packages/arduino/tools/arm-none-eabi-gcc/4.8.3-2014q1/bin/../lib/gcc/arm-none-eabi/4.8.3/../../../../arm-none-eabi/lib/armv7-m/libc.a(lib_a-errno.o)
 .ARM.attributes
                0x0000000000000e62       0x2d /home/param/.arduino15/packages/arduino/tools/arm-none-eabi-gcc/4.8.3-2014q1/bin/../lib/gcc/arm-none-eabi/4.8.3/../../../../arm-none-eabi/lib/armv7-m/libc.a(lib_a-exit.o)
 .ARM.attributes
                0x0000000000000e8f       0x2d /home/param/.arduino15/packages/arduino/tools/arm-none-eabi-gcc/4.8.3-2014q1/bin/../lib/gcc/arm-none-eabi/4.8.3/../../../../arm-none-eabi/lib/armv7-m/libc.a(lib_a-impure.o)
 .ARM.attributes
                0x0000000000000ebc       0x2d /home/param/.arduino15/packages/arduino/tools/arm-none-eabi-gcc/4.8.3-2014q1/bin/../lib/gcc/arm-none-eabi/4.8.3/../../../../arm-none-eabi/lib/armv7-m/libc.a(lib_a-init.o)
 .ARM.attributes
                0x0000000000000ee9       0x1b /home/param/.arduino15/packages/arduino/tools/arm-none-eabi-gcc/4.8.3-2014q1/bin/../lib/gcc/arm-none-eabi/4.8.3/../../../../arm-none-eabi/lib/armv7-m/libc.a(lib_a-memcpy.o)
 .ARM.attributes
                0x0000000000000f04       0x2d /home/param/.arduino15/packages/arduino/tools/arm-none-eabi-gcc/4.8.3-2014q1/bin/../lib/gcc/arm-none-eabi/4.8.3/../../../../arm-none-eabi/lib/armv7-m/libc.a(lib_a-memset.o)
 .ARM.attributes
                0x0000000000000f31       0x2d /home/param/.arduino15/packages/arduino/tools/arm-none-eabi-gcc/4.8.3-2014q1/bin/../lib/gcc/arm-none-eabi/4.8.3/../../../../arm-none-eabi/lib/armv7-m/libc.a(lib_a-strcpy.o)
 .ARM.attributes
                0x0000000000000f5e       0x2d /home/param/.arduino15/packages/arduino/tools/arm-none-eabi-gcc/4.8.3-2014q1/bin/../lib/gcc/arm-none-eabi/4.8.3/../../../../arm-none-eabi/lib/armv7-m/libc.a(lib_a-strlen.o)
 .ARM.attributes
                0x0000000000000f8b       0x2d /home/param/.arduino15/packages/arduino/tools/arm-none-eabi-gcc/4.8.3-2014q1/bin/../lib/gcc/arm-none-eabi/4.8.3/../../../../arm-none-eabi/lib/armv7-m/libc.a(lib_a-__call_atexit.o)
 .ARM.attributes
                0x0000000000000fb8       0x2d /home/param/.arduino15/packages/arduino/tools/arm-none-eabi-gcc/4.8.3-2014q1/bin/../lib/gcc/arm-none-eabi/4.8.3/../../../../arm-none-eabi/lib/armv7-m/libc.a(lib_a-atexit.o)
 .ARM.attributes
                0x0000000000000fe5       0x2d /home/param/.arduino15/packages/arduino/tools/arm-none-eabi-gcc/4.8.3-2014q1/bin/../lib/gcc/arm-none-eabi/4.8.3/../../../../arm-none-eabi/lib/armv7-m/libc.a(lib_a-fini.o)
 .ARM.attributes
                0x0000000000001012       0x2d /home/param/.arduino15/packages/arduino/tools/arm-none-eabi-gcc/4.8.3-2014q1/bin/../lib/gcc/arm-none-eabi/4.8.3/../../../../arm-none-eabi/lib/armv7-m/libc.a(lib_a-__atexit.o)
 .ARM.attributes
                0x000000000000103f       0x2d /home/param/.arduino15/packages/arduino/tools/arm-none-eabi-gcc/4.8.3-2014q1/bin/../lib/gcc/arm-none-eabi/4.8.3/armv7-m/crtend.o
 .ARM.attributes
                0x000000000000106c       0x1d /home/param/.arduino15/packages/arduino/tools/arm-none-eabi-gcc/4.8.3-2014q1/bin/../lib/gcc/arm-none-eabi/4.8.3/armv7-m/crtn.o

/DISCARD/
 *(.note.GNU-stack)
OUTPUT(/mnt/Workspace/drone_parachute/build/main.ino.elf elf32-littlearm)

.debug_ranges   0x0000000000000000     0x2638
 .debug_ranges  0x0000000000000000       0xa0 /mnt/Workspace/drone_parachute/build/sketch/main.ino.cpp.o
 .debug_ranges  0x00000000000000a0      0x278 /mnt/Workspace/drone_parachute/build/libraries/Bolder_Flight_Systems_MPU9250/MPU9250.cpp.o
 .debug_ranges  0x0000000000000318      0x140 /mnt/Workspace/drone_parachute/build/libraries/Wire/SoftWire.cpp.o
 .debug_ranges  0x0000000000000458       0x70 /mnt/Workspace/drone_parachute/build/libraries/Wire/Wire.cpp.o
 .debug_ranges  0x00000000000004c8       0x90 /mnt/Workspace/drone_parachute/build/libraries/Wire/utility/WireBase.cpp.o
 .debug_ranges  0x0000000000000558      0x528 /mnt/Workspace/drone_parachute/build/libraries/SPI/SPI.cpp.o
 .debug_ranges  0x0000000000000a80       0xd8 /mnt/Workspace/drone_parachute/build/libraries/Servo/Servo.cpp.o
 .debug_ranges  0x0000000000000b58       0x10 /mnt/Workspace/drone_parachute/build/core/wirish/start_c.c.o
 .debug_ranges  0x0000000000000b68       0x78 /mnt/Workspace/drone_parachute/build/core/wirish/syscalls.c.o
 .debug_ranges  0x0000000000000be0       0x38 /mnt/Workspace/drone_parachute/build/core/board.cpp.o
 .debug_ranges  0x0000000000000c18      0x160 /mnt/Workspace/drone_parachute/build/core/wirish/boards.cpp.o
 .debug_ranges  0x0000000000000d78       0x30 /mnt/Workspace/drone_parachute/build/core/wirish/boards_setup.cpp.o
 .debug_ranges  0x0000000000000da8       0x28 /mnt/Workspace/drone_parachute/build/core/core.a(adc.c.o)
 .debug_ranges  0x0000000000000dd0       0xb8 /mnt/Workspace/drone_parachute/build/core/core.a(adc_f1.c.o)
 .debug_ranges  0x0000000000000e88       0x18 /mnt/Workspace/drone_parachute/build/core/core.a(dma.c.o)
 .debug_ranges  0x0000000000000ea0      0x2a8 /mnt/Workspace/drone_parachute/build/core/core.a(dma_f1.c.o)
 .debug_ranges  0x0000000000001148       0xb8 /mnt/Workspace/drone_parachute/build/core/core.a(exti.c.o)
 .debug_ranges  0x0000000000001200       0x10 /mnt/Workspace/drone_parachute/build/core/core.a(exti_f1.c.o)
 .debug_ranges  0x0000000000001210       0x10 /mnt/Workspace/drone_parachute/build/core/core.a(flash.c.o)
 .debug_ranges  0x0000000000001220       0x30 /mnt/Workspace/drone_parachute/build/core/core.a(gpio_f1.c.o)
 .debug_ranges  0x0000000000001250      0x328 /mnt/Workspace/drone_parachute/build/core/core.a(i2c.c.o)
 .debug_ranges  0x0000000000001578       0x90 /mnt/Workspace/drone_parachute/build/core/core.a(i2c_f1.c.o)
 .debug_ranges  0x0000000000001608       0x40 /mnt/Workspace/drone_parachute/build/core/core.a(nvic.c.o)
 .debug_ranges  0x0000000000001648       0x98 /mnt/Workspace/drone_parachute/build/core/core.a(rcc.c.o)
 .debug_ranges  0x00000000000016e0       0xc8 /mnt/Workspace/drone_parachute/build/core/core.a(rcc_f1.c.o)
 .debug_ranges  0x00000000000017a8       0x80 /mnt/Workspace/drone_parachute/build/core/core.a(spi.c.o)
 .debug_ranges  0x0000000000001828       0x18 /mnt/Workspace/drone_parachute/build/core/core.a(spi_f1.c.o)
 .debug_ranges  0x0000000000001840       0x48 /mnt/Workspace/drone_parachute/build/core/core.a(systick.c.o)
 .debug_ranges  0x0000000000001888      0x118 /mnt/Workspace/drone_parachute/build/core/core.a(timer.c.o)
 .debug_ranges  0x00000000000019a0       0x90 /mnt/Workspace/drone_parachute/build/core/core.a(usart_f1.c.o)
 .debug_ranges  0x0000000000001a30       0x10 /mnt/Workspace/drone_parachute/build/core/core.a(usart_private.c.o)
 .debug_ranges  0x0000000000001a40       0xa8 /mnt/Workspace/drone_parachute/build/core/core.a(usb.c.o)
 .debug_ranges  0x0000000000001ae8      0x238 /mnt/Workspace/drone_parachute/build/core/core.a(usb_cdcacm.c.o)
 .debug_ranges  0x0000000000001d20       0x60 /mnt/Workspace/drone_parachute/build/core/core.a(usb_reg_map.c.o)
 .debug_ranges  0x0000000000001d80       0xc0 /mnt/Workspace/drone_parachute/build/core/core.a(usb_core.c.o)
 .debug_ranges  0x0000000000001e40       0x10 /mnt/Workspace/drone_parachute/build/core/core.a(usb_init.c.o)
 .debug_ranges  0x0000000000001e50       0x38 /mnt/Workspace/drone_parachute/build/core/core.a(usb_mem.c.o)
 .debug_ranges  0x0000000000001e88      0x290 /mnt/Workspace/drone_parachute/build/core/core.a(usb_regs.c.o)
 .debug_ranges  0x0000000000002118       0x58 /mnt/Workspace/drone_parachute/build/core/core.a(util.c.o)
 .debug_ranges  0x0000000000002170       0x90 /mnt/Workspace/drone_parachute/build/core/core.a(HardwareSerial.cpp.o)
 .debug_ranges  0x0000000000002200      0x230 /mnt/Workspace/drone_parachute/build/core/core.a(Print.cpp.o)
 .debug_ranges  0x0000000000002430       0x18 /mnt/Workspace/drone_parachute/build/core/core.a(cxxabi-compat.cpp.o)
 .debug_ranges  0x0000000000002448       0x18 /mnt/Workspace/drone_parachute/build/core/core.a(main.cpp.o)
 .debug_ranges  0x0000000000002460       0x30 /mnt/Workspace/drone_parachute/build/core/core.a(pwm.cpp.o)
 .debug_ranges  0x0000000000002490       0x38 /mnt/Workspace/drone_parachute/build/core/core.a(wirish_digital_f1.cpp.o)
 .debug_ranges  0x00000000000024c8       0x10 /mnt/Workspace/drone_parachute/build/core/core.a(wirish_analog.cpp.o)
 .debug_ranges  0x00000000000024d8       0x50 /mnt/Workspace/drone_parachute/build/core/core.a(wirish_digital.cpp.o)
 .debug_ranges  0x0000000000002528       0x20 /mnt/Workspace/drone_parachute/build/core/core.a(wirish_time.cpp.o)
 .debug_ranges  0x0000000000002548       0x10 /mnt/Workspace/drone_parachute/build/core/core.a(hooks.c.o)
 .debug_ranges  0x0000000000002558       0x10 /mnt/Workspace/drone_parachute/build/core/core.a(gpio.c.o)
 .debug_ranges  0x0000000000002568       0xd0 /mnt/Workspace/drone_parachute/build/core/core.a(usart.c.o)

.comment        0x0000000000000000       0x80
 .comment       0x0000000000000000       0x80 /mnt/Workspace/drone_parachute/build/sketch/main.ino.cpp.o
                                         0x81 (size before relaxing)
 .comment       0x0000000000000000       0x81 /mnt/Workspace/drone_parachute/build/libraries/Bolder_Flight_Systems_MPU9250/MPU9250.cpp.o
 .comment       0x0000000000000000       0x81 /mnt/Workspace/drone_parachute/build/libraries/Wire/SoftWire.cpp.o
 .comment       0x0000000000000000       0x81 /mnt/Workspace/drone_parachute/build/libraries/Wire/Wire.cpp.o
 .comment       0x0000000000000000       0x81 /mnt/Workspace/drone_parachute/build/libraries/Wire/utility/WireBase.cpp.o
 .comment       0x0000000000000000       0x81 /mnt/Workspace/drone_parachute/build/libraries/SPI/SPI.cpp.o
 .comment       0x0000000000000000       0x81 /mnt/Workspace/drone_parachute/build/libraries/Servo/Servo.cpp.o
 .comment       0x0000000000000000       0x81 /mnt/Workspace/drone_parachute/build/core/wirish/start_c.c.o
 .comment       0x0000000000000000       0x81 /mnt/Workspace/drone_parachute/build/core/wirish/syscalls.c.o
 .comment       0x0000000000000000       0x81 /mnt/Workspace/drone_parachute/build/core/board.cpp.o
 .comment       0x0000000000000000       0x81 /mnt/Workspace/drone_parachute/build/core/wirish/boards.cpp.o
 .comment       0x0000000000000000       0x81 /mnt/Workspace/drone_parachute/build/core/wirish/boards_setup.cpp.o
 .comment       0x0000000000000000       0x81 /mnt/Workspace/drone_parachute/build/core/core.a(adc.c.o)
 .comment       0x0000000000000000       0x81 /mnt/Workspace/drone_parachute/build/core/core.a(adc_f1.c.o)
 .comment       0x0000000000000000       0x81 /mnt/Workspace/drone_parachute/build/core/core.a(dma.c.o)
 .comment       0x0000000000000000       0x81 /mnt/Workspace/drone_parachute/build/core/core.a(dma_f1.c.o)
 .comment       0x0000000000000000       0x81 /mnt/Workspace/drone_parachute/build/core/core.a(exti.c.o)
 .comment       0x0000000000000000       0x81 /mnt/Workspace/drone_parachute/build/core/core.a(exti_f1.c.o)
 .comment       0x0000000000000000       0x81 /mnt/Workspace/drone_parachute/build/core/core.a(flash.c.o)
 .comment       0x0000000000000000       0x81 /mnt/Workspace/drone_parachute/build/core/core.a(gpio_f1.c.o)
 .comment       0x0000000000000000       0x81 /mnt/Workspace/drone_parachute/build/core/core.a(i2c.c.o)
 .comment       0x0000000000000000       0x81 /mnt/Workspace/drone_parachute/build/core/core.a(i2c_f1.c.o)
 .comment       0x0000000000000000       0x81 /mnt/Workspace/drone_parachute/build/core/core.a(nvic.c.o)
 .comment       0x0000000000000000       0x81 /mnt/Workspace/drone_parachute/build/core/core.a(rcc.c.o)
 .comment       0x0000000000000000       0x81 /mnt/Workspace/drone_parachute/build/core/core.a(rcc_f1.c.o)
 .comment       0x0000000000000000       0x81 /mnt/Workspace/drone_parachute/build/core/core.a(spi.c.o)
 .comment       0x0000000000000000       0x81 /mnt/Workspace/drone_parachute/build/core/core.a(spi_f1.c.o)
 .comment       0x0000000000000000       0x81 /mnt/Workspace/drone_parachute/build/core/core.a(systick.c.o)
 .comment       0x0000000000000000       0x81 /mnt/Workspace/drone_parachute/build/core/core.a(timer.c.o)
 .comment       0x0000000000000000       0x81 /mnt/Workspace/drone_parachute/build/core/core.a(usart_f1.c.o)
 .comment       0x0000000000000000       0x81 /mnt/Workspace/drone_parachute/build/core/core.a(usart_private.c.o)
 .comment       0x0000000000000000       0x81 /mnt/Workspace/drone_parachute/build/core/core.a(usb.c.o)
 .comment       0x0000000000000000       0x81 /mnt/Workspace/drone_parachute/build/core/core.a(usb_cdcacm.c.o)
 .comment       0x0000000000000000       0x81 /mnt/Workspace/drone_parachute/build/core/core.a(usb_reg_map.c.o)
 .comment       0x0000000000000000       0x81 /mnt/Workspace/drone_parachute/build/core/core.a(usb_core.c.o)
 .comment       0x0000000000000000       0x81 /mnt/Workspace/drone_parachute/build/core/core.a(usb_init.c.o)
 .comment       0x0000000000000000       0x81 /mnt/Workspace/drone_parachute/build/core/core.a(usb_mem.c.o)
 .comment       0x0000000000000000       0x81 /mnt/Workspace/drone_parachute/build/core/core.a(usb_regs.c.o)
 .comment       0x0000000000000000       0x81 /mnt/Workspace/drone_parachute/build/core/core.a(util.c.o)
 .comment       0x0000000000000000       0x81 /mnt/Workspace/drone_parachute/build/core/core.a(HardwareSerial.cpp.o)
 .comment       0x0000000000000000       0x81 /mnt/Workspace/drone_parachute/build/core/core.a(Print.cpp.o)
 .comment       0x0000000000000000       0x81 /mnt/Workspace/drone_parachute/build/core/core.a(cxxabi-compat.cpp.o)
 .comment       0x0000000000000000       0x81 /mnt/Workspace/drone_parachute/build/core/core.a(main.cpp.o)
 .comment       0x0000000000000000       0x81 /mnt/Workspace/drone_parachute/build/core/core.a(pwm.cpp.o)
 .comment       0x0000000000000000       0x81 /mnt/Workspace/drone_parachute/build/core/core.a(wirish_digital_f1.cpp.o)
 .comment       0x0000000000000000       0x81 /mnt/Workspace/drone_parachute/build/core/core.a(wirish_analog.cpp.o)
 .comment       0x0000000000000000       0x81 /mnt/Workspace/drone_parachute/build/core/core.a(wirish_digital.cpp.o)
 .comment       0x0000000000000000       0x81 /mnt/Workspace/drone_parachute/build/core/core.a(wirish_time.cpp.o)
 .comment       0x0000000000000000       0x81 /mnt/Workspace/drone_parachute/build/core/core.a(hooks.c.o)
 .comment       0x0000000000000000       0x81 /mnt/Workspace/drone_parachute/build/core/core.a(gpio.c.o)
 .comment       0x0000000000000000       0x81 /mnt/Workspace/drone_parachute/build/core/core.a(usart.c.o)

Cross Reference Table

Symbol                                            File
ADC1                                              /mnt/Workspace/drone_parachute/build/core/core.a(adc_f1.c.o)
ADC2                                              /mnt/Workspace/drone_parachute/build/core/core.a(adc_f1.c.o)
BATTERY_MAYDAY                                    /mnt/Workspace/drone_parachute/build/sketch/main.ino.cpp.o
ByteSwap                                          /mnt/Workspace/drone_parachute/build/core/core.a(usb_regs.c.o)
ClearDTOG_RX                                      /mnt/Workspace/drone_parachute/build/core/core.a(usb_regs.c.o)
                                                  /mnt/Workspace/drone_parachute/build/core/core.a(usb_core.c.o)
ClearDTOG_TX                                      /mnt/Workspace/drone_parachute/build/core/core.a(usb_regs.c.o)
                                                  /mnt/Workspace/drone_parachute/build/core/core.a(usb_core.c.o)
ClearEPDoubleBuff                                 /mnt/Workspace/drone_parachute/build/core/core.a(usb_regs.c.o)
ClearEP_CTR_RX                                    /mnt/Workspace/drone_parachute/build/core/core.a(usb_regs.c.o)
ClearEP_CTR_TX                                    /mnt/Workspace/drone_parachute/build/core/core.a(usb_regs.c.o)
ClearEP_KIND                                      /mnt/Workspace/drone_parachute/build/core/core.a(usb_regs.c.o)
Clear_Status_Out                                  /mnt/Workspace/drone_parachute/build/core/core.a(usb_regs.c.o)
DMA1                                              /mnt/Workspace/drone_parachute/build/core/core.a(dma_f1.c.o)
                                                  /mnt/Workspace/drone_parachute/build/libraries/SPI/SPI.cpp.o
Data_Mul_MaxPacketSize                            /mnt/Workspace/drone_parachute/build/core/core.a(usb_core.c.o)
Device_Info                                       /mnt/Workspace/drone_parachute/build/core/core.a(usb_init.c.o)
                                                  /mnt/Workspace/drone_parachute/build/core/core.a(usb.c.o)
Device_Property                                   /mnt/Workspace/drone_parachute/build/core/core.a(usb_cdcacm.c.o)
                                                  /mnt/Workspace/drone_parachute/build/core/core.a(usb_init.c.o)
                                                  /mnt/Workspace/drone_parachute/build/core/core.a(usb_core.c.o)
                                                  /mnt/Workspace/drone_parachute/build/core/core.a(usb.c.o)
Device_Table                                      /mnt/Workspace/drone_parachute/build/core/core.a(usb_cdcacm.c.o)
                                                  /mnt/Workspace/drone_parachute/build/core/core.a(usb_core.c.o)
EPindex                                           /mnt/Workspace/drone_parachute/build/core/core.a(usb_init.c.o)
FREEFALL_MAYDAY                                   /mnt/Workspace/drone_parachute/build/sketch/main.ino.cpp.o
FreeUserBuffer                                    /mnt/Workspace/drone_parachute/build/core/core.a(usb_regs.c.o)
GPIOA                                             /mnt/Workspace/drone_parachute/build/core/core.a(gpio_f1.c.o)
GPIOB                                             /mnt/Workspace/drone_parachute/build/core/core.a(gpio_f1.c.o)
GPIOC                                             /mnt/Workspace/drone_parachute/build/core/core.a(gpio_f1.c.o)
                                                  /mnt/Workspace/drone_parachute/build/core/core.a(util.c.o)
GPIOD                                             /mnt/Workspace/drone_parachute/build/core/core.a(gpio_f1.c.o)
GetBTABLE                                         /mnt/Workspace/drone_parachute/build/core/core.a(usb_regs.c.o)
GetCNTR                                           /mnt/Workspace/drone_parachute/build/core/core.a(usb_regs.c.o)
GetDADDR                                          /mnt/Workspace/drone_parachute/build/core/core.a(usb_regs.c.o)
GetENDPOINT                                       /mnt/Workspace/drone_parachute/build/core/core.a(usb_regs.c.o)
GetEPAddress                                      /mnt/Workspace/drone_parachute/build/core/core.a(usb_regs.c.o)
GetEPDblBuf0Addr                                  /mnt/Workspace/drone_parachute/build/core/core.a(usb_regs.c.o)
GetEPDblBuf0Count                                 /mnt/Workspace/drone_parachute/build/core/core.a(usb_regs.c.o)
GetEPDblBuf1Addr                                  /mnt/Workspace/drone_parachute/build/core/core.a(usb_regs.c.o)
GetEPDblBuf1Count                                 /mnt/Workspace/drone_parachute/build/core/core.a(usb_regs.c.o)
GetEPDblBufDir                                    /mnt/Workspace/drone_parachute/build/core/core.a(usb_regs.c.o)
GetEPRxAddr                                       /mnt/Workspace/drone_parachute/build/core/core.a(usb_regs.c.o)
                                                  /mnt/Workspace/drone_parachute/build/core/core.a(usb_core.c.o)
GetEPRxCount                                      /mnt/Workspace/drone_parachute/build/core/core.a(usb_regs.c.o)
GetEPRxStatus                                     /mnt/Workspace/drone_parachute/build/core/core.a(usb_regs.c.o)
GetEPTxAddr                                       /mnt/Workspace/drone_parachute/build/core/core.a(usb_regs.c.o)
                                                  /mnt/Workspace/drone_parachute/build/core/core.a(usb_core.c.o)
GetEPTxCount                                      /mnt/Workspace/drone_parachute/build/core/core.a(usb_regs.c.o)
GetEPTxStatus                                     /mnt/Workspace/drone_parachute/build/core/core.a(usb_regs.c.o)
GetEPType                                         /mnt/Workspace/drone_parachute/build/core/core.a(usb_regs.c.o)
GetFNR                                            /mnt/Workspace/drone_parachute/build/core/core.a(usb_regs.c.o)
GetISTR                                           /mnt/Workspace/drone_parachute/build/core/core.a(usb_regs.c.o)
GetRxStallStatus                                  /mnt/Workspace/drone_parachute/build/core/core.a(usb_regs.c.o)
GetTxStallStatus                                  /mnt/Workspace/drone_parachute/build/core/core.a(usb_regs.c.o)
HardwareSerial::HardwareSerial(usart_dev*, unsigned char, unsigned char) /mnt/Workspace/drone_parachute/build/core/core.a(HardwareSerial.cpp.o)
HardwareSerial::HardwareSerial(usart_dev*, unsigned char, unsigned char) /mnt/Workspace/drone_parachute/build/core/core.a(HardwareSerial.cpp.o)
                                                  /mnt/Workspace/drone_parachute/build/core/board.cpp.o
HardwareSerial::available()                       /mnt/Workspace/drone_parachute/build/core/core.a(HardwareSerial.cpp.o)
HardwareSerial::availableForWrite()               /mnt/Workspace/drone_parachute/build/core/core.a(HardwareSerial.cpp.o)
HardwareSerial::begin(unsigned long)              /mnt/Workspace/drone_parachute/build/core/core.a(HardwareSerial.cpp.o)
                                                  /mnt/Workspace/drone_parachute/build/sketch/main.ino.cpp.o
HardwareSerial::begin(unsigned long, unsigned char) /mnt/Workspace/drone_parachute/build/core/core.a(HardwareSerial.cpp.o)
HardwareSerial::end()                             /mnt/Workspace/drone_parachute/build/core/core.a(HardwareSerial.cpp.o)
HardwareSerial::flush()                           /mnt/Workspace/drone_parachute/build/core/core.a(HardwareSerial.cpp.o)
HardwareSerial::peek()                            /mnt/Workspace/drone_parachute/build/core/core.a(HardwareSerial.cpp.o)
HardwareSerial::read()                            /mnt/Workspace/drone_parachute/build/core/core.a(HardwareSerial.cpp.o)
HardwareSerial::write(unsigned char)              /mnt/Workspace/drone_parachute/build/core/core.a(HardwareSerial.cpp.o)
I2C1                                              /mnt/Workspace/drone_parachute/build/core/core.a(i2c_f1.c.o)
                                                  /mnt/Workspace/drone_parachute/build/core/core.a(i2c.c.o)
                                                  /mnt/Workspace/drone_parachute/build/libraries/Wire/Wire.cpp.o
I2C2                                              /mnt/Workspace/drone_parachute/build/core/core.a(i2c_f1.c.o)
                                                  /mnt/Workspace/drone_parachute/build/libraries/Wire/Wire.cpp.o
In0_Process                                       /mnt/Workspace/drone_parachute/build/core/core.a(usb_core.c.o)
                                                  /mnt/Workspace/drone_parachute/build/core/core.a(usb.c.o)
MPU9250::MPU9250(SPIClass&, unsigned char)        /mnt/Workspace/drone_parachute/build/libraries/Bolder_Flight_Systems_MPU9250/MPU9250.cpp.o
MPU9250::MPU9250(SPIClass&, unsigned char)        /mnt/Workspace/drone_parachute/build/libraries/Bolder_Flight_Systems_MPU9250/MPU9250.cpp.o
MPU9250::MPU9250(TwoWire&, unsigned char)         /mnt/Workspace/drone_parachute/build/libraries/Bolder_Flight_Systems_MPU9250/MPU9250.cpp.o
                                                  /mnt/Workspace/drone_parachute/build/sketch/main.ino.cpp.o
MPU9250::MPU9250(TwoWire&, unsigned char)         /mnt/Workspace/drone_parachute/build/libraries/Bolder_Flight_Systems_MPU9250/MPU9250.cpp.o
MPU9250::begin()                                  /mnt/Workspace/drone_parachute/build/libraries/Bolder_Flight_Systems_MPU9250/MPU9250.cpp.o
                                                  /mnt/Workspace/drone_parachute/build/sketch/main.ino.cpp.o
MPU9250::calibrateAccel()                         /mnt/Workspace/drone_parachute/build/libraries/Bolder_Flight_Systems_MPU9250/MPU9250.cpp.o
MPU9250::calibrateGyro()                          /mnt/Workspace/drone_parachute/build/libraries/Bolder_Flight_Systems_MPU9250/MPU9250.cpp.o
MPU9250::calibrateMag()                           /mnt/Workspace/drone_parachute/build/libraries/Bolder_Flight_Systems_MPU9250/MPU9250.cpp.o
MPU9250::disableDataReadyInterrupt()              /mnt/Workspace/drone_parachute/build/libraries/Bolder_Flight_Systems_MPU9250/MPU9250.cpp.o
MPU9250::enableDataReadyInterrupt()               /mnt/Workspace/drone_parachute/build/libraries/Bolder_Flight_Systems_MPU9250/MPU9250.cpp.o
MPU9250::enableWakeOnMotion(float, MPU9250::LpAccelOdr) /mnt/Workspace/drone_parachute/build/libraries/Bolder_Flight_Systems_MPU9250/MPU9250.cpp.o
MPU9250::getAccelBiasX_mss()                      /mnt/Workspace/drone_parachute/build/libraries/Bolder_Flight_Systems_MPU9250/MPU9250.cpp.o
MPU9250::getAccelBiasY_mss()                      /mnt/Workspace/drone_parachute/build/libraries/Bolder_Flight_Systems_MPU9250/MPU9250.cpp.o
MPU9250::getAccelBiasZ_mss()                      /mnt/Workspace/drone_parachute/build/libraries/Bolder_Flight_Systems_MPU9250/MPU9250.cpp.o
MPU9250::getAccelScaleFactorX()                   /mnt/Workspace/drone_parachute/build/libraries/Bolder_Flight_Systems_MPU9250/MPU9250.cpp.o
MPU9250::getAccelScaleFactorY()                   /mnt/Workspace/drone_parachute/build/libraries/Bolder_Flight_Systems_MPU9250/MPU9250.cpp.o
MPU9250::getAccelScaleFactorZ()                   /mnt/Workspace/drone_parachute/build/libraries/Bolder_Flight_Systems_MPU9250/MPU9250.cpp.o
MPU9250::getAccelX_mss()                          /mnt/Workspace/drone_parachute/build/libraries/Bolder_Flight_Systems_MPU9250/MPU9250.cpp.o
                                                  /mnt/Workspace/drone_parachute/build/sketch/main.ino.cpp.o
MPU9250::getAccelY_mss()                          /mnt/Workspace/drone_parachute/build/libraries/Bolder_Flight_Systems_MPU9250/MPU9250.cpp.o
                                                  /mnt/Workspace/drone_parachute/build/sketch/main.ino.cpp.o
MPU9250::getAccelZ_mss()                          /mnt/Workspace/drone_parachute/build/libraries/Bolder_Flight_Systems_MPU9250/MPU9250.cpp.o
                                                  /mnt/Workspace/drone_parachute/build/sketch/main.ino.cpp.o
MPU9250::getGyroBiasX_rads()                      /mnt/Workspace/drone_parachute/build/libraries/Bolder_Flight_Systems_MPU9250/MPU9250.cpp.o
MPU9250::getGyroBiasY_rads()                      /mnt/Workspace/drone_parachute/build/libraries/Bolder_Flight_Systems_MPU9250/MPU9250.cpp.o
MPU9250::getGyroBiasZ_rads()                      /mnt/Workspace/drone_parachute/build/libraries/Bolder_Flight_Systems_MPU9250/MPU9250.cpp.o
MPU9250::getGyroX_rads()                          /mnt/Workspace/drone_parachute/build/libraries/Bolder_Flight_Systems_MPU9250/MPU9250.cpp.o
                                                  /mnt/Workspace/drone_parachute/build/sketch/main.ino.cpp.o
MPU9250::getGyroY_rads()                          /mnt/Workspace/drone_parachute/build/libraries/Bolder_Flight_Systems_MPU9250/MPU9250.cpp.o
                                                  /mnt/Workspace/drone_parachute/build/sketch/main.ino.cpp.o
MPU9250::getGyroZ_rads()                          /mnt/Workspace/drone_parachute/build/libraries/Bolder_Flight_Systems_MPU9250/MPU9250.cpp.o
                                                  /mnt/Workspace/drone_parachute/build/sketch/main.ino.cpp.o
MPU9250::getMagBiasX_uT()                         /mnt/Workspace/drone_parachute/build/libraries/Bolder_Flight_Systems_MPU9250/MPU9250.cpp.o
MPU9250::getMagBiasY_uT()                         /mnt/Workspace/drone_parachute/build/libraries/Bolder_Flight_Systems_MPU9250/MPU9250.cpp.o
MPU9250::getMagBiasZ_uT()                         /mnt/Workspace/drone_parachute/build/libraries/Bolder_Flight_Systems_MPU9250/MPU9250.cpp.o
MPU9250::getMagScaleFactorX()                     /mnt/Workspace/drone_parachute/build/libraries/Bolder_Flight_Systems_MPU9250/MPU9250.cpp.o
MPU9250::getMagScaleFactorY()                     /mnt/Workspace/drone_parachute/build/libraries/Bolder_Flight_Systems_MPU9250/MPU9250.cpp.o
MPU9250::getMagScaleFactorZ()                     /mnt/Workspace/drone_parachute/build/libraries/Bolder_Flight_Systems_MPU9250/MPU9250.cpp.o
MPU9250::getMagX_uT()                             /mnt/Workspace/drone_parachute/build/libraries/Bolder_Flight_Systems_MPU9250/MPU9250.cpp.o
                                                  /mnt/Workspace/drone_parachute/build/sketch/main.ino.cpp.o
MPU9250::getMagY_uT()                             /mnt/Workspace/drone_parachute/build/libraries/Bolder_Flight_Systems_MPU9250/MPU9250.cpp.o
                                                  /mnt/Workspace/drone_parachute/build/sketch/main.ino.cpp.o
MPU9250::getMagZ_uT()                             /mnt/Workspace/drone_parachute/build/libraries/Bolder_Flight_Systems_MPU9250/MPU9250.cpp.o
                                                  /mnt/Workspace/drone_parachute/build/sketch/main.ino.cpp.o
MPU9250::getTemperature_C()                       /mnt/Workspace/drone_parachute/build/libraries/Bolder_Flight_Systems_MPU9250/MPU9250.cpp.o
                                                  /mnt/Workspace/drone_parachute/build/sketch/main.ino.cpp.o
MPU9250::readAK8963Registers(unsigned char, unsigned char, unsigned char*) /mnt/Workspace/drone_parachute/build/libraries/Bolder_Flight_Systems_MPU9250/MPU9250.cpp.o
MPU9250::readRegisters(unsigned char, unsigned char, unsigned char*) /mnt/Workspace/drone_parachute/build/libraries/Bolder_Flight_Systems_MPU9250/MPU9250.cpp.o
MPU9250::readSensor()                             /mnt/Workspace/drone_parachute/build/libraries/Bolder_Flight_Systems_MPU9250/MPU9250.cpp.o
                                                  /mnt/Workspace/drone_parachute/build/sketch/main.ino.cpp.o
MPU9250::setAccelCalX(float, float)               /mnt/Workspace/drone_parachute/build/libraries/Bolder_Flight_Systems_MPU9250/MPU9250.cpp.o
MPU9250::setAccelCalY(float, float)               /mnt/Workspace/drone_parachute/build/libraries/Bolder_Flight_Systems_MPU9250/MPU9250.cpp.o
MPU9250::setAccelCalZ(float, float)               /mnt/Workspace/drone_parachute/build/libraries/Bolder_Flight_Systems_MPU9250/MPU9250.cpp.o
MPU9250::setAccelRange(MPU9250::AccelRange)       /mnt/Workspace/drone_parachute/build/libraries/Bolder_Flight_Systems_MPU9250/MPU9250.cpp.o
                                                  /mnt/Workspace/drone_parachute/build/sketch/main.ino.cpp.o
MPU9250::setDlpfBandwidth(MPU9250::DlpfBandwidth) /mnt/Workspace/drone_parachute/build/libraries/Bolder_Flight_Systems_MPU9250/MPU9250.cpp.o
                                                  /mnt/Workspace/drone_parachute/build/sketch/main.ino.cpp.o
MPU9250::setGyroBiasX_rads(float)                 /mnt/Workspace/drone_parachute/build/libraries/Bolder_Flight_Systems_MPU9250/MPU9250.cpp.o
MPU9250::setGyroBiasY_rads(float)                 /mnt/Workspace/drone_parachute/build/libraries/Bolder_Flight_Systems_MPU9250/MPU9250.cpp.o
MPU9250::setGyroBiasZ_rads(float)                 /mnt/Workspace/drone_parachute/build/libraries/Bolder_Flight_Systems_MPU9250/MPU9250.cpp.o
MPU9250::setGyroRange(MPU9250::GyroRange)         /mnt/Workspace/drone_parachute/build/libraries/Bolder_Flight_Systems_MPU9250/MPU9250.cpp.o
                                                  /mnt/Workspace/drone_parachute/build/sketch/main.ino.cpp.o
MPU9250::setMagCalX(float, float)                 /mnt/Workspace/drone_parachute/build/libraries/Bolder_Flight_Systems_MPU9250/MPU9250.cpp.o
MPU9250::setMagCalY(float, float)                 /mnt/Workspace/drone_parachute/build/libraries/Bolder_Flight_Systems_MPU9250/MPU9250.cpp.o
MPU9250::setMagCalZ(float, float)                 /mnt/Workspace/drone_parachute/build/libraries/Bolder_Flight_Systems_MPU9250/MPU9250.cpp.o
MPU9250::setSrd(unsigned char)                    /mnt/Workspace/drone_parachute/build/libraries/Bolder_Flight_Systems_MPU9250/MPU9250.cpp.o
                                                  /mnt/Workspace/drone_parachute/build/sketch/main.ino.cpp.o
MPU9250::whoAmI()                                 /mnt/Workspace/drone_parachute/build/libraries/Bolder_Flight_Systems_MPU9250/MPU9250.cpp.o
MPU9250::whoAmIAK8963()                           /mnt/Workspace/drone_parachute/build/libraries/Bolder_Flight_Systems_MPU9250/MPU9250.cpp.o
MPU9250::writeAK8963Register(unsigned char, unsigned char) /mnt/Workspace/drone_parachute/build/libraries/Bolder_Flight_Systems_MPU9250/MPU9250.cpp.o
MPU9250::writeRegister(unsigned char, unsigned char) /mnt/Workspace/drone_parachute/build/libraries/Bolder_Flight_Systems_MPU9250/MPU9250.cpp.o
MPU9250FIFO::enableFifo(bool, bool, bool, bool)   /mnt/Workspace/drone_parachute/build/libraries/Bolder_Flight_Systems_MPU9250/MPU9250.cpp.o
MPU9250FIFO::getFifoAccelX_mss(unsigned int*, float*) /mnt/Workspace/drone_parachute/build/libraries/Bolder_Flight_Systems_MPU9250/MPU9250.cpp.o
MPU9250FIFO::getFifoAccelY_mss(unsigned int*, float*) /mnt/Workspace/drone_parachute/build/libraries/Bolder_Flight_Systems_MPU9250/MPU9250.cpp.o
MPU9250FIFO::getFifoAccelZ_mss(unsigned int*, float*) /mnt/Workspace/drone_parachute/build/libraries/Bolder_Flight_Systems_MPU9250/MPU9250.cpp.o
MPU9250FIFO::getFifoGyroX_rads(unsigned int*, float*) /mnt/Workspace/drone_parachute/build/libraries/Bolder_Flight_Systems_MPU9250/MPU9250.cpp.o
MPU9250FIFO::getFifoGyroY_rads(unsigned int*, float*) /mnt/Workspace/drone_parachute/build/libraries/Bolder_Flight_Systems_MPU9250/MPU9250.cpp.o
MPU9250FIFO::getFifoGyroZ_rads(unsigned int*, float*) /mnt/Workspace/drone_parachute/build/libraries/Bolder_Flight_Systems_MPU9250/MPU9250.cpp.o
MPU9250FIFO::getFifoMagX_uT(unsigned int*, float*) /mnt/Workspace/drone_parachute/build/libraries/Bolder_Flight_Systems_MPU9250/MPU9250.cpp.o
MPU9250FIFO::getFifoMagY_uT(unsigned int*, float*) /mnt/Workspace/drone_parachute/build/libraries/Bolder_Flight_Systems_MPU9250/MPU9250.cpp.o
MPU9250FIFO::getFifoMagZ_uT(unsigned int*, float*) /mnt/Workspace/drone_parachute/build/libraries/Bolder_Flight_Systems_MPU9250/MPU9250.cpp.o
MPU9250FIFO::getFifoTemperature_C(unsigned int*, float*) /mnt/Workspace/drone_parachute/build/libraries/Bolder_Flight_Systems_MPU9250/MPU9250.cpp.o
MPU9250FIFO::readFifo()                           /mnt/Workspace/drone_parachute/build/libraries/Bolder_Flight_Systems_MPU9250/MPU9250.cpp.o
NOP_Process                                       /mnt/Workspace/drone_parachute/build/core/core.a(usb_core.c.o)
                                                  /mnt/Workspace/drone_parachute/build/core/core.a(usb_cdcacm.c.o)
Out0_Process                                      /mnt/Workspace/drone_parachute/build/core/core.a(usb_core.c.o)
                                                  /mnt/Workspace/drone_parachute/build/core/core.a(usb.c.o)
PIN_MAP                                           /mnt/Workspace/drone_parachute/build/core/board.cpp.o
                                                  /mnt/Workspace/drone_parachute/build/core/core.a(wirish_digital.cpp.o)
                                                  /mnt/Workspace/drone_parachute/build/core/core.a(wirish_analog.cpp.o)
                                                  /mnt/Workspace/drone_parachute/build/core/core.a(wirish_digital_f1.cpp.o)
                                                  /mnt/Workspace/drone_parachute/build/core/core.a(pwm.cpp.o)
                                                  /mnt/Workspace/drone_parachute/build/core/core.a(HardwareSerial.cpp.o)
                                                  /mnt/Workspace/drone_parachute/build/libraries/Servo/Servo.cpp.o
                                                  /mnt/Workspace/drone_parachute/build/libraries/SPI/SPI.cpp.o
                                                  /mnt/Workspace/drone_parachute/build/libraries/Wire/SoftWire.cpp.o
PMAToUserBufferCopy                               /mnt/Workspace/drone_parachute/build/core/core.a(usb_mem.c.o)
                                                  /mnt/Workspace/drone_parachute/build/core/core.a(usb_core.c.o)
Post0_Process                                     /mnt/Workspace/drone_parachute/build/core/core.a(usb_core.c.o)
Print::print(Printable const&)                    /mnt/Workspace/drone_parachute/build/core/core.a(Print.cpp.o)
Print::print(String const&)                       /mnt/Workspace/drone_parachute/build/core/core.a(Print.cpp.o)
Print::print(__FlashStringHelper const*)          /mnt/Workspace/drone_parachute/build/core/core.a(Print.cpp.o)
Print::print(char const*)                         /mnt/Workspace/drone_parachute/build/core/core.a(Print.cpp.o)
                                                  /mnt/Workspace/drone_parachute/build/sketch/main.ino.cpp.o
Print::print(char)                                /mnt/Workspace/drone_parachute/build/core/core.a(Print.cpp.o)
Print::print(double, int)                         /mnt/Workspace/drone_parachute/build/core/core.a(Print.cpp.o)
                                                  /mnt/Workspace/drone_parachute/build/sketch/main.ino.cpp.o
Print::print(int, int)                            /mnt/Workspace/drone_parachute/build/core/core.a(Print.cpp.o)
Print::print(long long, int)                      /mnt/Workspace/drone_parachute/build/core/core.a(Print.cpp.o)
Print::print(long, int)                           /mnt/Workspace/drone_parachute/build/core/core.a(Print.cpp.o)
Print::print(unsigned char, int)                  /mnt/Workspace/drone_parachute/build/core/core.a(Print.cpp.o)
Print::print(unsigned int, int)                   /mnt/Workspace/drone_parachute/build/core/core.a(Print.cpp.o)
Print::print(unsigned long long, int)             /mnt/Workspace/drone_parachute/build/core/core.a(Print.cpp.o)
Print::print(unsigned long, int)                  /mnt/Workspace/drone_parachute/build/core/core.a(Print.cpp.o)
Print::printFloat(double, unsigned char)          /mnt/Workspace/drone_parachute/build/core/core.a(Print.cpp.o)
Print::printNumber(unsigned long long, unsigned char) /mnt/Workspace/drone_parachute/build/core/core.a(Print.cpp.o)
Print::println()                                  /mnt/Workspace/drone_parachute/build/core/core.a(Print.cpp.o)
Print::println(Printable const&)                  /mnt/Workspace/drone_parachute/build/core/core.a(Print.cpp.o)
Print::println(String const&)                     /mnt/Workspace/drone_parachute/build/core/core.a(Print.cpp.o)
Print::println(__FlashStringHelper const*)        /mnt/Workspace/drone_parachute/build/core/core.a(Print.cpp.o)
Print::println(char const*)                       /mnt/Workspace/drone_parachute/build/core/core.a(Print.cpp.o)
                                                  /mnt/Workspace/drone_parachute/build/sketch/main.ino.cpp.o
Print::println(char)                              /mnt/Workspace/drone_parachute/build/core/core.a(Print.cpp.o)
Print::println(double, int)                       /mnt/Workspace/drone_parachute/build/core/core.a(Print.cpp.o)
                                                  /mnt/Workspace/drone_parachute/build/sketch/main.ino.cpp.o
Print::println(int, int)                          /mnt/Workspace/drone_parachute/build/core/core.a(Print.cpp.o)
Print::println(long long, int)                    /mnt/Workspace/drone_parachute/build/core/core.a(Print.cpp.o)
Print::println(long, int)                         /mnt/Workspace/drone_parachute/build/core/core.a(Print.cpp.o)
Print::println(unsigned char, int)                /mnt/Workspace/drone_parachute/build/core/core.a(Print.cpp.o)
Print::println(unsigned int, int)                 /mnt/Workspace/drone_parachute/build/core/core.a(Print.cpp.o)
Print::println(unsigned long long, int)           /mnt/Workspace/drone_parachute/build/core/core.a(Print.cpp.o)
Print::println(unsigned long, int)                /mnt/Workspace/drone_parachute/build/core/core.a(Print.cpp.o)
Print::write(char const*)                         /mnt/Workspace/drone_parachute/build/core/core.a(Print.cpp.o)
                                                  /mnt/Workspace/drone_parachute/build/core/core.a(HardwareSerial.cpp.o)
Print::write(void const*, unsigned long)          /mnt/Workspace/drone_parachute/build/core/core.a(Print.cpp.o)
                                                  /mnt/Workspace/drone_parachute/build/core/core.a(HardwareSerial.cpp.o)
ResumeS                                           /mnt/Workspace/drone_parachute/build/core/core.a(usb.c.o)
SPI                                               /mnt/Workspace/drone_parachute/build/libraries/SPI/SPI.cpp.o
SPI1                                              /mnt/Workspace/drone_parachute/build/core/core.a(spi_f1.c.o)
                                                  /mnt/Workspace/drone_parachute/build/libraries/SPI/SPI.cpp.o
SPI2                                              /mnt/Workspace/drone_parachute/build/core/core.a(spi_f1.c.o)
                                                  /mnt/Workspace/drone_parachute/build/libraries/SPI/SPI.cpp.o
SPIClass::EventCallback()                         /mnt/Workspace/drone_parachute/build/libraries/SPI/SPI.cpp.o
SPIClass::SPIClass(unsigned long)                 /mnt/Workspace/drone_parachute/build/libraries/SPI/SPI.cpp.o
SPIClass::SPIClass(unsigned long)                 /mnt/Workspace/drone_parachute/build/libraries/SPI/SPI.cpp.o
SPIClass::_spi1EventCallback()                    /mnt/Workspace/drone_parachute/build/libraries/SPI/SPI.cpp.o
SPIClass::_spi2EventCallback()                    /mnt/Workspace/drone_parachute/build/libraries/SPI/SPI.cpp.o
SPIClass::attachInterrupt()                       /mnt/Workspace/drone_parachute/build/libraries/SPI/SPI.cpp.o
SPIClass::begin()                                 /mnt/Workspace/drone_parachute/build/libraries/SPI/SPI.cpp.o
                                                  /mnt/Workspace/drone_parachute/build/libraries/Bolder_Flight_Systems_MPU9250/MPU9250.cpp.o
SPIClass::beginSlave()                            /mnt/Workspace/drone_parachute/build/libraries/SPI/SPI.cpp.o
SPIClass::beginTransaction(unsigned char, SPISettings) /mnt/Workspace/drone_parachute/build/libraries/SPI/SPI.cpp.o
                                                  /mnt/Workspace/drone_parachute/build/libraries/Bolder_Flight_Systems_MPU9250/MPU9250.cpp.o
SPIClass::beginTransactionSlave(SPISettings)      /mnt/Workspace/drone_parachute/build/libraries/SPI/SPI.cpp.o
SPIClass::detachInterrupt()                       /mnt/Workspace/drone_parachute/build/libraries/SPI/SPI.cpp.o
SPIClass::dmaSend(void const*, unsigned short, bool) /mnt/Workspace/drone_parachute/build/libraries/SPI/SPI.cpp.o
SPIClass::dmaSendAsync(void const*, unsigned short, bool) /mnt/Workspace/drone_parachute/build/libraries/SPI/SPI.cpp.o
SPIClass::dmaSendRepeat(unsigned short)           /mnt/Workspace/drone_parachute/build/libraries/SPI/SPI.cpp.o
SPIClass::dmaSendSet(void const*, bool)           /mnt/Workspace/drone_parachute/build/libraries/SPI/SPI.cpp.o
SPIClass::dmaTransfer(void const*, void*, unsigned short) /mnt/Workspace/drone_parachute/build/libraries/SPI/SPI.cpp.o
SPIClass::dmaTransferRepeat(unsigned short)       /mnt/Workspace/drone_parachute/build/libraries/SPI/SPI.cpp.o
SPIClass::dmaTransferSet(void const*, void*)      /mnt/Workspace/drone_parachute/build/libraries/SPI/SPI.cpp.o
SPIClass::end()                                   /mnt/Workspace/drone_parachute/build/libraries/SPI/SPI.cpp.o
SPIClass::endTransaction()                        /mnt/Workspace/drone_parachute/build/libraries/SPI/SPI.cpp.o
                                                  /mnt/Workspace/drone_parachute/build/libraries/Bolder_Flight_Systems_MPU9250/MPU9250.cpp.o
SPIClass::misoPin()                               /mnt/Workspace/drone_parachute/build/libraries/SPI/SPI.cpp.o
SPIClass::mosiPin()                               /mnt/Workspace/drone_parachute/build/libraries/SPI/SPI.cpp.o
SPIClass::nssPin()                                /mnt/Workspace/drone_parachute/build/libraries/SPI/SPI.cpp.o
SPIClass::onReceive(void (*)())                   /mnt/Workspace/drone_parachute/build/libraries/SPI/SPI.cpp.o
SPIClass::onTransmit(void (*)())                  /mnt/Workspace/drone_parachute/build/libraries/SPI/SPI.cpp.o
SPIClass::read()                                  /mnt/Workspace/drone_parachute/build/libraries/SPI/SPI.cpp.o
SPIClass::read(unsigned char*, unsigned long)     /mnt/Workspace/drone_parachute/build/libraries/SPI/SPI.cpp.o
SPIClass::recv()                                  /mnt/Workspace/drone_parachute/build/libraries/SPI/SPI.cpp.o
SPIClass::sckPin()                                /mnt/Workspace/drone_parachute/build/libraries/SPI/SPI.cpp.o
SPIClass::send(unsigned char)                     /mnt/Workspace/drone_parachute/build/libraries/SPI/SPI.cpp.o
SPIClass::send(unsigned char*, unsigned long)     /mnt/Workspace/drone_parachute/build/libraries/SPI/SPI.cpp.o
SPIClass::setBitOrder(BitOrder)                   /mnt/Workspace/drone_parachute/build/libraries/SPI/SPI.cpp.o
SPIClass::setClockDivider(unsigned long)          /mnt/Workspace/drone_parachute/build/libraries/SPI/SPI.cpp.o
SPIClass::setDataMode(unsigned char)              /mnt/Workspace/drone_parachute/build/libraries/SPI/SPI.cpp.o
SPIClass::setDataSize(unsigned long)              /mnt/Workspace/drone_parachute/build/libraries/SPI/SPI.cpp.o
SPIClass::transfer(unsigned char) const           /mnt/Workspace/drone_parachute/build/libraries/SPI/SPI.cpp.o
                                                  /mnt/Workspace/drone_parachute/build/libraries/Bolder_Flight_Systems_MPU9250/MPU9250.cpp.o
SPIClass::transfer16(unsigned short) const        /mnt/Workspace/drone_parachute/build/libraries/SPI/SPI.cpp.o
SPIClass::updateSettings()                        /mnt/Workspace/drone_parachute/build/libraries/SPI/SPI.cpp.o
SPIClass::write(unsigned short)                   /mnt/Workspace/drone_parachute/build/libraries/SPI/SPI.cpp.o
SPIClass::write(unsigned short, unsigned long)    /mnt/Workspace/drone_parachute/build/libraries/SPI/SPI.cpp.o
SPIClass::write(void const*, unsigned long)       /mnt/Workspace/drone_parachute/build/libraries/SPI/SPI.cpp.o
SPIClass::write16(unsigned short)                 /mnt/Workspace/drone_parachute/build/libraries/SPI/SPI.cpp.o
SaveRState                                        /mnt/Workspace/drone_parachute/build/core/core.a(usb_core.c.o)
                                                  /mnt/Workspace/drone_parachute/build/core/core.a(usb.c.o)
SaveState                                         /mnt/Workspace/drone_parachute/build/core/core.a(usb_init.c.o)
SaveTState                                        /mnt/Workspace/drone_parachute/build/core/core.a(usb_core.c.o)
                                                  /mnt/Workspace/drone_parachute/build/core/core.a(usb.c.o)
Serial1                                           /mnt/Workspace/drone_parachute/build/core/board.cpp.o
                                                  /mnt/Workspace/drone_parachute/build/sketch/main.ino.cpp.o
Serial2                                           /mnt/Workspace/drone_parachute/build/core/board.cpp.o
Serial3                                           /mnt/Workspace/drone_parachute/build/core/board.cpp.o
Servo::Servo()                                    /mnt/Workspace/drone_parachute/build/libraries/Servo/Servo.cpp.o
Servo::Servo()                                    /mnt/Workspace/drone_parachute/build/libraries/Servo/Servo.cpp.o
                                                  /mnt/Workspace/drone_parachute/build/sketch/main.ino.cpp.o
Servo::attach(unsigned char, unsigned short, unsigned short, short, short) /mnt/Workspace/drone_parachute/build/libraries/Servo/Servo.cpp.o
                                                  /mnt/Workspace/drone_parachute/build/sketch/main.ino.cpp.o
Servo::detach()                                   /mnt/Workspace/drone_parachute/build/libraries/Servo/Servo.cpp.o
Servo::read() const                               /mnt/Workspace/drone_parachute/build/libraries/Servo/Servo.cpp.o
Servo::readMicroseconds() const                   /mnt/Workspace/drone_parachute/build/libraries/Servo/Servo.cpp.o
Servo::resetFields()                              /mnt/Workspace/drone_parachute/build/libraries/Servo/Servo.cpp.o
Servo::write(int)                                 /mnt/Workspace/drone_parachute/build/libraries/Servo/Servo.cpp.o
                                                  /mnt/Workspace/drone_parachute/build/sketch/main.ino.cpp.o
Servo::writeMicroseconds(unsigned short)          /mnt/Workspace/drone_parachute/build/libraries/Servo/Servo.cpp.o
SetBTABLE                                         /mnt/Workspace/drone_parachute/build/core/core.a(usb_regs.c.o)
SetCNTR                                           /mnt/Workspace/drone_parachute/build/core/core.a(usb_regs.c.o)
SetDADDR                                          /mnt/Workspace/drone_parachute/build/core/core.a(usb_regs.c.o)
SetDeviceAddress                                  /mnt/Workspace/drone_parachute/build/core/core.a(usb_core.c.o)
                                                  /mnt/Workspace/drone_parachute/build/core/core.a(usb_cdcacm.c.o)
SetDouBleBuffEPStall                              /mnt/Workspace/drone_parachute/build/core/core.a(usb_regs.c.o)
SetENDPOINT                                       /mnt/Workspace/drone_parachute/build/core/core.a(usb_regs.c.o)
SetEPAddress                                      /mnt/Workspace/drone_parachute/build/core/core.a(usb_regs.c.o)
SetEPCountRxReg                                   /mnt/Workspace/drone_parachute/build/core/core.a(usb_regs.c.o)
SetEPDblBuf0Addr                                  /mnt/Workspace/drone_parachute/build/core/core.a(usb_regs.c.o)
SetEPDblBuf0Count                                 /mnt/Workspace/drone_parachute/build/core/core.a(usb_regs.c.o)
SetEPDblBuf1Addr                                  /mnt/Workspace/drone_parachute/build/core/core.a(usb_regs.c.o)
SetEPDblBuf1Count                                 /mnt/Workspace/drone_parachute/build/core/core.a(usb_regs.c.o)
SetEPDblBuffAddr                                  /mnt/Workspace/drone_parachute/build/core/core.a(usb_regs.c.o)
SetEPDblBuffCount                                 /mnt/Workspace/drone_parachute/build/core/core.a(usb_regs.c.o)
SetEPDoubleBuff                                   /mnt/Workspace/drone_parachute/build/core/core.a(usb_regs.c.o)
SetEPRxAddr                                       /mnt/Workspace/drone_parachute/build/core/core.a(usb_regs.c.o)
SetEPRxCount                                      /mnt/Workspace/drone_parachute/build/core/core.a(usb_regs.c.o)
                                                  /mnt/Workspace/drone_parachute/build/core/core.a(usb_core.c.o)
SetEPRxStatus                                     /mnt/Workspace/drone_parachute/build/core/core.a(usb_regs.c.o)
SetEPRxValid                                      /mnt/Workspace/drone_parachute/build/core/core.a(usb_regs.c.o)
SetEPTxAddr                                       /mnt/Workspace/drone_parachute/build/core/core.a(usb_regs.c.o)
SetEPTxCount                                      /mnt/Workspace/drone_parachute/build/core/core.a(usb_regs.c.o)
                                                  /mnt/Workspace/drone_parachute/build/core/core.a(usb_core.c.o)
SetEPTxStatus                                     /mnt/Workspace/drone_parachute/build/core/core.a(usb_regs.c.o)
                                                  /mnt/Workspace/drone_parachute/build/core/core.a(usb_core.c.o)
SetEPTxValid                                      /mnt/Workspace/drone_parachute/build/core/core.a(usb_regs.c.o)
SetEPType                                         /mnt/Workspace/drone_parachute/build/core/core.a(usb_regs.c.o)
SetEP_KIND                                        /mnt/Workspace/drone_parachute/build/core/core.a(usb_regs.c.o)
SetISTR                                           /mnt/Workspace/drone_parachute/build/core/core.a(usb_regs.c.o)
Set_Status_Out                                    /mnt/Workspace/drone_parachute/build/core/core.a(usb_regs.c.o)
Setup0_Process                                    /mnt/Workspace/drone_parachute/build/core/core.a(usb_core.c.o)
                                                  /mnt/Workspace/drone_parachute/build/core/core.a(usb.c.o)
SoftWire::SoftWire(unsigned char, unsigned char, unsigned char) /mnt/Workspace/drone_parachute/build/libraries/Wire/SoftWire.cpp.o
SoftWire::SoftWire(unsigned char, unsigned char, unsigned char) /mnt/Workspace/drone_parachute/build/libraries/Wire/SoftWire.cpp.o
SoftWire::begin(unsigned char)                    /mnt/Workspace/drone_parachute/build/libraries/Wire/SoftWire.cpp.o
SoftWire::end()                                   /mnt/Workspace/drone_parachute/build/libraries/Wire/SoftWire.cpp.o
SoftWire::i2c_get_ack()                           /mnt/Workspace/drone_parachute/build/libraries/Wire/SoftWire.cpp.o
SoftWire::i2c_repeated_start()                    /mnt/Workspace/drone_parachute/build/libraries/Wire/SoftWire.cpp.o
SoftWire::i2c_send_ack()                          /mnt/Workspace/drone_parachute/build/libraries/Wire/SoftWire.cpp.o
SoftWire::i2c_send_nack()                         /mnt/Workspace/drone_parachute/build/libraries/Wire/SoftWire.cpp.o
SoftWire::i2c_shift_in()                          /mnt/Workspace/drone_parachute/build/libraries/Wire/SoftWire.cpp.o
SoftWire::i2c_shift_out(unsigned char)            /mnt/Workspace/drone_parachute/build/libraries/Wire/SoftWire.cpp.o
SoftWire::i2c_start()                             /mnt/Workspace/drone_parachute/build/libraries/Wire/SoftWire.cpp.o
SoftWire::i2c_stop()                              /mnt/Workspace/drone_parachute/build/libraries/Wire/SoftWire.cpp.o
SoftWire::process()                               /mnt/Workspace/drone_parachute/build/libraries/Wire/SoftWire.cpp.o
SoftWire::process(unsigned char)                  /mnt/Workspace/drone_parachute/build/libraries/Wire/SoftWire.cpp.o
SoftWire::setClock(unsigned long)                 /mnt/Workspace/drone_parachute/build/libraries/Wire/SoftWire.cpp.o
SoftWire::set_scl(bool)                           /mnt/Workspace/drone_parachute/build/libraries/Wire/SoftWire.cpp.o
SoftWire::set_sda(bool)                           /mnt/Workspace/drone_parachute/build/libraries/Wire/SoftWire.cpp.o
SoftWire::~SoftWire()                             /mnt/Workspace/drone_parachute/build/libraries/Wire/SoftWire.cpp.o
SoftWire::~SoftWire()                             /mnt/Workspace/drone_parachute/build/libraries/Wire/SoftWire.cpp.o
Standard_ClearFeature                             /mnt/Workspace/drone_parachute/build/core/core.a(usb_core.c.o)
Standard_GetConfiguration                         /mnt/Workspace/drone_parachute/build/core/core.a(usb_core.c.o)
Standard_GetDescriptorData                        /mnt/Workspace/drone_parachute/build/core/core.a(usb_core.c.o)
                                                  /mnt/Workspace/drone_parachute/build/core/core.a(usb_cdcacm.c.o)
Standard_GetInterface                             /mnt/Workspace/drone_parachute/build/core/core.a(usb_core.c.o)
Standard_GetStatus                                /mnt/Workspace/drone_parachute/build/core/core.a(usb_core.c.o)
Standard_SetConfiguration                         /mnt/Workspace/drone_parachute/build/core/core.a(usb_core.c.o)
Standard_SetDeviceFeature                         /mnt/Workspace/drone_parachute/build/core/core.a(usb_core.c.o)
Standard_SetEndPointFeature                       /mnt/Workspace/drone_parachute/build/core/core.a(usb_core.c.o)
Standard_SetInterface                             /mnt/Workspace/drone_parachute/build/core/core.a(usb_core.c.o)
StatusInfo                                        /mnt/Workspace/drone_parachute/build/core/core.a(usb_core.c.o)
TIMER1                                            /mnt/Workspace/drone_parachute/build/core/core.a(timer.c.o)
TIMER2                                            /mnt/Workspace/drone_parachute/build/core/core.a(timer.c.o)
TIMER3                                            /mnt/Workspace/drone_parachute/build/core/core.a(timer.c.o)
TIMER4                                            /mnt/Workspace/drone_parachute/build/core/core.a(timer.c.o)
ToWord                                            /mnt/Workspace/drone_parachute/build/core/core.a(usb_regs.c.o)
ToggleDTOG_RX                                     /mnt/Workspace/drone_parachute/build/core/core.a(usb_regs.c.o)
ToggleDTOG_TX                                     /mnt/Workspace/drone_parachute/build/core/core.a(usb_regs.c.o)
TwoWire::TwoWire(unsigned char, unsigned char, unsigned long) /mnt/Workspace/drone_parachute/build/libraries/Wire/Wire.cpp.o
TwoWire::TwoWire(unsigned char, unsigned char, unsigned long) /mnt/Workspace/drone_parachute/build/libraries/Wire/Wire.cpp.o
TwoWire::begin(unsigned char)                     /mnt/Workspace/drone_parachute/build/libraries/Wire/Wire.cpp.o
TwoWire::end()                                    /mnt/Workspace/drone_parachute/build/libraries/Wire/Wire.cpp.o
TwoWire::process()                                /mnt/Workspace/drone_parachute/build/libraries/Wire/Wire.cpp.o
TwoWire::process(unsigned char)                   /mnt/Workspace/drone_parachute/build/libraries/Wire/Wire.cpp.o
TwoWire::setClock(unsigned long)                  /mnt/Workspace/drone_parachute/build/libraries/Wire/Wire.cpp.o
                                                  /mnt/Workspace/drone_parachute/build/libraries/Bolder_Flight_Systems_MPU9250/MPU9250.cpp.o
TwoWire::~TwoWire()                               /mnt/Workspace/drone_parachute/build/libraries/Wire/Wire.cpp.o
TwoWire::~TwoWire()                               /mnt/Workspace/drone_parachute/build/libraries/Wire/Wire.cpp.o
USART1                                            /mnt/Workspace/drone_parachute/build/core/core.a(usart_f1.c.o)
                                                  /mnt/Workspace/drone_parachute/build/core/board.cpp.o
USART2                                            /mnt/Workspace/drone_parachute/build/core/core.a(usart_f1.c.o)
                                                  /mnt/Workspace/drone_parachute/build/core/board.cpp.o
USART3                                            /mnt/Workspace/drone_parachute/build/core/core.a(usart_f1.c.o)
                                                  /mnt/Workspace/drone_parachute/build/core/board.cpp.o
USBLIB                                            /mnt/Workspace/drone_parachute/build/core/core.a(usb.c.o)
                                                  /mnt/Workspace/drone_parachute/build/core/core.a(usb_cdcacm.c.o)
USB_Init                                          /mnt/Workspace/drone_parachute/build/core/core.a(usb_init.c.o)
UserToPMABufferCopy                               /mnt/Workspace/drone_parachute/build/core/core.a(usb_mem.c.o)
                                                  /mnt/Workspace/drone_parachute/build/core/core.a(usb_core.c.o)
User_Standard_Requests                            /mnt/Workspace/drone_parachute/build/core/core.a(usb_cdcacm.c.o)
                                                  /mnt/Workspace/drone_parachute/build/core/core.a(usb_init.c.o)
                                                  /mnt/Workspace/drone_parachute/build/core/core.a(usb.c.o)
Wire                                              /mnt/Workspace/drone_parachute/build/libraries/Wire/Wire.cpp.o
                                                  /mnt/Workspace/drone_parachute/build/sketch/main.ino.cpp.o
WireBase::available()                             /mnt/Workspace/drone_parachute/build/libraries/Wire/utility/WireBase.cpp.o
WireBase::begin(unsigned char)                    /mnt/Workspace/drone_parachute/build/libraries/Wire/utility/WireBase.cpp.o
WireBase::beginTransmission(int)                  /mnt/Workspace/drone_parachute/build/libraries/Wire/utility/WireBase.cpp.o
WireBase::beginTransmission(unsigned char)        /mnt/Workspace/drone_parachute/build/libraries/Wire/utility/WireBase.cpp.o
                                                  /mnt/Workspace/drone_parachute/build/libraries/Bolder_Flight_Systems_MPU9250/MPU9250.cpp.o
WireBase::end()                                   /mnt/Workspace/drone_parachute/build/libraries/Wire/utility/WireBase.cpp.o
WireBase::endTransmission()                       /mnt/Workspace/drone_parachute/build/libraries/Wire/utility/WireBase.cpp.o
                                                  /mnt/Workspace/drone_parachute/build/libraries/Bolder_Flight_Systems_MPU9250/MPU9250.cpp.o
WireBase::endTransmission(bool)                   /mnt/Workspace/drone_parachute/build/libraries/Wire/utility/WireBase.cpp.o
                                                  /mnt/Workspace/drone_parachute/build/libraries/Bolder_Flight_Systems_MPU9250/MPU9250.cpp.o
WireBase::read()                                  /mnt/Workspace/drone_parachute/build/libraries/Wire/utility/WireBase.cpp.o
                                                  /mnt/Workspace/drone_parachute/build/libraries/Bolder_Flight_Systems_MPU9250/MPU9250.cpp.o
WireBase::requestFrom(int, int, bool)             /mnt/Workspace/drone_parachute/build/libraries/Wire/utility/WireBase.cpp.o
WireBase::requestFrom(unsigned char, int, bool)   /mnt/Workspace/drone_parachute/build/libraries/Wire/utility/WireBase.cpp.o
                                                  /mnt/Workspace/drone_parachute/build/libraries/Bolder_Flight_Systems_MPU9250/MPU9250.cpp.o
WireBase::write(char*)                            /mnt/Workspace/drone_parachute/build/libraries/Wire/utility/WireBase.cpp.o
WireBase::write(int)                              /mnt/Workspace/drone_parachute/build/libraries/Wire/utility/WireBase.cpp.o
WireBase::write(int*, int)                        /mnt/Workspace/drone_parachute/build/libraries/Wire/utility/WireBase.cpp.o
WireBase::write(unsigned char)                    /mnt/Workspace/drone_parachute/build/libraries/Wire/utility/WireBase.cpp.o
                                                  /mnt/Workspace/drone_parachute/build/libraries/Bolder_Flight_Systems_MPU9250/MPU9250.cpp.o
WireBase::write(unsigned char*, int)              /mnt/Workspace/drone_parachute/build/libraries/Wire/utility/WireBase.cpp.o
_Jv_RegisterClasses                               /home/param/.arduino15/packages/arduino/tools/arm-none-eabi-gcc/4.8.3-2014q1/bin/../lib/gcc/arm-none-eabi/4.8.3/armv7-m/crtbegin.o
__adddf3                                          /home/param/.arduino15/packages/arduino/tools/arm-none-eabi-gcc/4.8.3-2014q1/bin/../lib/gcc/arm-none-eabi/4.8.3/armv7-m/libgcc.a(_arm_addsubdf3.o)
__addsf3                                          /home/param/.arduino15/packages/arduino/tools/arm-none-eabi-gcc/4.8.3-2014q1/bin/../lib/gcc/arm-none-eabi/4.8.3/armv7-m/libgcc.a(_arm_addsubsf3.o)
__aeabi_cdcmpeq                                   /home/param/.arduino15/packages/arduino/tools/arm-none-eabi-gcc/4.8.3-2014q1/bin/../lib/gcc/arm-none-eabi/4.8.3/armv7-m/libgcc.a(_arm_cmpdf2.o)
__aeabi_cdcmple                                   /home/param/.arduino15/packages/arduino/tools/arm-none-eabi-gcc/4.8.3-2014q1/bin/../lib/gcc/arm-none-eabi/4.8.3/armv7-m/libgcc.a(_arm_cmpdf2.o)
__aeabi_cdrcmple                                  /home/param/.arduino15/packages/arduino/tools/arm-none-eabi-gcc/4.8.3-2014q1/bin/../lib/gcc/arm-none-eabi/4.8.3/armv7-m/libgcc.a(_arm_cmpdf2.o)
__aeabi_cfcmpeq                                   /home/param/.arduino15/packages/arduino/tools/arm-none-eabi-gcc/4.8.3-2014q1/bin/../lib/gcc/arm-none-eabi/4.8.3/armv7-m/libgcc.a(_arm_cmpsf2.o)
__aeabi_cfcmple                                   /home/param/.arduino15/packages/arduino/tools/arm-none-eabi-gcc/4.8.3-2014q1/bin/../lib/gcc/arm-none-eabi/4.8.3/armv7-m/libgcc.a(_arm_cmpsf2.o)
__aeabi_cfrcmple                                  /home/param/.arduino15/packages/arduino/tools/arm-none-eabi-gcc/4.8.3-2014q1/bin/../lib/gcc/arm-none-eabi/4.8.3/armv7-m/libgcc.a(_arm_cmpsf2.o)
__aeabi_d2f                                       /home/param/.arduino15/packages/arduino/tools/arm-none-eabi-gcc/4.8.3-2014q1/bin/../lib/gcc/arm-none-eabi/4.8.3/armv7-m/libgcc.a(_arm_truncdfsf2.o)
                                                  /mnt/Workspace/drone_parachute/build/libraries/Bolder_Flight_Systems_MPU9250/MPU9250.cpp.o
                                                  /mnt/Workspace/drone_parachute/build/sketch/main.ino.cpp.o
__aeabi_d2iz                                      /home/param/.arduino15/packages/arduino/tools/arm-none-eabi-gcc/4.8.3-2014q1/bin/../lib/gcc/arm-none-eabi/4.8.3/armv7-m/libgcc.a(_arm_fixdfsi.o)
                                                  /mnt/Workspace/drone_parachute/build/core/core.a(Print.cpp.o)
__aeabi_d2lz                                      /home/param/.arduino15/packages/arduino/tools/arm-none-eabi-gcc/4.8.3-2014q1/bin/../lib/gcc/arm-none-eabi/4.8.3/armv7-m/libgcc.a(_fixdfdi.o)
                                                  /mnt/Workspace/drone_parachute/build/core/core.a(Print.cpp.o)
__aeabi_d2uiz                                     /home/param/.arduino15/packages/arduino/tools/arm-none-eabi-gcc/4.8.3-2014q1/bin/../lib/gcc/arm-none-eabi/4.8.3/armv7-m/libgcc.a(_arm_fixunsdfsi.o)
                                                  /home/param/.arduino15/packages/arduino/tools/arm-none-eabi-gcc/4.8.3-2014q1/bin/../lib/gcc/arm-none-eabi/4.8.3/armv7-m/libgcc.a(_fixunsdfdi.o)
__aeabi_d2ulz                                     /home/param/.arduino15/packages/arduino/tools/arm-none-eabi-gcc/4.8.3-2014q1/bin/../lib/gcc/arm-none-eabi/4.8.3/armv7-m/libgcc.a(_fixunsdfdi.o)
                                                  /home/param/.arduino15/packages/arduino/tools/arm-none-eabi-gcc/4.8.3-2014q1/bin/../lib/gcc/arm-none-eabi/4.8.3/armv7-m/libgcc.a(_fixdfdi.o)
__aeabi_dadd                                      /home/param/.arduino15/packages/arduino/tools/arm-none-eabi-gcc/4.8.3-2014q1/bin/../lib/gcc/arm-none-eabi/4.8.3/armv7-m/libgcc.a(_arm_addsubdf3.o)
                                                  /home/param/.arduino15/packages/arduino/tools/arm-none-eabi-gcc/4.8.3-2014q1/bin/../lib/gcc/arm-none-eabi/4.8.3/../../../../arm-none-eabi/lib/armv7-m/libm.a(lib_a-e_sqrt.o)
                                                  /mnt/Workspace/drone_parachute/build/core/core.a(Print.cpp.o)
                                                  /mnt/Workspace/drone_parachute/build/libraries/Bolder_Flight_Systems_MPU9250/MPU9250.cpp.o
__aeabi_dcmpeq                                    /home/param/.arduino15/packages/arduino/tools/arm-none-eabi-gcc/4.8.3-2014q1/bin/../lib/gcc/arm-none-eabi/4.8.3/armv7-m/libgcc.a(_arm_cmpdf2.o)
__aeabi_dcmpge                                    /home/param/.arduino15/packages/arduino/tools/arm-none-eabi-gcc/4.8.3-2014q1/bin/../lib/gcc/arm-none-eabi/4.8.3/armv7-m/libgcc.a(_arm_cmpdf2.o)
                                                  /mnt/Workspace/drone_parachute/build/core/core.a(Print.cpp.o)
__aeabi_dcmpgt                                    /home/param/.arduino15/packages/arduino/tools/arm-none-eabi-gcc/4.8.3-2014q1/bin/../lib/gcc/arm-none-eabi/4.8.3/armv7-m/libgcc.a(_arm_cmpdf2.o)
                                                  /mnt/Workspace/drone_parachute/build/core/core.a(Print.cpp.o)
                                                  /mnt/Workspace/drone_parachute/build/libraries/Bolder_Flight_Systems_MPU9250/MPU9250.cpp.o
                                                  /mnt/Workspace/drone_parachute/build/sketch/main.ino.cpp.o
__aeabi_dcmple                                    /home/param/.arduino15/packages/arduino/tools/arm-none-eabi-gcc/4.8.3-2014q1/bin/../lib/gcc/arm-none-eabi/4.8.3/armv7-m/libgcc.a(_arm_cmpdf2.o)
                                                  /mnt/Workspace/drone_parachute/build/core/core.a(Print.cpp.o)
                                                  /mnt/Workspace/drone_parachute/build/sketch/main.ino.cpp.o
__aeabi_dcmplt                                    /home/param/.arduino15/packages/arduino/tools/arm-none-eabi-gcc/4.8.3-2014q1/bin/../lib/gcc/arm-none-eabi/4.8.3/armv7-m/libgcc.a(_arm_cmpdf2.o)
                                                  /home/param/.arduino15/packages/arduino/tools/arm-none-eabi-gcc/4.8.3-2014q1/bin/../lib/gcc/arm-none-eabi/4.8.3/armv7-m/libgcc.a(_fixdfdi.o)
                                                  /home/param/.arduino15/packages/arduino/tools/arm-none-eabi-gcc/4.8.3-2014q1/bin/../lib/gcc/arm-none-eabi/4.8.3/../../../../arm-none-eabi/lib/armv7-m/libm.a(lib_a-w_sqrt.o)
                                                  /mnt/Workspace/drone_parachute/build/core/core.a(Print.cpp.o)
                                                  /mnt/Workspace/drone_parachute/build/libraries/Bolder_Flight_Systems_MPU9250/MPU9250.cpp.o
__aeabi_ddiv                                      /home/param/.arduino15/packages/arduino/tools/arm-none-eabi-gcc/4.8.3-2014q1/bin/../lib/gcc/arm-none-eabi/4.8.3/armv7-m/libgcc.a(_arm_muldivdf3.o)
                                                  /home/param/.arduino15/packages/arduino/tools/arm-none-eabi-gcc/4.8.3-2014q1/bin/../lib/gcc/arm-none-eabi/4.8.3/../../../../arm-none-eabi/lib/armv7-m/libm.a(lib_a-e_sqrt.o)
                                                  /home/param/.arduino15/packages/arduino/tools/arm-none-eabi-gcc/4.8.3-2014q1/bin/../lib/gcc/arm-none-eabi/4.8.3/../../../../arm-none-eabi/lib/armv7-m/libm.a(lib_a-w_sqrt.o)
                                                  /mnt/Workspace/drone_parachute/build/core/core.a(Print.cpp.o)
                                                  /mnt/Workspace/drone_parachute/build/libraries/Bolder_Flight_Systems_MPU9250/MPU9250.cpp.o
__aeabi_dmul                                      /home/param/.arduino15/packages/arduino/tools/arm-none-eabi-gcc/4.8.3-2014q1/bin/../lib/gcc/arm-none-eabi/4.8.3/armv7-m/libgcc.a(_arm_muldivdf3.o)
                                                  /home/param/.arduino15/packages/arduino/tools/arm-none-eabi-gcc/4.8.3-2014q1/bin/../lib/gcc/arm-none-eabi/4.8.3/armv7-m/libgcc.a(_fixunsdfdi.o)
                                                  /home/param/.arduino15/packages/arduino/tools/arm-none-eabi-gcc/4.8.3-2014q1/bin/../lib/gcc/arm-none-eabi/4.8.3/../../../../arm-none-eabi/lib/armv7-m/libm.a(lib_a-e_sqrt.o)
                                                  /mnt/Workspace/drone_parachute/build/core/core.a(Print.cpp.o)
__aeabi_drsub                                     /home/param/.arduino15/packages/arduino/tools/arm-none-eabi-gcc/4.8.3-2014q1/bin/../lib/gcc/arm-none-eabi/4.8.3/armv7-m/libgcc.a(_arm_addsubdf3.o)
__aeabi_dsub                                      /home/param/.arduino15/packages/arduino/tools/arm-none-eabi-gcc/4.8.3-2014q1/bin/../lib/gcc/arm-none-eabi/4.8.3/armv7-m/libgcc.a(_arm_addsubdf3.o)
                                                  /home/param/.arduino15/packages/arduino/tools/arm-none-eabi-gcc/4.8.3-2014q1/bin/../lib/gcc/arm-none-eabi/4.8.3/armv7-m/libgcc.a(_fixunsdfdi.o)
                                                  /home/param/.arduino15/packages/arduino/tools/arm-none-eabi-gcc/4.8.3-2014q1/bin/../lib/gcc/arm-none-eabi/4.8.3/../../../../arm-none-eabi/lib/armv7-m/libm.a(lib_a-e_sqrt.o)
                                                  /mnt/Workspace/drone_parachute/build/core/core.a(Print.cpp.o)
                                                  /mnt/Workspace/drone_parachute/build/sketch/main.ino.cpp.o
__aeabi_f2d                                       /home/param/.arduino15/packages/arduino/tools/arm-none-eabi-gcc/4.8.3-2014q1/bin/../lib/gcc/arm-none-eabi/4.8.3/armv7-m/libgcc.a(_arm_addsubdf3.o)
                                                  /mnt/Workspace/drone_parachute/build/libraries/Bolder_Flight_Systems_MPU9250/MPU9250.cpp.o
                                                  /mnt/Workspace/drone_parachute/build/sketch/main.ino.cpp.o
__aeabi_f2iz                                      /home/param/.arduino15/packages/arduino/tools/arm-none-eabi-gcc/4.8.3-2014q1/bin/../lib/gcc/arm-none-eabi/4.8.3/armv7-m/libgcc.a(_arm_fixsfsi.o)
                                                  /mnt/Workspace/drone_parachute/build/libraries/Bolder_Flight_Systems_MPU9250/MPU9250.cpp.o
__aeabi_fadd                                      /home/param/.arduino15/packages/arduino/tools/arm-none-eabi-gcc/4.8.3-2014q1/bin/../lib/gcc/arm-none-eabi/4.8.3/armv7-m/libgcc.a(_arm_addsubsf3.o)
                                                  /mnt/Workspace/drone_parachute/build/libraries/Bolder_Flight_Systems_MPU9250/MPU9250.cpp.o
                                                  /mnt/Workspace/drone_parachute/build/sketch/main.ino.cpp.o
__aeabi_fcmpeq                                    /home/param/.arduino15/packages/arduino/tools/arm-none-eabi-gcc/4.8.3-2014q1/bin/../lib/gcc/arm-none-eabi/4.8.3/armv7-m/libgcc.a(_arm_cmpsf2.o)
__aeabi_fcmpge                                    /home/param/.arduino15/packages/arduino/tools/arm-none-eabi-gcc/4.8.3-2014q1/bin/../lib/gcc/arm-none-eabi/4.8.3/armv7-m/libgcc.a(_arm_cmpsf2.o)
                                                  /mnt/Workspace/drone_parachute/build/sketch/main.ino.cpp.o
__aeabi_fcmpgt                                    /home/param/.arduino15/packages/arduino/tools/arm-none-eabi-gcc/4.8.3-2014q1/bin/../lib/gcc/arm-none-eabi/4.8.3/armv7-m/libgcc.a(_arm_cmpsf2.o)
                                                  /mnt/Workspace/drone_parachute/build/libraries/Bolder_Flight_Systems_MPU9250/MPU9250.cpp.o
                                                  /mnt/Workspace/drone_parachute/build/sketch/main.ino.cpp.o
__aeabi_fcmple                                    /home/param/.arduino15/packages/arduino/tools/arm-none-eabi-gcc/4.8.3-2014q1/bin/../lib/gcc/arm-none-eabi/4.8.3/armv7-m/libgcc.a(_arm_cmpsf2.o)
                                                  /mnt/Workspace/drone_parachute/build/sketch/main.ino.cpp.o
__aeabi_fcmplt                                    /home/param/.arduino15/packages/arduino/tools/arm-none-eabi-gcc/4.8.3-2014q1/bin/../lib/gcc/arm-none-eabi/4.8.3/armv7-m/libgcc.a(_arm_cmpsf2.o)
                                                  /mnt/Workspace/drone_parachute/build/libraries/Bolder_Flight_Systems_MPU9250/MPU9250.cpp.o
                                                  /mnt/Workspace/drone_parachute/build/sketch/main.ino.cpp.o
__aeabi_fdiv                                      /home/param/.arduino15/packages/arduino/tools/arm-none-eabi-gcc/4.8.3-2014q1/bin/../lib/gcc/arm-none-eabi/4.8.3/armv7-m/libgcc.a(_arm_muldivsf3.o)
                                                  /mnt/Workspace/drone_parachute/build/libraries/Bolder_Flight_Systems_MPU9250/MPU9250.cpp.o
__aeabi_fmul                                      /home/param/.arduino15/packages/arduino/tools/arm-none-eabi-gcc/4.8.3-2014q1/bin/../lib/gcc/arm-none-eabi/4.8.3/armv7-m/libgcc.a(_arm_muldivsf3.o)
                                                  /mnt/Workspace/drone_parachute/build/libraries/Bolder_Flight_Systems_MPU9250/MPU9250.cpp.o
                                                  /mnt/Workspace/drone_parachute/build/sketch/main.ino.cpp.o
__aeabi_frsub                                     /home/param/.arduino15/packages/arduino/tools/arm-none-eabi-gcc/4.8.3-2014q1/bin/../lib/gcc/arm-none-eabi/4.8.3/armv7-m/libgcc.a(_arm_addsubsf3.o)
__aeabi_fsub                                      /home/param/.arduino15/packages/arduino/tools/arm-none-eabi-gcc/4.8.3-2014q1/bin/../lib/gcc/arm-none-eabi/4.8.3/armv7-m/libgcc.a(_arm_addsubsf3.o)
                                                  /mnt/Workspace/drone_parachute/build/libraries/Bolder_Flight_Systems_MPU9250/MPU9250.cpp.o
__aeabi_i2d                                       /home/param/.arduino15/packages/arduino/tools/arm-none-eabi-gcc/4.8.3-2014q1/bin/../lib/gcc/arm-none-eabi/4.8.3/armv7-m/libgcc.a(_arm_addsubdf3.o)
                                                  /mnt/Workspace/drone_parachute/build/core/core.a(Print.cpp.o)
__aeabi_i2f                                       /home/param/.arduino15/packages/arduino/tools/arm-none-eabi-gcc/4.8.3-2014q1/bin/../lib/gcc/arm-none-eabi/4.8.3/armv7-m/libgcc.a(_arm_addsubsf3.o)
                                                  /mnt/Workspace/drone_parachute/build/libraries/Bolder_Flight_Systems_MPU9250/MPU9250.cpp.o
                                                  /mnt/Workspace/drone_parachute/build/sketch/main.ino.cpp.o
__aeabi_idiv0                                     /home/param/.arduino15/packages/arduino/tools/arm-none-eabi-gcc/4.8.3-2014q1/bin/../lib/gcc/arm-none-eabi/4.8.3/armv7-m/libgcc.a(_dvmd_tls.o)
__aeabi_l2d                                       /home/param/.arduino15/packages/arduino/tools/arm-none-eabi-gcc/4.8.3-2014q1/bin/../lib/gcc/arm-none-eabi/4.8.3/armv7-m/libgcc.a(_arm_addsubdf3.o)
                                                  /mnt/Workspace/drone_parachute/build/core/core.a(Print.cpp.o)
__aeabi_l2f                                       /home/param/.arduino15/packages/arduino/tools/arm-none-eabi-gcc/4.8.3-2014q1/bin/../lib/gcc/arm-none-eabi/4.8.3/armv7-m/libgcc.a(_arm_addsubsf3.o)
__aeabi_ldiv0                                     /home/param/.arduino15/packages/arduino/tools/arm-none-eabi-gcc/4.8.3-2014q1/bin/../lib/gcc/arm-none-eabi/4.8.3/armv7-m/libgcc.a(_dvmd_tls.o)
                                                  /home/param/.arduino15/packages/arduino/tools/arm-none-eabi-gcc/4.8.3-2014q1/bin/../lib/gcc/arm-none-eabi/4.8.3/armv7-m/libgcc.a(_aeabi_uldivmod.o)
                                                  /home/param/.arduino15/packages/arduino/tools/arm-none-eabi-gcc/4.8.3-2014q1/bin/../lib/gcc/arm-none-eabi/4.8.3/armv7-m/libgcc.a(_aeabi_ldivmod.o)
__aeabi_ldivmod                                   /home/param/.arduino15/packages/arduino/tools/arm-none-eabi-gcc/4.8.3-2014q1/bin/../lib/gcc/arm-none-eabi/4.8.3/armv7-m/libgcc.a(_aeabi_ldivmod.o)
                                                  /mnt/Workspace/drone_parachute/build/libraries/Servo/Servo.cpp.o
                                                  /mnt/Workspace/drone_parachute/build/libraries/Bolder_Flight_Systems_MPU9250/MPU9250.cpp.o
__aeabi_ui2d                                      /home/param/.arduino15/packages/arduino/tools/arm-none-eabi-gcc/4.8.3-2014q1/bin/../lib/gcc/arm-none-eabi/4.8.3/armv7-m/libgcc.a(_arm_addsubdf3.o)
                                                  /home/param/.arduino15/packages/arduino/tools/arm-none-eabi-gcc/4.8.3-2014q1/bin/../lib/gcc/arm-none-eabi/4.8.3/armv7-m/libgcc.a(_fixunsdfdi.o)
                                                  /mnt/Workspace/drone_parachute/build/libraries/Bolder_Flight_Systems_MPU9250/MPU9250.cpp.o
__aeabi_ui2f                                      /home/param/.arduino15/packages/arduino/tools/arm-none-eabi-gcc/4.8.3-2014q1/bin/../lib/gcc/arm-none-eabi/4.8.3/armv7-m/libgcc.a(_arm_addsubsf3.o)
                                                  /mnt/Workspace/drone_parachute/build/libraries/Bolder_Flight_Systems_MPU9250/MPU9250.cpp.o
__aeabi_ul2d                                      /home/param/.arduino15/packages/arduino/tools/arm-none-eabi-gcc/4.8.3-2014q1/bin/../lib/gcc/arm-none-eabi/4.8.3/armv7-m/libgcc.a(_arm_addsubdf3.o)
__aeabi_ul2f                                      /home/param/.arduino15/packages/arduino/tools/arm-none-eabi-gcc/4.8.3-2014q1/bin/../lib/gcc/arm-none-eabi/4.8.3/armv7-m/libgcc.a(_arm_addsubsf3.o)
__aeabi_uldivmod                                  /home/param/.arduino15/packages/arduino/tools/arm-none-eabi-gcc/4.8.3-2014q1/bin/../lib/gcc/arm-none-eabi/4.8.3/armv7-m/libgcc.a(_aeabi_uldivmod.o)
                                                  /mnt/Workspace/drone_parachute/build/core/core.a(Print.cpp.o)
__assert_func                                     /mnt/Workspace/drone_parachute/build/core/core.a(util.c.o)
__bss_end__                                       /mnt/Workspace/drone_parachute/build/core/wirish/start_c.c.o
                                                  /home/param/.arduino15/packages/arduino/tools/arm-none-eabi-gcc/4.8.3-2014q1/bin/../lib/gcc/arm-none-eabi/4.8.3/../../../../arm-none-eabi/lib/armv7-m/crt0.o
__bss_start__                                     /mnt/Workspace/drone_parachute/build/core/wirish/start_c.c.o
                                                  /home/param/.arduino15/packages/arduino/tools/arm-none-eabi-gcc/4.8.3-2014q1/bin/../lib/gcc/arm-none-eabi/4.8.3/../../../../arm-none-eabi/lib/armv7-m/crt0.o
__call_exitprocs                                  /home/param/.arduino15/packages/arduino/tools/arm-none-eabi-gcc/4.8.3-2014q1/bin/../lib/gcc/arm-none-eabi/4.8.3/../../../../arm-none-eabi/lib/armv7-m/libc.a(lib_a-__call_atexit.o)
                                                  /home/param/.arduino15/packages/arduino/tools/arm-none-eabi-gcc/4.8.3-2014q1/bin/../lib/gcc/arm-none-eabi/4.8.3/../../../../arm-none-eabi/lib/armv7-m/libc.a(lib_a-exit.o)
__cmpdf2                                          /home/param/.arduino15/packages/arduino/tools/arm-none-eabi-gcc/4.8.3-2014q1/bin/../lib/gcc/arm-none-eabi/4.8.3/armv7-m/libgcc.a(_arm_cmpdf2.o)
__cmpsf2                                          /home/param/.arduino15/packages/arduino/tools/arm-none-eabi-gcc/4.8.3-2014q1/bin/../lib/gcc/arm-none-eabi/4.8.3/armv7-m/libgcc.a(_arm_cmpsf2.o)
__cxa_demangle                                    /mnt/Workspace/drone_parachute/build/core/core.a(cxxabi-compat.cpp.o)
__cxa_pure_virtual                                /mnt/Workspace/drone_parachute/build/core/core.a(cxxabi-compat.cpp.o)
                                                  /mnt/Workspace/drone_parachute/build/core/core.a(Print.cpp.o)
                                                  /mnt/Workspace/drone_parachute/build/core/core.a(HardwareSerial.cpp.o)
                                                  /mnt/Workspace/drone_parachute/build/libraries/Wire/utility/WireBase.cpp.o
__data_end__                                      /mnt/Workspace/drone_parachute/build/core/wirish/start_c.c.o
__data_start__                                    /mnt/Workspace/drone_parachute/build/core/wirish/start_c.c.o
__default_handler                                 /mnt/Workspace/drone_parachute/build/core/core.a(isrs.S.o)
__deregister_frame_info                           /home/param/.arduino15/packages/arduino/tools/arm-none-eabi-gcc/4.8.3-2014q1/bin/../lib/gcc/arm-none-eabi/4.8.3/armv7-m/crtbegin.o
__divdf3                                          /home/param/.arduino15/packages/arduino/tools/arm-none-eabi-gcc/4.8.3-2014q1/bin/../lib/gcc/arm-none-eabi/4.8.3/armv7-m/libgcc.a(_arm_muldivdf3.o)
__divdi3                                          /home/param/.arduino15/packages/arduino/tools/arm-none-eabi-gcc/4.8.3-2014q1/bin/../lib/gcc/arm-none-eabi/4.8.3/armv7-m/libgcc.a(_divdi3.o)
                                                  /home/param/.arduino15/packages/arduino/tools/arm-none-eabi-gcc/4.8.3-2014q1/bin/../lib/gcc/arm-none-eabi/4.8.3/armv7-m/libgcc.a(bpabi.o)
__divsf3                                          /home/param/.arduino15/packages/arduino/tools/arm-none-eabi-gcc/4.8.3-2014q1/bin/../lib/gcc/arm-none-eabi/4.8.3/armv7-m/libgcc.a(_arm_muldivsf3.o)
__dso_handle                                      /home/param/.arduino15/packages/arduino/tools/arm-none-eabi-gcc/4.8.3-2014q1/bin/../lib/gcc/arm-none-eabi/4.8.3/armv7-m/crtbegin.o
__eqdf2                                           /home/param/.arduino15/packages/arduino/tools/arm-none-eabi-gcc/4.8.3-2014q1/bin/../lib/gcc/arm-none-eabi/4.8.3/armv7-m/libgcc.a(_arm_cmpdf2.o)
__eqsf2                                           /home/param/.arduino15/packages/arduino/tools/arm-none-eabi-gcc/4.8.3-2014q1/bin/../lib/gcc/arm-none-eabi/4.8.3/armv7-m/libgcc.a(_arm_cmpsf2.o)
__errno                                           /home/param/.arduino15/packages/arduino/tools/arm-none-eabi-gcc/4.8.3-2014q1/bin/../lib/gcc/arm-none-eabi/4.8.3/../../../../arm-none-eabi/lib/armv7-m/libc.a(lib_a-errno.o)
                                                  /home/param/.arduino15/packages/arduino/tools/arm-none-eabi-gcc/4.8.3-2014q1/bin/../lib/gcc/arm-none-eabi/4.8.3/../../../../arm-none-eabi/lib/armv7-m/libm.a(lib_a-w_sqrt.o)
                                                  /mnt/Workspace/drone_parachute/build/core/wirish/syscalls.c.o
__error                                           /mnt/Workspace/drone_parachute/build/core/core.a(util.c.o)
                                                  /mnt/Workspace/drone_parachute/build/core/core.a(exc.S.o)
__exc_busfault                                    /mnt/Workspace/drone_parachute/build/core/core.a(exc.S.o)
                                                  /mnt/Workspace/drone_parachute/build/core/core.a(vector_table.S.o)
__exc_debug_monitor                               /mnt/Workspace/drone_parachute/build/core/core.a(isrs.S.o)
                                                  /mnt/Workspace/drone_parachute/build/core/core.a(vector_table.S.o)
__exc_hardfault                                   /mnt/Workspace/drone_parachute/build/core/core.a(exc.S.o)
                                                  /mnt/Workspace/drone_parachute/build/core/core.a(vector_table.S.o)
__exc_memmanage                                   /mnt/Workspace/drone_parachute/build/core/core.a(exc.S.o)
                                                  /mnt/Workspace/drone_parachute/build/core/core.a(vector_table.S.o)
__exc_nmi                                         /mnt/Workspace/drone_parachute/build/core/core.a(exc.S.o)
                                                  /mnt/Workspace/drone_parachute/build/core/core.a(vector_table.S.o)
__exc_pendsv                                      /mnt/Workspace/drone_parachute/build/core/core.a(isrs.S.o)
                                                  /mnt/Workspace/drone_parachute/build/core/core.a(vector_table.S.o)
__exc_reset                                       /mnt/Workspace/drone_parachute/build/core/core.a(vector_table.S.o)
__exc_svc                                         /mnt/Workspace/drone_parachute/build/core/core.a(isrs.S.o)
                                                  /mnt/Workspace/drone_parachute/build/core/core.a(vector_table.S.o)
__exc_systick                                     /mnt/Workspace/drone_parachute/build/core/core.a(systick.c.o)
                                                  /mnt/Workspace/drone_parachute/build/core/core.a(vector_table.S.o)
__exc_usagefault                                  /mnt/Workspace/drone_parachute/build/core/core.a(exc.S.o)
                                                  /mnt/Workspace/drone_parachute/build/core/core.a(vector_table.S.o)
__extendsfdf2                                     /home/param/.arduino15/packages/arduino/tools/arm-none-eabi-gcc/4.8.3-2014q1/bin/../lib/gcc/arm-none-eabi/4.8.3/armv7-m/libgcc.a(_arm_addsubdf3.o)
__fdlib_version                                   /home/param/.arduino15/packages/arduino/tools/arm-none-eabi-gcc/4.8.3-2014q1/bin/../lib/gcc/arm-none-eabi/4.8.3/../../../../arm-none-eabi/lib/armv7-m/libm.a(lib_a-s_lib_ver.o)
                                                  /home/param/.arduino15/packages/arduino/tools/arm-none-eabi-gcc/4.8.3-2014q1/bin/../lib/gcc/arm-none-eabi/4.8.3/../../../../arm-none-eabi/lib/armv7-m/libm.a(lib_a-w_sqrt.o)
__fini_array_end                                  /home/param/.arduino15/packages/arduino/tools/arm-none-eabi-gcc/4.8.3-2014q1/bin/../lib/gcc/arm-none-eabi/4.8.3/../../../../arm-none-eabi/lib/armv7-m/libc.a(lib_a-fini.o)
__fini_array_start                                /home/param/.arduino15/packages/arduino/tools/arm-none-eabi-gcc/4.8.3-2014q1/bin/../lib/gcc/arm-none-eabi/4.8.3/../../../../arm-none-eabi/lib/armv7-m/libc.a(lib_a-fini.o)
__fixdfdi                                         /home/param/.arduino15/packages/arduino/tools/arm-none-eabi-gcc/4.8.3-2014q1/bin/../lib/gcc/arm-none-eabi/4.8.3/armv7-m/libgcc.a(_fixdfdi.o)
__fixdfsi                                         /home/param/.arduino15/packages/arduino/tools/arm-none-eabi-gcc/4.8.3-2014q1/bin/../lib/gcc/arm-none-eabi/4.8.3/armv7-m/libgcc.a(_arm_fixdfsi.o)
__fixsfsi                                         /home/param/.arduino15/packages/arduino/tools/arm-none-eabi-gcc/4.8.3-2014q1/bin/../lib/gcc/arm-none-eabi/4.8.3/armv7-m/libgcc.a(_arm_fixsfsi.o)
__fixunsdfdi                                      /home/param/.arduino15/packages/arduino/tools/arm-none-eabi-gcc/4.8.3-2014q1/bin/../lib/gcc/arm-none-eabi/4.8.3/armv7-m/libgcc.a(_fixunsdfdi.o)
__fixunsdfsi                                      /home/param/.arduino15/packages/arduino/tools/arm-none-eabi-gcc/4.8.3-2014q1/bin/../lib/gcc/arm-none-eabi/4.8.3/armv7-m/libgcc.a(_arm_fixunsdfsi.o)
__floatdidf                                       /home/param/.arduino15/packages/arduino/tools/arm-none-eabi-gcc/4.8.3-2014q1/bin/../lib/gcc/arm-none-eabi/4.8.3/armv7-m/libgcc.a(_arm_addsubdf3.o)
__floatdisf                                       /home/param/.arduino15/packages/arduino/tools/arm-none-eabi-gcc/4.8.3-2014q1/bin/../lib/gcc/arm-none-eabi/4.8.3/armv7-m/libgcc.a(_arm_addsubsf3.o)
__floatsidf                                       /home/param/.arduino15/packages/arduino/tools/arm-none-eabi-gcc/4.8.3-2014q1/bin/../lib/gcc/arm-none-eabi/4.8.3/armv7-m/libgcc.a(_arm_addsubdf3.o)
__floatsisf                                       /home/param/.arduino15/packages/arduino/tools/arm-none-eabi-gcc/4.8.3-2014q1/bin/../lib/gcc/arm-none-eabi/4.8.3/armv7-m/libgcc.a(_arm_addsubsf3.o)
__floatundidf                                     /home/param/.arduino15/packages/arduino/tools/arm-none-eabi-gcc/4.8.3-2014q1/bin/../lib/gcc/arm-none-eabi/4.8.3/armv7-m/libgcc.a(_arm_addsubdf3.o)
__floatundisf                                     /home/param/.arduino15/packages/arduino/tools/arm-none-eabi-gcc/4.8.3-2014q1/bin/../lib/gcc/arm-none-eabi/4.8.3/armv7-m/libgcc.a(_arm_addsubsf3.o)
__floatunsidf                                     /home/param/.arduino15/packages/arduino/tools/arm-none-eabi-gcc/4.8.3-2014q1/bin/../lib/gcc/arm-none-eabi/4.8.3/armv7-m/libgcc.a(_arm_addsubdf3.o)
__floatunsisf                                     /home/param/.arduino15/packages/arduino/tools/arm-none-eabi-gcc/4.8.3-2014q1/bin/../lib/gcc/arm-none-eabi/4.8.3/armv7-m/libgcc.a(_arm_addsubsf3.o)
__fpclassifyd                                     /home/param/.arduino15/packages/arduino/tools/arm-none-eabi-gcc/4.8.3-2014q1/bin/../lib/gcc/arm-none-eabi/4.8.3/../../../../arm-none-eabi/lib/armv7-m/libm.a(lib_a-s_fpclassify.o)
                                                  /home/param/.arduino15/packages/arduino/tools/arm-none-eabi-gcc/4.8.3-2014q1/bin/../lib/gcc/arm-none-eabi/4.8.3/../../../../arm-none-eabi/lib/armv7-m/libm.a(lib_a-w_sqrt.o)
__gedf2                                           /home/param/.arduino15/packages/arduino/tools/arm-none-eabi-gcc/4.8.3-2014q1/bin/../lib/gcc/arm-none-eabi/4.8.3/armv7-m/libgcc.a(_arm_cmpdf2.o)
__gesf2                                           /home/param/.arduino15/packages/arduino/tools/arm-none-eabi-gcc/4.8.3-2014q1/bin/../lib/gcc/arm-none-eabi/4.8.3/armv7-m/libgcc.a(_arm_cmpsf2.o)
__gnu_ldivmod_helper                              /home/param/.arduino15/packages/arduino/tools/arm-none-eabi-gcc/4.8.3-2014q1/bin/../lib/gcc/arm-none-eabi/4.8.3/armv7-m/libgcc.a(bpabi.o)
                                                  /home/param/.arduino15/packages/arduino/tools/arm-none-eabi-gcc/4.8.3-2014q1/bin/../lib/gcc/arm-none-eabi/4.8.3/armv7-m/libgcc.a(_aeabi_ldivmod.o)
__gnu_uldivmod_helper                             /home/param/.arduino15/packages/arduino/tools/arm-none-eabi-gcc/4.8.3-2014q1/bin/../lib/gcc/arm-none-eabi/4.8.3/armv7-m/libgcc.a(bpabi.o)
                                                  /home/param/.arduino15/packages/arduino/tools/arm-none-eabi-gcc/4.8.3-2014q1/bin/../lib/gcc/arm-none-eabi/4.8.3/armv7-m/libgcc.a(_aeabi_uldivmod.o)
__gtdf2                                           /home/param/.arduino15/packages/arduino/tools/arm-none-eabi-gcc/4.8.3-2014q1/bin/../lib/gcc/arm-none-eabi/4.8.3/armv7-m/libgcc.a(_arm_cmpdf2.o)
__gtsf2                                           /home/param/.arduino15/packages/arduino/tools/arm-none-eabi-gcc/4.8.3-2014q1/bin/../lib/gcc/arm-none-eabi/4.8.3/armv7-m/libgcc.a(_arm_cmpsf2.o)
__ieee754_sqrt                                    /home/param/.arduino15/packages/arduino/tools/arm-none-eabi-gcc/4.8.3-2014q1/bin/../lib/gcc/arm-none-eabi/4.8.3/../../../../arm-none-eabi/lib/armv7-m/libm.a(lib_a-e_sqrt.o)
                                                  /home/param/.arduino15/packages/arduino/tools/arm-none-eabi-gcc/4.8.3-2014q1/bin/../lib/gcc/arm-none-eabi/4.8.3/../../../../arm-none-eabi/lib/armv7-m/libm.a(lib_a-w_sqrt.o)
__init_array_end                                  /home/param/.arduino15/packages/arduino/tools/arm-none-eabi-gcc/4.8.3-2014q1/bin/../lib/gcc/arm-none-eabi/4.8.3/../../../../arm-none-eabi/lib/armv7-m/libc.a(lib_a-init.o)
__init_array_start                                /home/param/.arduino15/packages/arduino/tools/arm-none-eabi-gcc/4.8.3-2014q1/bin/../lib/gcc/arm-none-eabi/4.8.3/../../../../arm-none-eabi/lib/armv7-m/libc.a(lib_a-init.o)
__irq_adc                                         /mnt/Workspace/drone_parachute/build/core/core.a(adc_f1.c.o)
                                                  /mnt/Workspace/drone_parachute/build/core/core.a(vector_table.S.o)
__irq_can_rx1                                     /mnt/Workspace/drone_parachute/build/core/core.a(isrs.S.o)
                                                  /mnt/Workspace/drone_parachute/build/core/core.a(vector_table.S.o)
__irq_can_sce                                     /mnt/Workspace/drone_parachute/build/core/core.a(isrs.S.o)
                                                  /mnt/Workspace/drone_parachute/build/core/core.a(vector_table.S.o)
__irq_dma1_channel1                               /mnt/Workspace/drone_parachute/build/core/core.a(dma_f1.c.o)
                                                  /mnt/Workspace/drone_parachute/build/core/core.a(vector_table.S.o)
__irq_dma1_channel2                               /mnt/Workspace/drone_parachute/build/core/core.a(dma_f1.c.o)
                                                  /mnt/Workspace/drone_parachute/build/core/core.a(vector_table.S.o)
__irq_dma1_channel3                               /mnt/Workspace/drone_parachute/build/core/core.a(dma_f1.c.o)
                                                  /mnt/Workspace/drone_parachute/build/core/core.a(vector_table.S.o)
__irq_dma1_channel4                               /mnt/Workspace/drone_parachute/build/core/core.a(dma_f1.c.o)
                                                  /mnt/Workspace/drone_parachute/build/core/core.a(vector_table.S.o)
__irq_dma1_channel5                               /mnt/Workspace/drone_parachute/build/core/core.a(dma_f1.c.o)
                                                  /mnt/Workspace/drone_parachute/build/core/core.a(vector_table.S.o)
__irq_dma1_channel6                               /mnt/Workspace/drone_parachute/build/core/core.a(dma_f1.c.o)
                                                  /mnt/Workspace/drone_parachute/build/core/core.a(vector_table.S.o)
__irq_dma1_channel7                               /mnt/Workspace/drone_parachute/build/core/core.a(dma_f1.c.o)
                                                  /mnt/Workspace/drone_parachute/build/core/core.a(vector_table.S.o)
__irq_exti0                                       /mnt/Workspace/drone_parachute/build/core/core.a(exti.c.o)
                                                  /mnt/Workspace/drone_parachute/build/core/core.a(vector_table.S.o)
__irq_exti1                                       /mnt/Workspace/drone_parachute/build/core/core.a(exti.c.o)
                                                  /mnt/Workspace/drone_parachute/build/core/core.a(vector_table.S.o)
__irq_exti15_10                                   /mnt/Workspace/drone_parachute/build/core/core.a(exti.c.o)
                                                  /mnt/Workspace/drone_parachute/build/core/core.a(vector_table.S.o)
__irq_exti2                                       /mnt/Workspace/drone_parachute/build/core/core.a(exti.c.o)
                                                  /mnt/Workspace/drone_parachute/build/core/core.a(vector_table.S.o)
__irq_exti3                                       /mnt/Workspace/drone_parachute/build/core/core.a(exti.c.o)
                                                  /mnt/Workspace/drone_parachute/build/core/core.a(vector_table.S.o)
__irq_exti4                                       /mnt/Workspace/drone_parachute/build/core/core.a(exti.c.o)
                                                  /mnt/Workspace/drone_parachute/build/core/core.a(vector_table.S.o)
__irq_exti9_5                                     /mnt/Workspace/drone_parachute/build/core/core.a(exti.c.o)
                                                  /mnt/Workspace/drone_parachute/build/core/core.a(vector_table.S.o)
__irq_flash                                       /mnt/Workspace/drone_parachute/build/core/core.a(isrs.S.o)
                                                  /mnt/Workspace/drone_parachute/build/core/core.a(vector_table.S.o)
__irq_i2c1_er                                     /mnt/Workspace/drone_parachute/build/core/core.a(i2c_f1.c.o)
                                                  /mnt/Workspace/drone_parachute/build/core/core.a(vector_table.S.o)
__irq_i2c1_ev                                     /mnt/Workspace/drone_parachute/build/core/core.a(i2c_f1.c.o)
                                                  /mnt/Workspace/drone_parachute/build/core/core.a(vector_table.S.o)
__irq_i2c2_er                                     /mnt/Workspace/drone_parachute/build/core/core.a(i2c_f1.c.o)
                                                  /mnt/Workspace/drone_parachute/build/core/core.a(vector_table.S.o)
__irq_i2c2_ev                                     /mnt/Workspace/drone_parachute/build/core/core.a(i2c_f1.c.o)
                                                  /mnt/Workspace/drone_parachute/build/core/core.a(vector_table.S.o)
__irq_pvd                                         /mnt/Workspace/drone_parachute/build/core/core.a(isrs.S.o)
                                                  /mnt/Workspace/drone_parachute/build/core/core.a(vector_table.S.o)
__irq_rcc                                         /mnt/Workspace/drone_parachute/build/core/core.a(isrs.S.o)
                                                  /mnt/Workspace/drone_parachute/build/core/core.a(vector_table.S.o)
__irq_rtc                                         /mnt/Workspace/drone_parachute/build/core/core.a(isrs.S.o)
                                                  /mnt/Workspace/drone_parachute/build/core/core.a(vector_table.S.o)
__irq_rtcalarm                                    /mnt/Workspace/drone_parachute/build/core/core.a(isrs.S.o)
                                                  /mnt/Workspace/drone_parachute/build/core/core.a(vector_table.S.o)
__irq_spi1                                        /mnt/Workspace/drone_parachute/build/core/core.a(isrs.S.o)
                                                  /mnt/Workspace/drone_parachute/build/core/core.a(vector_table.S.o)
__irq_spi2                                        /mnt/Workspace/drone_parachute/build/core/core.a(isrs.S.o)
                                                  /mnt/Workspace/drone_parachute/build/core/core.a(vector_table.S.o)
__irq_tamper                                      /mnt/Workspace/drone_parachute/build/core/core.a(isrs.S.o)
                                                  /mnt/Workspace/drone_parachute/build/core/core.a(vector_table.S.o)
__irq_tim1_brk                                    /mnt/Workspace/drone_parachute/build/core/core.a(timer.c.o)
                                                  /mnt/Workspace/drone_parachute/build/core/core.a(vector_table.S.o)
__irq_tim1_cc                                     /mnt/Workspace/drone_parachute/build/core/core.a(timer.c.o)
                                                  /mnt/Workspace/drone_parachute/build/core/core.a(vector_table.S.o)
__irq_tim1_trg_com                                /mnt/Workspace/drone_parachute/build/core/core.a(timer.c.o)
                                                  /mnt/Workspace/drone_parachute/build/core/core.a(vector_table.S.o)
__irq_tim1_up                                     /mnt/Workspace/drone_parachute/build/core/core.a(timer.c.o)
                                                  /mnt/Workspace/drone_parachute/build/core/core.a(vector_table.S.o)
__irq_tim2                                        /mnt/Workspace/drone_parachute/build/core/core.a(timer.c.o)
                                                  /mnt/Workspace/drone_parachute/build/core/core.a(vector_table.S.o)
__irq_tim3                                        /mnt/Workspace/drone_parachute/build/core/core.a(timer.c.o)
                                                  /mnt/Workspace/drone_parachute/build/core/core.a(vector_table.S.o)
__irq_tim4                                        /mnt/Workspace/drone_parachute/build/core/core.a(timer.c.o)
                                                  /mnt/Workspace/drone_parachute/build/core/core.a(vector_table.S.o)
__irq_usart1                                      /mnt/Workspace/drone_parachute/build/core/core.a(usart_f1.c.o)
                                                  /mnt/Workspace/drone_parachute/build/core/core.a(vector_table.S.o)
__irq_usart2                                      /mnt/Workspace/drone_parachute/build/core/core.a(usart_f1.c.o)
                                                  /mnt/Workspace/drone_parachute/build/core/core.a(vector_table.S.o)
__irq_usart3                                      /mnt/Workspace/drone_parachute/build/core/core.a(usart_f1.c.o)
                                                  /mnt/Workspace/drone_parachute/build/core/core.a(vector_table.S.o)
__irq_usb_hp_can_tx                               /mnt/Workspace/drone_parachute/build/core/core.a(isrs.S.o)
                                                  /mnt/Workspace/drone_parachute/build/core/core.a(vector_table.S.o)
__irq_usb_lp_can_rx0                              /mnt/Workspace/drone_parachute/build/core/core.a(usb.c.o)
                                                  /mnt/Workspace/drone_parachute/build/core/core.a(vector_table.S.o)
__irq_usbwakeup                                   /mnt/Workspace/drone_parachute/build/core/core.a(isrs.S.o)
                                                  /mnt/Workspace/drone_parachute/build/core/core.a(vector_table.S.o)
__irq_wwdg                                        /mnt/Workspace/drone_parachute/build/core/core.a(isrs.S.o)
                                                  /mnt/Workspace/drone_parachute/build/core/core.a(vector_table.S.o)
__ledf2                                           /home/param/.arduino15/packages/arduino/tools/arm-none-eabi-gcc/4.8.3-2014q1/bin/../lib/gcc/arm-none-eabi/4.8.3/armv7-m/libgcc.a(_arm_cmpdf2.o)
__lesf2                                           /home/param/.arduino15/packages/arduino/tools/arm-none-eabi-gcc/4.8.3-2014q1/bin/../lib/gcc/arm-none-eabi/4.8.3/armv7-m/libgcc.a(_arm_cmpsf2.o)
__libc_fini                                       /home/param/.arduino15/packages/arduino/tools/arm-none-eabi-gcc/4.8.3-2014q1/bin/../lib/gcc/arm-none-eabi/4.8.3/../../../../arm-none-eabi/lib/armv7-m/libc.a(lib_a-__call_atexit.o)
__libc_fini_array                                 /home/param/.arduino15/packages/arduino/tools/arm-none-eabi-gcc/4.8.3-2014q1/bin/../lib/gcc/arm-none-eabi/4.8.3/../../../../arm-none-eabi/lib/armv7-m/libc.a(lib_a-fini.o)
                                                  /home/param/.arduino15/packages/arduino/tools/arm-none-eabi-gcc/4.8.3-2014q1/bin/../lib/gcc/arm-none-eabi/4.8.3/../../../../arm-none-eabi/lib/armv7-m/libc.a(lib_a-__call_atexit.o)
                                                  /home/param/.arduino15/packages/arduino/tools/arm-none-eabi-gcc/4.8.3-2014q1/bin/../lib/gcc/arm-none-eabi/4.8.3/../../../../arm-none-eabi/lib/armv7-m/crt0.o
__libc_init_array                                 /home/param/.arduino15/packages/arduino/tools/arm-none-eabi-gcc/4.8.3-2014q1/bin/../lib/gcc/arm-none-eabi/4.8.3/../../../../arm-none-eabi/lib/armv7-m/libc.a(lib_a-init.o)
                                                  /mnt/Workspace/drone_parachute/build/core/wirish/start_c.c.o
                                                  /home/param/.arduino15/packages/arduino/tools/arm-none-eabi-gcc/4.8.3-2014q1/bin/../lib/gcc/arm-none-eabi/4.8.3/../../../../arm-none-eabi/lib/armv7-m/crt0.o
__lm_enable_error_usart                           /mnt/Workspace/drone_parachute/build/core/core.a(util.c.o)
__lm_error                                        /mnt/Workspace/drone_parachute/build/core/core.a(util.c.o)
__ltdf2                                           /home/param/.arduino15/packages/arduino/tools/arm-none-eabi-gcc/4.8.3-2014q1/bin/../lib/gcc/arm-none-eabi/4.8.3/armv7-m/libgcc.a(_arm_cmpdf2.o)
__ltsf2                                           /home/param/.arduino15/packages/arduino/tools/arm-none-eabi-gcc/4.8.3-2014q1/bin/../lib/gcc/arm-none-eabi/4.8.3/armv7-m/libgcc.a(_arm_cmpsf2.o)
__msp_init                                        /mnt/Workspace/drone_parachute/build/core/core.a(vector_table.S.o)
                                                  /mnt/Workspace/drone_parachute/build/core/wirish/start.S.o
__muldf3                                          /home/param/.arduino15/packages/arduino/tools/arm-none-eabi-gcc/4.8.3-2014q1/bin/../lib/gcc/arm-none-eabi/4.8.3/armv7-m/libgcc.a(_arm_muldivdf3.o)
__mulsf3                                          /home/param/.arduino15/packages/arduino/tools/arm-none-eabi-gcc/4.8.3-2014q1/bin/../lib/gcc/arm-none-eabi/4.8.3/armv7-m/libgcc.a(_arm_muldivsf3.o)
__nedf2                                           /home/param/.arduino15/packages/arduino/tools/arm-none-eabi-gcc/4.8.3-2014q1/bin/../lib/gcc/arm-none-eabi/4.8.3/armv7-m/libgcc.a(_arm_cmpdf2.o)
__nesf2                                           /home/param/.arduino15/packages/arduino/tools/arm-none-eabi-gcc/4.8.3-2014q1/bin/../lib/gcc/arm-none-eabi/4.8.3/armv7-m/libgcc.a(_arm_cmpsf2.o)
__preinit_array_end                               /home/param/.arduino15/packages/arduino/tools/arm-none-eabi-gcc/4.8.3-2014q1/bin/../lib/gcc/arm-none-eabi/4.8.3/../../../../arm-none-eabi/lib/armv7-m/libc.a(lib_a-init.o)
__preinit_array_start                             /home/param/.arduino15/packages/arduino/tools/arm-none-eabi-gcc/4.8.3-2014q1/bin/../lib/gcc/arm-none-eabi/4.8.3/../../../../arm-none-eabi/lib/armv7-m/libc.a(lib_a-init.o)
__register_exitproc                               /home/param/.arduino15/packages/arduino/tools/arm-none-eabi-gcc/4.8.3-2014q1/bin/../lib/gcc/arm-none-eabi/4.8.3/../../../../arm-none-eabi/lib/armv7-m/libc.a(lib_a-__atexit.o)
                                                  /home/param/.arduino15/packages/arduino/tools/arm-none-eabi-gcc/4.8.3-2014q1/bin/../lib/gcc/arm-none-eabi/4.8.3/../../../../arm-none-eabi/lib/armv7-m/libc.a(lib_a-atexit.o)
__register_frame_info                             /home/param/.arduino15/packages/arduino/tools/arm-none-eabi-gcc/4.8.3-2014q1/bin/../lib/gcc/arm-none-eabi/4.8.3/armv7-m/crtbegin.o
__stack                                           /home/param/.arduino15/packages/arduino/tools/arm-none-eabi-gcc/4.8.3-2014q1/bin/../lib/gcc/arm-none-eabi/4.8.3/../../../../arm-none-eabi/lib/armv7-m/crt0.o
__start__                                         /mnt/Workspace/drone_parachute/build/core/wirish/start.S.o
__stm32_vector_table                              /mnt/Workspace/drone_parachute/build/core/core.a(vector_table.S.o)
__stm32reservedexception10                        /mnt/Workspace/drone_parachute/build/core/core.a(isrs.S.o)
                                                  /mnt/Workspace/drone_parachute/build/core/core.a(vector_table.S.o)
__stm32reservedexception13                        /mnt/Workspace/drone_parachute/build/core/core.a(isrs.S.o)
                                                  /mnt/Workspace/drone_parachute/build/core/core.a(vector_table.S.o)
__stm32reservedexception7                         /mnt/Workspace/drone_parachute/build/core/core.a(isrs.S.o)
                                                  /mnt/Workspace/drone_parachute/build/core/core.a(vector_table.S.o)
__stm32reservedexception8                         /mnt/Workspace/drone_parachute/build/core/core.a(isrs.S.o)
                                                  /mnt/Workspace/drone_parachute/build/core/core.a(vector_table.S.o)
__stm32reservedexception9                         /mnt/Workspace/drone_parachute/build/core/core.a(isrs.S.o)
                                                  /mnt/Workspace/drone_parachute/build/core/core.a(vector_table.S.o)
__subdf3                                          /home/param/.arduino15/packages/arduino/tools/arm-none-eabi-gcc/4.8.3-2014q1/bin/../lib/gcc/arm-none-eabi/4.8.3/armv7-m/libgcc.a(_arm_addsubdf3.o)
__subsf3                                          /home/param/.arduino15/packages/arduino/tools/arm-none-eabi-gcc/4.8.3-2014q1/bin/../lib/gcc/arm-none-eabi/4.8.3/armv7-m/libgcc.a(_arm_addsubsf3.o)
__truncdfsf2                                      /home/param/.arduino15/packages/arduino/tools/arm-none-eabi-gcc/4.8.3-2014q1/bin/../lib/gcc/arm-none-eabi/4.8.3/armv7-m/libgcc.a(_arm_truncdfsf2.o)
__udivdi3                                         /home/param/.arduino15/packages/arduino/tools/arm-none-eabi-gcc/4.8.3-2014q1/bin/../lib/gcc/arm-none-eabi/4.8.3/armv7-m/libgcc.a(_udivdi3.o)
                                                  /home/param/.arduino15/packages/arduino/tools/arm-none-eabi-gcc/4.8.3-2014q1/bin/../lib/gcc/arm-none-eabi/4.8.3/armv7-m/libgcc.a(bpabi.o)
_close                                            /mnt/Workspace/drone_parachute/build/core/wirish/syscalls.c.o
_dma_addr_type                                    /mnt/Workspace/drone_parachute/build/core/core.a(dma.c.o)
                                                  /mnt/Workspace/drone_parachute/build/core/core.a(dma_f1.c.o)
_exit                                             /mnt/Workspace/drone_parachute/build/core/wirish/syscalls.c.o
                                                  /home/param/.arduino15/packages/arduino/tools/arm-none-eabi-gcc/4.8.3-2014q1/bin/../lib/gcc/arm-none-eabi/4.8.3/../../../../arm-none-eabi/lib/armv7-m/libc.a(lib_a-exit.o)
_fail                                             /mnt/Workspace/drone_parachute/build/core/core.a(util.c.o)
                                                  /mnt/Workspace/drone_parachute/build/core/core.a(wirish_digital_f1.cpp.o)
                                                  /mnt/Workspace/drone_parachute/build/core/core.a(pwm.cpp.o)
                                                  /mnt/Workspace/drone_parachute/build/core/core.a(usb.c.o)
                                                  /mnt/Workspace/drone_parachute/build/core/core.a(usart_f1.c.o)
                                                  /mnt/Workspace/drone_parachute/build/core/core.a(timer.c.o)
                                                  /mnt/Workspace/drone_parachute/build/core/core.a(rcc_f1.c.o)
                                                  /mnt/Workspace/drone_parachute/build/core/core.a(i2c.c.o)
                                                  /mnt/Workspace/drone_parachute/build/core/core.a(exti.c.o)
                                                  /mnt/Workspace/drone_parachute/build/core/core.a(dma_f1.c.o)
                                                  /mnt/Workspace/drone_parachute/build/core/core.a(dma.c.o)
                                                  /mnt/Workspace/drone_parachute/build/libraries/Servo/Servo.cpp.o
                                                  /mnt/Workspace/drone_parachute/build/libraries/SPI/SPI.cpp.o
_fini                                             /home/param/.arduino15/packages/arduino/tools/arm-none-eabi-gcc/4.8.3-2014q1/bin/../lib/gcc/arm-none-eabi/4.8.3/armv7-m/crti.o
                                                  /home/param/.arduino15/packages/arduino/tools/arm-none-eabi-gcc/4.8.3-2014q1/bin/../lib/gcc/arm-none-eabi/4.8.3/../../../../arm-none-eabi/lib/armv7-m/libc.a(lib_a-fini.o)
_fstat                                            /mnt/Workspace/drone_parachute/build/core/wirish/syscalls.c.o
_global_impure_ptr                                /home/param/.arduino15/packages/arduino/tools/arm-none-eabi-gcc/4.8.3-2014q1/bin/../lib/gcc/arm-none-eabi/4.8.3/../../../../arm-none-eabi/lib/armv7-m/libc.a(lib_a-impure.o)
                                                  /home/param/.arduino15/packages/arduino/tools/arm-none-eabi-gcc/4.8.3-2014q1/bin/../lib/gcc/arm-none-eabi/4.8.3/../../../../arm-none-eabi/lib/armv7-m/libc.a(lib_a-__atexit.o)
                                                  /home/param/.arduino15/packages/arduino/tools/arm-none-eabi-gcc/4.8.3-2014q1/bin/../lib/gcc/arm-none-eabi/4.8.3/../../../../arm-none-eabi/lib/armv7-m/libc.a(lib_a-__call_atexit.o)
                                                  /home/param/.arduino15/packages/arduino/tools/arm-none-eabi-gcc/4.8.3-2014q1/bin/../lib/gcc/arm-none-eabi/4.8.3/../../../../arm-none-eabi/lib/armv7-m/libc.a(lib_a-exit.o)
_i2c_irq_error_handler                            /mnt/Workspace/drone_parachute/build/core/core.a(i2c.c.o)
                                                  /mnt/Workspace/drone_parachute/build/core/core.a(i2c_f1.c.o)
_i2c_irq_handler                                  /mnt/Workspace/drone_parachute/build/core/core.a(i2c.c.o)
                                                  /mnt/Workspace/drone_parachute/build/core/core.a(i2c_f1.c.o)
_i2c_irq_priority_fixup                           /mnt/Workspace/drone_parachute/build/core/core.a(i2c_f1.c.o)
                                                  /mnt/Workspace/drone_parachute/build/core/core.a(i2c.c.o)
_impure_ptr                                       /home/param/.arduino15/packages/arduino/tools/arm-none-eabi-gcc/4.8.3-2014q1/bin/../lib/gcc/arm-none-eabi/4.8.3/../../../../arm-none-eabi/lib/armv7-m/libc.a(lib_a-impure.o)
                                                  /home/param/.arduino15/packages/arduino/tools/arm-none-eabi-gcc/4.8.3-2014q1/bin/../lib/gcc/arm-none-eabi/4.8.3/../../../../arm-none-eabi/lib/armv7-m/libc.a(lib_a-errno.o)
_init                                             /home/param/.arduino15/packages/arduino/tools/arm-none-eabi-gcc/4.8.3-2014q1/bin/../lib/gcc/arm-none-eabi/4.8.3/armv7-m/crti.o
                                                  /home/param/.arduino15/packages/arduino/tools/arm-none-eabi-gcc/4.8.3-2014q1/bin/../lib/gcc/arm-none-eabi/4.8.3/../../../../arm-none-eabi/lib/armv7-m/libc.a(lib_a-init.o)
_isatty                                           /mnt/Workspace/drone_parachute/build/core/wirish/syscalls.c.o
_lm_heap_end                                      /mnt/Workspace/drone_parachute/build/core/wirish/syscalls.c.o
_lm_heap_start                                    /mnt/Workspace/drone_parachute/build/core/wirish/syscalls.c.o
_lm_rom_img_cfgp                                  /mnt/Workspace/drone_parachute/build/core/wirish/start_c.c.o
_lseek                                            /mnt/Workspace/drone_parachute/build/core/wirish/syscalls.c.o
_mainCRTStartup                                   /home/param/.arduino15/packages/arduino/tools/arm-none-eabi-gcc/4.8.3-2014q1/bin/../lib/gcc/arm-none-eabi/4.8.3/../../../../arm-none-eabi/lib/armv7-m/crt0.o
_open                                             /mnt/Workspace/drone_parachute/build/core/wirish/syscalls.c.o
_read                                             /mnt/Workspace/drone_parachute/build/core/wirish/syscalls.c.o
_sbrk                                             /mnt/Workspace/drone_parachute/build/core/wirish/syscalls.c.o
_start                                            /home/param/.arduino15/packages/arduino/tools/arm-none-eabi-gcc/4.8.3-2014q1/bin/../lib/gcc/arm-none-eabi/4.8.3/../../../../arm-none-eabi/lib/armv7-m/crt0.o
_usart_clock_freq                                 /mnt/Workspace/drone_parachute/build/core/core.a(usart_private.c.o)
                                                  /mnt/Workspace/drone_parachute/build/core/core.a(usart_f1.c.o)
_write                                            /mnt/Workspace/drone_parachute/build/core/wirish/syscalls.c.o
abort                                             /mnt/Workspace/drone_parachute/build/core/core.a(util.c.o)
adc1                                              /mnt/Workspace/drone_parachute/build/core/core.a(adc_f1.c.o)
                                                  /mnt/Workspace/drone_parachute/build/core/board.cpp.o
adc2                                              /mnt/Workspace/drone_parachute/build/core/core.a(adc_f1.c.o)
adc_attach_interrupt                              /mnt/Workspace/drone_parachute/build/core/core.a(adc_f1.c.o)
adc_calibrate                                     /mnt/Workspace/drone_parachute/build/core/core.a(adc_f1.c.o)
adc_config_gpio                                   /mnt/Workspace/drone_parachute/build/core/core.a(adc_f1.c.o)
adc_enable_irq                                    /mnt/Workspace/drone_parachute/build/core/core.a(adc_f1.c.o)
adc_enable_single_swstart                         /mnt/Workspace/drone_parachute/build/core/core.a(adc_f1.c.o)
                                                  /mnt/Workspace/drone_parachute/build/core/wirish/boards.cpp.o
adc_foreach                                       /mnt/Workspace/drone_parachute/build/core/core.a(adc_f1.c.o)
                                                  /mnt/Workspace/drone_parachute/build/core/wirish/boards.cpp.o
adc_init                                          /mnt/Workspace/drone_parachute/build/core/core.a(adc.c.o)
                                                  /mnt/Workspace/drone_parachute/build/core/core.a(adc_f1.c.o)
adc_read                                          /mnt/Workspace/drone_parachute/build/core/core.a(adc.c.o)
                                                  /mnt/Workspace/drone_parachute/build/core/core.a(wirish_analog.cpp.o)
adc_set_extsel                                    /mnt/Workspace/drone_parachute/build/core/core.a(adc.c.o)
                                                  /mnt/Workspace/drone_parachute/build/core/core.a(adc_f1.c.o)
adc_set_prescaler                                 /mnt/Workspace/drone_parachute/build/core/core.a(adc_f1.c.o)
                                                  /mnt/Workspace/drone_parachute/build/core/wirish/boards.cpp.o
adc_set_sample_rate                               /mnt/Workspace/drone_parachute/build/core/core.a(adc.c.o)
                                                  /mnt/Workspace/drone_parachute/build/core/wirish/boards.cpp.o
afio_init                                         /mnt/Workspace/drone_parachute/build/core/core.a(gpio_f1.c.o)
                                                  /mnt/Workspace/drone_parachute/build/core/wirish/boards_setup.cpp.o
afio_remap                                        /mnt/Workspace/drone_parachute/build/core/core.a(gpio_f1.c.o)
                                                  /mnt/Workspace/drone_parachute/build/core/core.a(i2c_f1.c.o)
                                                  /mnt/Workspace/drone_parachute/build/core/core.a(i2c.c.o)
analogRead(unsigned char)                         /mnt/Workspace/drone_parachute/build/core/core.a(wirish_analog.cpp.o)
                                                  /mnt/Workspace/drone_parachute/build/sketch/main.ino.cpp.o
analogWrite(unsigned char, int)                   /mnt/Workspace/drone_parachute/build/core/core.a(pwm.cpp.o)
atexit                                            /home/param/.arduino15/packages/arduino/tools/arm-none-eabi-gcc/4.8.3-2014q1/bin/../lib/gcc/arm-none-eabi/4.8.3/../../../../arm-none-eabi/lib/armv7-m/libc.a(lib_a-atexit.o)
                                                  /home/param/.arduino15/packages/arduino/tools/arm-none-eabi-gcc/4.8.3-2014q1/bin/../lib/gcc/arm-none-eabi/4.8.3/../../../../arm-none-eabi/lib/armv7-m/libc.a(lib_a-__call_atexit.o)
                                                  /home/param/.arduino15/packages/arduino/tools/arm-none-eabi-gcc/4.8.3-2014q1/bin/../lib/gcc/arm-none-eabi/4.8.3/../../../../arm-none-eabi/lib/armv7-m/crt0.o
batteries_init()                                  /mnt/Workspace/drone_parachute/build/sketch/main.ino.cpp.o
boardADCPins                                      /mnt/Workspace/drone_parachute/build/core/board.cpp.o
boardInit()                                       /mnt/Workspace/drone_parachute/build/core/board.cpp.o
boardPWMPins                                      /mnt/Workspace/drone_parachute/build/core/board.cpp.o
boardUsedPins                                     /mnt/Workspace/drone_parachute/build/core/board.cpp.o
                                                  /mnt/Workspace/drone_parachute/build/core/wirish/boards.cpp.o
boardUsesPin(unsigned char)                       /mnt/Workspace/drone_parachute/build/core/wirish/boards.cpp.o
cgets                                             /mnt/Workspace/drone_parachute/build/core/wirish/syscalls.c.o
check_main_battery_volt()                         /mnt/Workspace/drone_parachute/build/sketch/main.ino.cpp.o
check_state()                                     /mnt/Workspace/drone_parachute/build/sketch/main.ino.cpp.o
check_system()                                    /mnt/Workspace/drone_parachute/build/sketch/main.ino.cpp.o
delay(unsigned long)                              /mnt/Workspace/drone_parachute/build/core/core.a(wirish_time.cpp.o)
                                                  /mnt/Workspace/drone_parachute/build/libraries/Bolder_Flight_Systems_MPU9250/MPU9250.cpp.o
                                                  /mnt/Workspace/drone_parachute/build/sketch/main.ino.cpp.o
delayMicroseconds(unsigned long)                  /mnt/Workspace/drone_parachute/build/core/core.a(wirish_time.cpp.o)
deploy_chute()                                    /mnt/Workspace/drone_parachute/build/sketch/main.ino.cpp.o
digitalRead(unsigned char)                        /mnt/Workspace/drone_parachute/build/core/core.a(wirish_digital.cpp.o)
                                                  /mnt/Workspace/drone_parachute/build/libraries/Wire/SoftWire.cpp.o
digitalWrite(unsigned char, unsigned char)        /mnt/Workspace/drone_parachute/build/core/core.a(wirish_digital.cpp.o)
                                                  /mnt/Workspace/drone_parachute/build/libraries/Bolder_Flight_Systems_MPU9250/MPU9250.cpp.o
                                                  /mnt/Workspace/drone_parachute/build/sketch/main.ino.cpp.o
dispatch_extis                                    /mnt/Workspace/drone_parachute/build/core/core.a(exti.c.o)
dispatch_single_exti                              /mnt/Workspace/drone_parachute/build/core/core.a(exti.c.o)
dma_attach_interrupt                              /mnt/Workspace/drone_parachute/build/core/core.a(dma_f1.c.o)
                                                  /mnt/Workspace/drone_parachute/build/libraries/SPI/SPI.cpp.o
dma_detach_interrupt                              /mnt/Workspace/drone_parachute/build/core/core.a(dma_f1.c.o)
                                                  /mnt/Workspace/drone_parachute/build/libraries/SPI/SPI.cpp.o
dma_disable                                       /mnt/Workspace/drone_parachute/build/core/core.a(dma_f1.c.o)
                                                  /mnt/Workspace/drone_parachute/build/libraries/SPI/SPI.cpp.o
dma_enable                                        /mnt/Workspace/drone_parachute/build/core/core.a(dma_f1.c.o)
                                                  /mnt/Workspace/drone_parachute/build/libraries/SPI/SPI.cpp.o
dma_get_irq_cause                                 /mnt/Workspace/drone_parachute/build/core/core.a(dma_f1.c.o)
dma_init                                          /mnt/Workspace/drone_parachute/build/core/core.a(dma.c.o)
                                                  /mnt/Workspace/drone_parachute/build/libraries/SPI/SPI.cpp.o
dma_set_mem_addr                                  /mnt/Workspace/drone_parachute/build/core/core.a(dma_f1.c.o)
dma_set_num_transfers                             /mnt/Workspace/drone_parachute/build/core/core.a(dma_f1.c.o)
                                                  /mnt/Workspace/drone_parachute/build/libraries/SPI/SPI.cpp.o
dma_set_per_addr                                  /mnt/Workspace/drone_parachute/build/core/core.a(dma_f1.c.o)
dma_set_priority                                  /mnt/Workspace/drone_parachute/build/core/core.a(dma_f1.c.o)
                                                  /mnt/Workspace/drone_parachute/build/libraries/SPI/SPI.cpp.o
dma_setup_transfer                                /mnt/Workspace/drone_parachute/build/core/core.a(dma_f1.c.o)
                                                  /mnt/Workspace/drone_parachute/build/libraries/SPI/SPI.cpp.o
dma_tube_cfg                                      /mnt/Workspace/drone_parachute/build/core/core.a(dma_f1.c.o)
error_signal_init()                               /mnt/Workspace/drone_parachute/build/sketch/main.ino.cpp.o
executioner_init()                                /mnt/Workspace/drone_parachute/build/sketch/main.ino.cpp.o
exit                                              /home/param/.arduino15/packages/arduino/tools/arm-none-eabi-gcc/4.8.3-2014q1/bin/../lib/gcc/arm-none-eabi/4.8.3/../../../../arm-none-eabi/lib/armv7-m/libc.a(lib_a-exit.o)
                                                  /home/param/.arduino15/packages/arduino/tools/arm-none-eabi-gcc/4.8.3-2014q1/bin/../lib/gcc/arm-none-eabi/4.8.3/../../../../arm-none-eabi/lib/armv7-m/crt0.o
exti_attach_callback                              /mnt/Workspace/drone_parachute/build/core/core.a(exti.c.o)
exti_attach_interrupt                             /mnt/Workspace/drone_parachute/build/core/core.a(exti.c.o)
exti_channels                                     /mnt/Workspace/drone_parachute/build/core/core.a(exti.c.o)
exti_detach_interrupt                             /mnt/Workspace/drone_parachute/build/core/core.a(exti.c.o)
exti_do_select                                    /mnt/Workspace/drone_parachute/build/core/core.a(exti.c.o)
                                                  /mnt/Workspace/drone_parachute/build/core/core.a(exti_f1.c.o)
exti_select                                       /mnt/Workspace/drone_parachute/build/core/core.a(exti_f1.c.o)
                                                  /mnt/Workspace/drone_parachute/build/core/core.a(exti.c.o)
fgets                                             /mnt/Workspace/drone_parachute/build/core/wirish/syscalls.c.o
flash_set_latency                                 /mnt/Workspace/drone_parachute/build/core/core.a(flash.c.o)
                                                  /mnt/Workspace/drone_parachute/build/core/wirish/boards.cpp.o
free                                              /home/param/.arduino15/packages/arduino/tools/arm-none-eabi-gcc/4.8.3-2014q1/bin/../lib/gcc/arm-none-eabi/4.8.3/../../../../arm-none-eabi/lib/armv7-m/libc.a(lib_a-__call_atexit.o)
get_direction                                     /mnt/Workspace/drone_parachute/build/core/core.a(timer.c.o)
getch                                             /mnt/Workspace/drone_parachute/build/core/wirish/syscalls.c.o
gpio_get_mode                                     /mnt/Workspace/drone_parachute/build/core/core.a(gpio_f1.c.o)
gpio_init                                         /mnt/Workspace/drone_parachute/build/core/core.a(gpio.c.o)
                                                  /mnt/Workspace/drone_parachute/build/core/core.a(gpio_f1.c.o)
gpio_init_all                                     /mnt/Workspace/drone_parachute/build/core/core.a(gpio_f1.c.o)
                                                  /mnt/Workspace/drone_parachute/build/core/wirish/boards_setup.cpp.o
gpio_set_mode                                     /mnt/Workspace/drone_parachute/build/core/core.a(gpio_f1.c.o)
                                                  /mnt/Workspace/drone_parachute/build/core/core.a(wirish_digital_f1.cpp.o)
                                                  /mnt/Workspace/drone_parachute/build/core/core.a(util.c.o)
                                                  /mnt/Workspace/drone_parachute/build/core/core.a(usb_cdcacm.c.o)
                                                  /mnt/Workspace/drone_parachute/build/core/core.a(usart_f1.c.o)
                                                  /mnt/Workspace/drone_parachute/build/core/core.a(spi_f1.c.o)
                                                  /mnt/Workspace/drone_parachute/build/core/core.a(i2c_f1.c.o)
                                                  /mnt/Workspace/drone_parachute/build/core/core.a(adc_f1.c.o)
gpioa                                             /mnt/Workspace/drone_parachute/build/core/core.a(gpio_f1.c.o)
                                                  /mnt/Workspace/drone_parachute/build/core/board.cpp.o
gpiob                                             /mnt/Workspace/drone_parachute/build/core/core.a(gpio_f1.c.o)
                                                  /mnt/Workspace/drone_parachute/build/core/core.a(i2c_f1.c.o)
                                                  /mnt/Workspace/drone_parachute/build/core/board.cpp.o
gpioc                                             /mnt/Workspace/drone_parachute/build/core/core.a(gpio_f1.c.o)
                                                  /mnt/Workspace/drone_parachute/build/core/board.cpp.o
gpiod                                             /mnt/Workspace/drone_parachute/build/core/core.a(gpio_f1.c.o)
handler_tim2()                                    /mnt/Workspace/drone_parachute/build/sketch/main.ino.cpp.o
hardware_init_hook                                /home/param/.arduino15/packages/arduino/tools/arm-none-eabi-gcc/4.8.3-2014q1/bin/../lib/gcc/arm-none-eabi/4.8.3/../../../../arm-none-eabi/lib/armv7-m/crt0.o
i2c_bus_reset                                     /mnt/Workspace/drone_parachute/build/core/core.a(i2c.c.o)
i2c_config_gpios                                  /mnt/Workspace/drone_parachute/build/core/core.a(i2c_f1.c.o)
                                                  /mnt/Workspace/drone_parachute/build/core/core.a(i2c.c.o)
i2c_init                                          /mnt/Workspace/drone_parachute/build/core/core.a(i2c.c.o)
i2c_master_enable                                 /mnt/Workspace/drone_parachute/build/core/core.a(i2c.c.o)
                                                  /mnt/Workspace/drone_parachute/build/libraries/Wire/Wire.cpp.o
i2c_master_release_bus                            /mnt/Workspace/drone_parachute/build/core/core.a(i2c_f1.c.o)
                                                  /mnt/Workspace/drone_parachute/build/core/core.a(i2c.c.o)
i2c_master_xfer                                   /mnt/Workspace/drone_parachute/build/core/core.a(i2c.c.o)
                                                  /mnt/Workspace/drone_parachute/build/libraries/Wire/Wire.cpp.o
i2c_set_ccr_trise                                 /mnt/Workspace/drone_parachute/build/core/core.a(i2c.c.o)
i2c_slave_attach_recv_handler                     /mnt/Workspace/drone_parachute/build/core/core.a(i2c.c.o)
i2c_slave_attach_transmit_handler                 /mnt/Workspace/drone_parachute/build/core/core.a(i2c.c.o)
i2c_slave_enable                                  /mnt/Workspace/drone_parachute/build/core/core.a(i2c.c.o)
imu_init()                                        /mnt/Workspace/drone_parachute/build/sketch/main.ino.cpp.o
init()                                            /mnt/Workspace/drone_parachute/build/core/wirish/boards.cpp.o
                                                  /mnt/Workspace/drone_parachute/build/core/core.a(main.cpp.o)
input_capture_mode                                /mnt/Workspace/drone_parachute/build/core/core.a(timer.c.o)
isatty                                            /mnt/Workspace/drone_parachute/build/core/wirish/syscalls.c.o
kill_rotors()                                     /mnt/Workspace/drone_parachute/build/sketch/main.ino.cpp.o
loop()                                            /mnt/Workspace/drone_parachute/build/sketch/main.ino.cpp.o
                                                  /mnt/Workspace/drone_parachute/build/core/core.a(main.cpp.o)
main                                              /mnt/Workspace/drone_parachute/build/core/core.a(main.cpp.o)
                                                  /mnt/Workspace/drone_parachute/build/core/wirish/start_c.c.o
                                                  /home/param/.arduino15/packages/arduino/tools/arm-none-eabi-gcc/4.8.3-2014q1/bin/../lib/gcc/arm-none-eabi/4.8.3/../../../../arm-none-eabi/lib/armv7-m/crt0.o
malloc                                            /home/param/.arduino15/packages/arduino/tools/arm-none-eabi-gcc/4.8.3-2014q1/bin/../lib/gcc/arm-none-eabi/4.8.3/../../../../arm-none-eabi/lib/armv7-m/libc.a(lib_a-__atexit.o)
matherr                                           /home/param/.arduino15/packages/arduino/tools/arm-none-eabi-gcc/4.8.3-2014q1/bin/../lib/gcc/arm-none-eabi/4.8.3/../../../../arm-none-eabi/lib/armv7-m/libm.a(lib_a-s_matherr.o)
                                                  /home/param/.arduino15/packages/arduino/tools/arm-none-eabi-gcc/4.8.3-2014q1/bin/../lib/gcc/arm-none-eabi/4.8.3/../../../../arm-none-eabi/lib/armv7-m/libm.a(lib_a-w_sqrt.o)
memcpy                                            /home/param/.arduino15/packages/arduino/tools/arm-none-eabi-gcc/4.8.3-2014q1/bin/../lib/gcc/arm-none-eabi/4.8.3/../../../../arm-none-eabi/lib/armv7-m/libc.a(lib_a-memcpy.o)
                                                  /mnt/Workspace/drone_parachute/build/libraries/Bolder_Flight_Systems_MPU9250/MPU9250.cpp.o
memset                                            /home/param/.arduino15/packages/arduino/tools/arm-none-eabi-gcc/4.8.3-2014q1/bin/../lib/gcc/arm-none-eabi/4.8.3/../../../../arm-none-eabi/lib/armv7-m/libc.a(lib_a-memset.o)
                                                  /home/param/.arduino15/packages/arduino/tools/arm-none-eabi-gcc/4.8.3-2014q1/bin/../lib/gcc/arm-none-eabi/4.8.3/../../../../arm-none-eabi/lib/armv7-m/crt0.o
nvic_init                                         /mnt/Workspace/drone_parachute/build/core/core.a(nvic.c.o)
                                                  /mnt/Workspace/drone_parachute/build/core/wirish/boards.cpp.o
nvic_irq_set_priority                             /mnt/Workspace/drone_parachute/build/core/core.a(nvic.c.o)
                                                  /mnt/Workspace/drone_parachute/build/core/core.a(i2c_f1.c.o)
nvic_set_vector_table                             /mnt/Workspace/drone_parachute/build/core/core.a(nvic.c.o)
nvic_sys_reset                                    /mnt/Workspace/drone_parachute/build/core/core.a(nvic.c.o)
pInformation                                      /mnt/Workspace/drone_parachute/build/core/core.a(usb_init.c.o)
                                                  /mnt/Workspace/drone_parachute/build/core/core.a(usb_core.c.o)
                                                  /mnt/Workspace/drone_parachute/build/core/core.a(usb_cdcacm.c.o)
                                                  /mnt/Workspace/drone_parachute/build/core/core.a(usb.c.o)
pProperty                                         /mnt/Workspace/drone_parachute/build/core/core.a(usb_init.c.o)
                                                  /mnt/Workspace/drone_parachute/build/core/core.a(usb_core.c.o)
                                                  /mnt/Workspace/drone_parachute/build/core/core.a(usb_cdcacm.c.o)
                                                  /mnt/Workspace/drone_parachute/build/core/core.a(usb.c.o)
pUser_Standard_Requests                           /mnt/Workspace/drone_parachute/build/core/core.a(usb_init.c.o)
                                                  /mnt/Workspace/drone_parachute/build/core/core.a(usb_core.c.o)
                                                  /mnt/Workspace/drone_parachute/build/core/core.a(usb.c.o)
parachute_init()                                  /mnt/Workspace/drone_parachute/build/sketch/main.ino.cpp.o
pinMode(unsigned char, WiringPinMode)             /mnt/Workspace/drone_parachute/build/core/core.a(wirish_digital_f1.cpp.o)
                                                  /mnt/Workspace/drone_parachute/build/core/core.a(pwm.cpp.o)
                                                  /mnt/Workspace/drone_parachute/build/libraries/Servo/Servo.cpp.o
                                                  /mnt/Workspace/drone_parachute/build/libraries/Wire/SoftWire.cpp.o
                                                  /mnt/Workspace/drone_parachute/build/libraries/Bolder_Flight_Systems_MPU9250/MPU9250.cpp.o
                                                  /mnt/Workspace/drone_parachute/build/sketch/main.ino.cpp.o
premain()                                         /mnt/Workspace/drone_parachute/build/core/core.a(main.cpp.o)
putch                                             /mnt/Workspace/drone_parachute/build/core/wirish/syscalls.c.o
pwmWrite(unsigned char, unsigned short)           /mnt/Workspace/drone_parachute/build/core/core.a(pwm.cpp.o)
                                                  /mnt/Workspace/drone_parachute/build/libraries/Servo/Servo.cpp.o
raise_error_signal()                              /mnt/Workspace/drone_parachute/build/sketch/main.ino.cpp.o
rcc_clk_disable                                   /mnt/Workspace/drone_parachute/build/core/core.a(rcc_f1.c.o)
                                                  /mnt/Workspace/drone_parachute/build/core/wirish/boards_setup.cpp.o
rcc_clk_enable                                    /mnt/Workspace/drone_parachute/build/core/core.a(rcc_f1.c.o)
                                                  /mnt/Workspace/drone_parachute/build/core/core.a(usart.c.o)
                                                  /mnt/Workspace/drone_parachute/build/core/core.a(gpio.c.o)
                                                  /mnt/Workspace/drone_parachute/build/core/core.a(usb.c.o)
                                                  /mnt/Workspace/drone_parachute/build/core/core.a(timer.c.o)
                                                  /mnt/Workspace/drone_parachute/build/core/core.a(spi.c.o)
                                                  /mnt/Workspace/drone_parachute/build/core/core.a(i2c.c.o)
                                                  /mnt/Workspace/drone_parachute/build/core/core.a(gpio_f1.c.o)
                                                  /mnt/Workspace/drone_parachute/build/core/core.a(dma.c.o)
                                                  /mnt/Workspace/drone_parachute/build/core/core.a(adc.c.o)
rcc_clk_init                                      /mnt/Workspace/drone_parachute/build/core/core.a(rcc_f1.c.o)
rcc_configure_pll                                 /mnt/Workspace/drone_parachute/build/core/core.a(rcc_f1.c.o)
                                                  /mnt/Workspace/drone_parachute/build/core/wirish/boards.cpp.o
rcc_dev_clk                                       /mnt/Workspace/drone_parachute/build/core/core.a(rcc.c.o)
                                                  /mnt/Workspace/drone_parachute/build/core/core.a(usart_private.c.o)
                                                  /mnt/Workspace/drone_parachute/build/core/core.a(rcc_f1.c.o)
                                                  /mnt/Workspace/drone_parachute/build/libraries/SPI/SPI.cpp.o
rcc_dev_table                                     /mnt/Workspace/drone_parachute/build/core/core.a(rcc_f1.c.o)
                                                  /mnt/Workspace/drone_parachute/build/core/core.a(rcc.c.o)
rcc_is_clk_on                                     /mnt/Workspace/drone_parachute/build/core/core.a(rcc.c.o)
                                                  /mnt/Workspace/drone_parachute/build/core/core.a(rcc_f1.c.o)
rcc_is_clk_ready                                  /mnt/Workspace/drone_parachute/build/core/core.a(rcc.c.o)
                                                  /mnt/Workspace/drone_parachute/build/core/core.a(rcc_f1.c.o)
                                                  /mnt/Workspace/drone_parachute/build/core/wirish/boards.cpp.o
rcc_reset_dev                                     /mnt/Workspace/drone_parachute/build/core/core.a(rcc_f1.c.o)
                                                  /mnt/Workspace/drone_parachute/build/core/core.a(gpio.c.o)
                                                  /mnt/Workspace/drone_parachute/build/core/core.a(timer.c.o)
                                                  /mnt/Workspace/drone_parachute/build/core/core.a(spi.c.o)
                                                  /mnt/Workspace/drone_parachute/build/core/core.a(i2c.c.o)
                                                  /mnt/Workspace/drone_parachute/build/core/core.a(gpio_f1.c.o)
                                                  /mnt/Workspace/drone_parachute/build/core/core.a(adc.c.o)
rcc_set_prescaler                                 /mnt/Workspace/drone_parachute/build/core/core.a(rcc_f1.c.o)
                                                  /mnt/Workspace/drone_parachute/build/core/core.a(adc_f1.c.o)
                                                  /mnt/Workspace/drone_parachute/build/core/wirish/boards_setup.cpp.o
rcc_switch_sysclk                                 /mnt/Workspace/drone_parachute/build/core/core.a(rcc.c.o)
                                                  /mnt/Workspace/drone_parachute/build/core/core.a(rcc_f1.c.o)
                                                  /mnt/Workspace/drone_parachute/build/core/wirish/boards.cpp.o
rcc_turn_off_clk                                  /mnt/Workspace/drone_parachute/build/core/core.a(rcc.c.o)
                                                  /mnt/Workspace/drone_parachute/build/core/wirish/boards.cpp.o
rcc_turn_on_clk                                   /mnt/Workspace/drone_parachute/build/core/core.a(rcc.c.o)
                                                  /mnt/Workspace/drone_parachute/build/core/core.a(rcc_f1.c.o)
                                                  /mnt/Workspace/drone_parachute/build/core/wirish/boards.cpp.o
refresh_imu()                                     /mnt/Workspace/drone_parachute/build/sketch/main.ino.cpp.o
setup()                                           /mnt/Workspace/drone_parachute/build/sketch/main.ino.cpp.o
                                                  /mnt/Workspace/drone_parachute/build/core/core.a(main.cpp.o)
software_init_hook                                /home/param/.arduino15/packages/arduino/tools/arm-none-eabi-gcc/4.8.3-2014q1/bin/../lib/gcc/arm-none-eabi/4.8.3/../../../../arm-none-eabi/lib/armv7-m/crt0.o
spi_config_gpios                                  /mnt/Workspace/drone_parachute/build/core/core.a(spi_f1.c.o)
                                                  /mnt/Workspace/drone_parachute/build/libraries/SPI/SPI.cpp.o
spi_foreach                                       /mnt/Workspace/drone_parachute/build/core/core.a(spi_f1.c.o)
spi_init                                          /mnt/Workspace/drone_parachute/build/core/core.a(spi.c.o)
                                                  /mnt/Workspace/drone_parachute/build/libraries/SPI/SPI.cpp.o
spi_master_enable                                 /mnt/Workspace/drone_parachute/build/core/core.a(spi.c.o)
                                                  /mnt/Workspace/drone_parachute/build/libraries/SPI/SPI.cpp.o
spi_peripheral_disable                            /mnt/Workspace/drone_parachute/build/core/core.a(spi.c.o)
                                                  /mnt/Workspace/drone_parachute/build/libraries/SPI/SPI.cpp.o
spi_peripheral_enable                             /mnt/Workspace/drone_parachute/build/core/core.a(spi.c.o)
spi_rx_dma_disable                                /mnt/Workspace/drone_parachute/build/core/core.a(spi.c.o)
                                                  /mnt/Workspace/drone_parachute/build/libraries/SPI/SPI.cpp.o
spi_rx_dma_enable                                 /mnt/Workspace/drone_parachute/build/core/core.a(spi.c.o)
                                                  /mnt/Workspace/drone_parachute/build/libraries/SPI/SPI.cpp.o
spi_slave_enable                                  /mnt/Workspace/drone_parachute/build/core/core.a(spi.c.o)
                                                  /mnt/Workspace/drone_parachute/build/libraries/SPI/SPI.cpp.o
spi_tx                                            /mnt/Workspace/drone_parachute/build/core/core.a(spi.c.o)
                                                  /mnt/Workspace/drone_parachute/build/libraries/SPI/SPI.cpp.o
spi_tx_dma_disable                                /mnt/Workspace/drone_parachute/build/core/core.a(spi.c.o)
                                                  /mnt/Workspace/drone_parachute/build/libraries/SPI/SPI.cpp.o
spi_tx_dma_enable                                 /mnt/Workspace/drone_parachute/build/core/core.a(spi.c.o)
                                                  /mnt/Workspace/drone_parachute/build/libraries/SPI/SPI.cpp.o
sqrt                                              /home/param/.arduino15/packages/arduino/tools/arm-none-eabi-gcc/4.8.3-2014q1/bin/../lib/gcc/arm-none-eabi/4.8.3/../../../../arm-none-eabi/lib/armv7-m/libm.a(lib_a-w_sqrt.o)
                                                  /mnt/Workspace/drone_parachute/build/sketch/main.ino.cpp.o
start_c                                           /mnt/Workspace/drone_parachute/build/core/wirish/start_c.c.o
                                                  /mnt/Workspace/drone_parachute/build/core/wirish/start.S.o
strcpy                                            /home/param/.arduino15/packages/arduino/tools/arm-none-eabi-gcc/4.8.3-2014q1/bin/../lib/gcc/arm-none-eabi/4.8.3/../../../../arm-none-eabi/lib/armv7-m/libc.a(lib_a-strcpy.o)
                                                  /mnt/Workspace/drone_parachute/build/core/core.a(cxxabi-compat.cpp.o)
strlen                                            /home/param/.arduino15/packages/arduino/tools/arm-none-eabi-gcc/4.8.3-2014q1/bin/../lib/gcc/arm-none-eabi/4.8.3/../../../../arm-none-eabi/lib/armv7-m/libc.a(lib_a-strlen.o)
                                                  /mnt/Workspace/drone_parachute/build/core/core.a(Print.cpp.o)
systick_attach_callback                           /mnt/Workspace/drone_parachute/build/core/core.a(systick.c.o)
systick_disable                                   /mnt/Workspace/drone_parachute/build/core/core.a(systick.c.o)
systick_enable                                    /mnt/Workspace/drone_parachute/build/core/core.a(systick.c.o)
systick_init                                      /mnt/Workspace/drone_parachute/build/core/core.a(systick.c.o)
                                                  /mnt/Workspace/drone_parachute/build/core/wirish/boards.cpp.o
systick_uptime_millis                             /mnt/Workspace/drone_parachute/build/core/core.a(wirish_time.cpp.o)
                                                  /mnt/Workspace/drone_parachute/build/core/core.a(systick.c.o)
                                                  /mnt/Workspace/drone_parachute/build/core/core.a(i2c.c.o)
                                                  /mnt/Workspace/drone_parachute/build/libraries/SPI/SPI.cpp.o
throb                                             /mnt/Workspace/drone_parachute/build/core/core.a(util.c.o)
timer1                                            /mnt/Workspace/drone_parachute/build/core/core.a(timer.c.o)
                                                  /mnt/Workspace/drone_parachute/build/core/board.cpp.o
timer2                                            /mnt/Workspace/drone_parachute/build/core/core.a(timer.c.o)
                                                  /mnt/Workspace/drone_parachute/build/core/board.cpp.o
timer3                                            /mnt/Workspace/drone_parachute/build/core/core.a(timer.c.o)
                                                  /mnt/Workspace/drone_parachute/build/core/board.cpp.o
timer4                                            /mnt/Workspace/drone_parachute/build/core/core.a(timer.c.o)
                                                  /mnt/Workspace/drone_parachute/build/core/board.cpp.o
timer_attach_interrupt                            /mnt/Workspace/drone_parachute/build/core/core.a(timer.c.o)
timer_detach_interrupt                            /mnt/Workspace/drone_parachute/build/core/core.a(timer.c.o)
timer_disable                                     /mnt/Workspace/drone_parachute/build/core/core.a(timer.c.o)
timer_foreach                                     /mnt/Workspace/drone_parachute/build/core/core.a(timer.c.o)
                                                  /mnt/Workspace/drone_parachute/build/core/wirish/boards.cpp.o
timer_has_cc_channel                              /mnt/Workspace/drone_parachute/build/core/core.a(timer.c.o)
                                                  /mnt/Workspace/drone_parachute/build/core/wirish/boards.cpp.o
timer_init                                        /mnt/Workspace/drone_parachute/build/core/core.a(timer.c.o)
                                                  /mnt/Workspace/drone_parachute/build/core/wirish/boards.cpp.o
timer_set_mode                                    /mnt/Workspace/drone_parachute/build/core/core.a(timer.c.o)
                                                  /mnt/Workspace/drone_parachute/build/core/core.a(wirish_digital_f1.cpp.o)
                                                  /mnt/Workspace/drone_parachute/build/core/core.a(HardwareSerial.cpp.o)
                                                  /mnt/Workspace/drone_parachute/build/libraries/Servo/Servo.cpp.o
                                                  /mnt/Workspace/drone_parachute/build/libraries/SPI/SPI.cpp.o
usart_config_gpios_async                          /mnt/Workspace/drone_parachute/build/core/core.a(usart_f1.c.o)
                                                  /mnt/Workspace/drone_parachute/build/core/core.a(HardwareSerial.cpp.o)
usart_disable                                     /mnt/Workspace/drone_parachute/build/core/core.a(usart.c.o)
                                                  /mnt/Workspace/drone_parachute/build/core/core.a(HardwareSerial.cpp.o)
usart_enable                                      /mnt/Workspace/drone_parachute/build/core/core.a(usart.c.o)
                                                  /mnt/Workspace/drone_parachute/build/core/core.a(HardwareSerial.cpp.o)
usart_foreach                                     /mnt/Workspace/drone_parachute/build/core/core.a(usart_f1.c.o)
usart_init                                        /mnt/Workspace/drone_parachute/build/core/core.a(usart.c.o)
                                                  /mnt/Workspace/drone_parachute/build/core/core.a(HardwareSerial.cpp.o)
usart_putudec                                     /mnt/Workspace/drone_parachute/build/core/core.a(usart.c.o)
                                                  /mnt/Workspace/drone_parachute/build/core/core.a(util.c.o)
usart_rx                                          /mnt/Workspace/drone_parachute/build/core/core.a(usart.c.o)
usart_set_baud_rate                               /mnt/Workspace/drone_parachute/build/core/core.a(usart_f1.c.o)
                                                  /mnt/Workspace/drone_parachute/build/core/core.a(HardwareSerial.cpp.o)
usart_tx                                          /mnt/Workspace/drone_parachute/build/core/core.a(usart.c.o)
                                                  /mnt/Workspace/drone_parachute/build/core/core.a(HardwareSerial.cpp.o)
                                                  /mnt/Workspace/drone_parachute/build/core/core.a(util.c.o)
usb_cdcacm_data_available                         /mnt/Workspace/drone_parachute/build/core/core.a(usb_cdcacm.c.o)
usb_cdcacm_disable                                /mnt/Workspace/drone_parachute/build/core/core.a(usb_cdcacm.c.o)
usb_cdcacm_enable                                 /mnt/Workspace/drone_parachute/build/core/core.a(usb_cdcacm.c.o)
usb_cdcacm_get_baud                               /mnt/Workspace/drone_parachute/build/core/core.a(usb_cdcacm.c.o)
usb_cdcacm_get_dtr                                /mnt/Workspace/drone_parachute/build/core/core.a(usb_cdcacm.c.o)
usb_cdcacm_get_line_coding                        /mnt/Workspace/drone_parachute/build/core/core.a(usb_cdcacm.c.o)
usb_cdcacm_get_n_data_bits                        /mnt/Workspace/drone_parachute/build/core/core.a(usb_cdcacm.c.o)
usb_cdcacm_get_parity                             /mnt/Workspace/drone_parachute/build/core/core.a(usb_cdcacm.c.o)
usb_cdcacm_get_pending                            /mnt/Workspace/drone_parachute/build/core/core.a(usb_cdcacm.c.o)
usb_cdcacm_get_rts                                /mnt/Workspace/drone_parachute/build/core/core.a(usb_cdcacm.c.o)
usb_cdcacm_get_stop_bits                          /mnt/Workspace/drone_parachute/build/core/core.a(usb_cdcacm.c.o)
usb_cdcacm_is_transmitting                        /mnt/Workspace/drone_parachute/build/core/core.a(usb_cdcacm.c.o)
usb_cdcacm_peek                                   /mnt/Workspace/drone_parachute/build/core/core.a(usb_cdcacm.c.o)
usb_cdcacm_peek_char                              /mnt/Workspace/drone_parachute/build/core/core.a(usb_cdcacm.c.o)
usb_cdcacm_peek_ex                                /mnt/Workspace/drone_parachute/build/core/core.a(usb_cdcacm.c.o)
usb_cdcacm_putc                                   /mnt/Workspace/drone_parachute/build/core/core.a(usb_cdcacm.c.o)
usb_cdcacm_rx                                     /mnt/Workspace/drone_parachute/build/core/core.a(usb_cdcacm.c.o)
usb_cdcacm_set_hooks                              /mnt/Workspace/drone_parachute/build/core/core.a(usb_cdcacm.c.o)
usb_cdcacm_tx                                     /mnt/Workspace/drone_parachute/build/core/core.a(usb_cdcacm.c.o)
usb_cdcacm_tx_available                           /mnt/Workspace/drone_parachute/build/core/core.a(usb_cdcacm.c.o)
usb_init_usblib                                   /mnt/Workspace/drone_parachute/build/core/core.a(usb.c.o)
                                                  /mnt/Workspace/drone_parachute/build/core/core.a(usb_cdcacm.c.o)
usb_power_off                                     /mnt/Workspace/drone_parachute/build/core/core.a(usb.c.o)
                                                  /mnt/Workspace/drone_parachute/build/core/core.a(usb_cdcacm.c.o)
usb_set_ep_rx_count                               /mnt/Workspace/drone_parachute/build/core/core.a(usb_reg_map.c.o)
                                                  /mnt/Workspace/drone_parachute/build/core/core.a(usb_cdcacm.c.o)
vtable for HardwareSerial                         /mnt/Workspace/drone_parachute/build/core/core.a(HardwareSerial.cpp.o)
vtable for Print                                  /mnt/Workspace/drone_parachute/build/core/core.a(Print.cpp.o)
vtable for SoftWire                               /mnt/Workspace/drone_parachute/build/libraries/Wire/SoftWire.cpp.o
vtable for Stream                                 /mnt/Workspace/drone_parachute/build/core/core.a(HardwareSerial.cpp.o)
vtable for TwoWire                                /mnt/Workspace/drone_parachute/build/libraries/Wire/Wire.cpp.o
vtable for WireBase                               /mnt/Workspace/drone_parachute/build/libraries/Wire/utility/WireBase.cpp.o
                                                  /mnt/Workspace/drone_parachute/build/libraries/Wire/Wire.cpp.o
                                                  /mnt/Workspace/drone_parachute/build/libraries/Wire/SoftWire.cpp.o
wInterrupt_Mask                                   /mnt/Workspace/drone_parachute/build/core/core.a(usb_init.c.o)
wait_for_state_change                             /mnt/Workspace/drone_parachute/build/core/core.a(i2c.c.o)
wirish::priv::board_reset_pll()                   /mnt/Workspace/drone_parachute/build/core/wirish/boards_setup.cpp.o
                                                  /mnt/Workspace/drone_parachute/build/core/wirish/boards.cpp.o
wirish::priv::board_setup_clock_prescalers()      /mnt/Workspace/drone_parachute/build/core/wirish/boards_setup.cpp.o
                                                  /mnt/Workspace/drone_parachute/build/core/wirish/boards.cpp.o
wirish::priv::board_setup_gpio()                  /mnt/Workspace/drone_parachute/build/core/wirish/boards_setup.cpp.o
                                                  /mnt/Workspace/drone_parachute/build/core/wirish/boards.cpp.o
wirish::priv::board_setup_usb()                   /mnt/Workspace/drone_parachute/build/core/wirish/boards_setup.cpp.o
                                                  /mnt/Workspace/drone_parachute/build/core/wirish/boards.cpp.o
wirish::priv::series_init()                       /mnt/Workspace/drone_parachute/build/core/wirish/boards_setup.cpp.o
                                                  /mnt/Workspace/drone_parachute/build/core/wirish/boards.cpp.o
wirish::priv::w_adc_pre                           /mnt/Workspace/drone_parachute/build/core/wirish/boards_setup.cpp.o
                                                  /mnt/Workspace/drone_parachute/build/core/wirish/boards.cpp.o
wirish::priv::w_adc_smp                           /mnt/Workspace/drone_parachute/build/core/wirish/boards_setup.cpp.o
                                                  /mnt/Workspace/drone_parachute/build/core/wirish/boards.cpp.o
wirish::priv::w_board_pll_cfg                     /mnt/Workspace/drone_parachute/build/core/wirish/boards_setup.cpp.o
                                                  /mnt/Workspace/drone_parachute/build/core/wirish/boards.cpp.o
yield                                             /mnt/Workspace/drone_parachute/build/core/core.a(hooks.c.o)
                                                  /mnt/Workspace/drone_parachute/build/core/core.a(wirish_time.cpp.o)
