Archive member included because of file (symbol)

e:\drone_parachute\build\core\core.a(HardwareSerial.cpp.o)
                              e:\drone_parachute\build\core\board.cpp.o (HardwareSerial::HardwareSerial(usart_dev*, unsigned char, unsigned char))
e:\drone_parachute\build\core\core.a(HardwareTimer.cpp.o)
                              e:\drone_parachute\build\sketch\main.ino.cpp.o (HardwareTimer::HardwareTimer(unsigned char))
e:\drone_parachute\build\core\core.a(Print.cpp.o)
                              e:\drone_parachute\build\core\core.a(HardwareSerial.cpp.o) (Print::write(void const*, unsigned long))
e:\drone_parachute\build\core\core.a(cxxabi-compat.cpp.o)
                              e:\drone_parachute\build\libraries\Wire\utility\WireBase.cpp.o (__cxa_pure_virtual)
e:\drone_parachute\build\core\core.a(adc.c.o)
                              e:\drone_parachute\build\core\wirish\boards.cpp.o (adc_set_sample_rate)
e:\drone_parachute\build\core\core.a(adc_f1.c.o)
                              (__irq_adc)
e:\drone_parachute\build\core\core.a(dma.c.o)
                              e:\drone_parachute\build\libraries\SPI\SPI.cpp.o (dma_init)
e:\drone_parachute\build\core\core.a(dma_f1.c.o)
                              e:\drone_parachute\build\libraries\SPI\SPI.cpp.o (dma_set_priority)
e:\drone_parachute\build\core\core.a(exc.S.o)
                              (__exc_nmi)
e:\drone_parachute\build\core\core.a(exti.c.o)
                              (__irq_exti0)
e:\drone_parachute\build\core\core.a(exti_f1.c.o)
                              e:\drone_parachute\build\core\core.a(exti.c.o) (exti_select)
e:\drone_parachute\build\core\core.a(flash.c.o)
                              e:\drone_parachute\build\core\wirish\boards.cpp.o (flash_set_latency)
e:\drone_parachute\build\core\core.a(gpio_f1.c.o)
                              e:\drone_parachute\build\core\wirish\boards_setup.cpp.o (gpio_init_all)
e:\drone_parachute\build\core\core.a(i2c.c.o)
                              e:\drone_parachute\build\libraries\Wire\Wire.cpp.o (i2c_master_xfer)
e:\drone_parachute\build\core\core.a(i2c_f1.c.o)
                              e:\drone_parachute\build\core\core.a(i2c.c.o) (i2c_config_gpios)
e:\drone_parachute\build\core\core.a(nvic.c.o)
                              e:\drone_parachute\build\core\core.a(i2c_f1.c.o) (nvic_irq_set_priority)
e:\drone_parachute\build\core\core.a(rcc.c.o)
                              e:\drone_parachute\build\libraries\SPI\SPI.cpp.o (rcc_dev_clk)
e:\drone_parachute\build\core\core.a(rcc_f1.c.o)
                              e:\drone_parachute\build\core\wirish\boards.cpp.o (rcc_configure_pll)
e:\drone_parachute\build\core\core.a(spi.c.o)
                              e:\drone_parachute\build\libraries\SPI\SPI.cpp.o (spi_init)
e:\drone_parachute\build\core\core.a(spi_f1.c.o)
                              e:\drone_parachute\build\libraries\SPI\SPI.cpp.o (spi_config_gpios)
e:\drone_parachute\build\core\core.a(isrs.S.o)
                              (__stm32reservedexception7)
e:\drone_parachute\build\core\core.a(vector_table.S.o)
                              (__stm32_vector_table)
e:\drone_parachute\build\core\core.a(systick.c.o)
                              e:\drone_parachute\build\core\wirish\boards.cpp.o (systick_init)
e:\drone_parachute\build\core\core.a(timer.c.o)
                              e:\drone_parachute\build\core\wirish\boards.cpp.o (timer_foreach)
e:\drone_parachute\build\core\core.a(usart.c.o)
                              e:\drone_parachute\build\core\core.a(HardwareSerial.cpp.o) (usart_init)
e:\drone_parachute\build\core\core.a(usart_f1.c.o)
                              e:\drone_parachute\build\core\core.a(HardwareSerial.cpp.o) (usart_config_gpios_async)
e:\drone_parachute\build\core\core.a(usart_private.c.o)
                              e:\drone_parachute\build\core\core.a(usart_f1.c.o) (_usart_clock_freq)
e:\drone_parachute\build\core\core.a(usb.c.o)
                              (__irq_usb_lp_can_rx0)
e:\drone_parachute\build\core\core.a(usb_cdcacm.c.o)
                              e:\drone_parachute\build\core\core.a(usb.c.o) (User_Standard_Requests)
e:\drone_parachute\build\core\core.a(usb_reg_map.c.o)
                              e:\drone_parachute\build\core\core.a(usb_cdcacm.c.o) (usb_set_ep_rx_count)
e:\drone_parachute\build\core\core.a(usb_core.c.o)
                              e:\drone_parachute\build\core\core.a(usb_cdcacm.c.o) (Standard_GetDescriptorData)
e:\drone_parachute\build\core\core.a(usb_init.c.o)
                              e:\drone_parachute\build\core\core.a(usb.c.o) (pInformation)
e:\drone_parachute\build\core\core.a(usb_mem.c.o)
                              e:\drone_parachute\build\core\core.a(usb_core.c.o) (UserToPMABufferCopy)
e:\drone_parachute\build\core\core.a(usb_regs.c.o)
                              e:\drone_parachute\build\core\core.a(usb_core.c.o) (SetEPTxStatus)
e:\drone_parachute\build\core\core.a(util.c.o)
                              e:\drone_parachute\build\core\core.a(exc.S.o) (__error)
e:\drone_parachute\build\core\core.a(main.cpp.o)
                              (main)
e:\drone_parachute\build\core\core.a(pwm.cpp.o)
                              e:\drone_parachute\build\libraries\Servo\Servo.cpp.o (pwmWrite(unsigned char, unsigned short))
e:\drone_parachute\build\core\core.a(wirish_digital_f1.cpp.o)
                              e:\drone_parachute\build\sketch\main.ino.cpp.o (pinMode(unsigned char, WiringPinMode))
e:\drone_parachute\build\core\core.a(wirish_analog.cpp.o)
                              e:\drone_parachute\build\sketch\main.ino.cpp.o (analogRead(unsigned char))
e:\drone_parachute\build\core\core.a(wirish_digital.cpp.o)
                              e:\drone_parachute\build\libraries\Wire\SoftWire.cpp.o (digitalRead(unsigned char))
e:\drone_parachute\build\core\core.a(wirish_time.cpp.o)
                              e:\drone_parachute\build\sketch\main.ino.cpp.o (delay(unsigned long))
e:\drone_parachute\build\core\core.a(hooks.c.o)
                              e:\drone_parachute\build\core\core.a(wirish_time.cpp.o) (yield)
e:\drone_parachute\build\core\core.a(gpio.c.o)
                              e:\drone_parachute\build\core\core.a(gpio_f1.c.o) (gpio_init)
c:/users/param/appdata/local/arduino15/packages/arduino/tools/arm-none-eabi-gcc/4.8.3-2014q1/bin/../lib/gcc/arm-none-eabi/4.8.3/../../../../arm-none-eabi/lib/armv7-m\libm.a(lib_a-w_sqrt.o)
                              e:\drone_parachute\build\sketch\main.ino.cpp.o (sqrt)
c:/users/param/appdata/local/arduino15/packages/arduino/tools/arm-none-eabi-gcc/4.8.3-2014q1/bin/../lib/gcc/arm-none-eabi/4.8.3/../../../../arm-none-eabi/lib/armv7-m\libm.a(lib_a-e_sqrt.o)
                              c:/users/param/appdata/local/arduino15/packages/arduino/tools/arm-none-eabi-gcc/4.8.3-2014q1/bin/../lib/gcc/arm-none-eabi/4.8.3/../../../../arm-none-eabi/lib/armv7-m\libm.a(lib_a-w_sqrt.o) (__ieee754_sqrt)
c:/users/param/appdata/local/arduino15/packages/arduino/tools/arm-none-eabi-gcc/4.8.3-2014q1/bin/../lib/gcc/arm-none-eabi/4.8.3/../../../../arm-none-eabi/lib/armv7-m\libm.a(lib_a-s_fpclassify.o)
                              c:/users/param/appdata/local/arduino15/packages/arduino/tools/arm-none-eabi-gcc/4.8.3-2014q1/bin/../lib/gcc/arm-none-eabi/4.8.3/../../../../arm-none-eabi/lib/armv7-m\libm.a(lib_a-w_sqrt.o) (__fpclassifyd)
c:/users/param/appdata/local/arduino15/packages/arduino/tools/arm-none-eabi-gcc/4.8.3-2014q1/bin/../lib/gcc/arm-none-eabi/4.8.3/../../../../arm-none-eabi/lib/armv7-m\libm.a(lib_a-s_lib_ver.o)
                              c:/users/param/appdata/local/arduino15/packages/arduino/tools/arm-none-eabi-gcc/4.8.3-2014q1/bin/../lib/gcc/arm-none-eabi/4.8.3/../../../../arm-none-eabi/lib/armv7-m\libm.a(lib_a-w_sqrt.o) (__fdlib_version)
c:/users/param/appdata/local/arduino15/packages/arduino/tools/arm-none-eabi-gcc/4.8.3-2014q1/bin/../lib/gcc/arm-none-eabi/4.8.3/../../../../arm-none-eabi/lib/armv7-m\libm.a(lib_a-s_matherr.o)
                              c:/users/param/appdata/local/arduino15/packages/arduino/tools/arm-none-eabi-gcc/4.8.3-2014q1/bin/../lib/gcc/arm-none-eabi/4.8.3/../../../../arm-none-eabi/lib/armv7-m\libm.a(lib_a-w_sqrt.o) (matherr)
c:/users/param/appdata/local/arduino15/packages/arduino/tools/arm-none-eabi-gcc/4.8.3-2014q1/bin/../lib/gcc/arm-none-eabi/4.8.3/armv7-m\libgcc.a(_arm_addsubdf3.o)
                              e:\drone_parachute\build\core\core.a(Print.cpp.o) (__aeabi_dsub)
c:/users/param/appdata/local/arduino15/packages/arduino/tools/arm-none-eabi-gcc/4.8.3-2014q1/bin/../lib/gcc/arm-none-eabi/4.8.3/armv7-m\libgcc.a(_arm_muldivdf3.o)
                              e:\drone_parachute\build\core\core.a(Print.cpp.o) (__aeabi_dmul)
c:/users/param/appdata/local/arduino15/packages/arduino/tools/arm-none-eabi-gcc/4.8.3-2014q1/bin/../lib/gcc/arm-none-eabi/4.8.3/armv7-m\libgcc.a(_arm_cmpdf2.o)
                              e:\drone_parachute\build\libraries\Bolder_Flight_Systems_MPU9250\MPU9250.cpp.o (__aeabi_dcmplt)
c:/users/param/appdata/local/arduino15/packages/arduino/tools/arm-none-eabi-gcc/4.8.3-2014q1/bin/../lib/gcc/arm-none-eabi/4.8.3/armv7-m\libgcc.a(_arm_fixdfsi.o)
                              e:\drone_parachute\build\core\core.a(Print.cpp.o) (__aeabi_d2iz)
c:/users/param/appdata/local/arduino15/packages/arduino/tools/arm-none-eabi-gcc/4.8.3-2014q1/bin/../lib/gcc/arm-none-eabi/4.8.3/armv7-m\libgcc.a(_arm_truncdfsf2.o)
                              e:\drone_parachute\build\sketch\main.ino.cpp.o (__aeabi_d2f)
c:/users/param/appdata/local/arduino15/packages/arduino/tools/arm-none-eabi-gcc/4.8.3-2014q1/bin/../lib/gcc/arm-none-eabi/4.8.3/armv7-m\libgcc.a(_arm_addsubsf3.o)
                              e:\drone_parachute\build\libraries\Bolder_Flight_Systems_MPU9250\MPU9250.cpp.o (__aeabi_fsub)
c:/users/param/appdata/local/arduino15/packages/arduino/tools/arm-none-eabi-gcc/4.8.3-2014q1/bin/../lib/gcc/arm-none-eabi/4.8.3/armv7-m\libgcc.a(_arm_muldivsf3.o)
                              e:\drone_parachute\build\sketch\main.ino.cpp.o (__aeabi_fmul)
c:/users/param/appdata/local/arduino15/packages/arduino/tools/arm-none-eabi-gcc/4.8.3-2014q1/bin/../lib/gcc/arm-none-eabi/4.8.3/armv7-m\libgcc.a(_arm_cmpsf2.o)
                              e:\drone_parachute\build\sketch\main.ino.cpp.o (__aeabi_fcmplt)
c:/users/param/appdata/local/arduino15/packages/arduino/tools/arm-none-eabi-gcc/4.8.3-2014q1/bin/../lib/gcc/arm-none-eabi/4.8.3/armv7-m\libgcc.a(_arm_fixsfsi.o)
                              e:\drone_parachute\build\libraries\Bolder_Flight_Systems_MPU9250\MPU9250.cpp.o (__aeabi_f2iz)
c:/users/param/appdata/local/arduino15/packages/arduino/tools/arm-none-eabi-gcc/4.8.3-2014q1/bin/../lib/gcc/arm-none-eabi/4.8.3/armv7-m\libgcc.a(_aeabi_ldivmod.o)
                              e:\drone_parachute\build\libraries\Bolder_Flight_Systems_MPU9250\MPU9250.cpp.o (__aeabi_ldivmod)
c:/users/param/appdata/local/arduino15/packages/arduino/tools/arm-none-eabi-gcc/4.8.3-2014q1/bin/../lib/gcc/arm-none-eabi/4.8.3/armv7-m\libgcc.a(_aeabi_uldivmod.o)
                              e:\drone_parachute\build\core\core.a(Print.cpp.o) (__aeabi_uldivmod)
c:/users/param/appdata/local/arduino15/packages/arduino/tools/arm-none-eabi-gcc/4.8.3-2014q1/bin/../lib/gcc/arm-none-eabi/4.8.3/armv7-m\libgcc.a(_fixdfdi.o)
                              e:\drone_parachute\build\core\core.a(Print.cpp.o) (__aeabi_d2lz)
c:/users/param/appdata/local/arduino15/packages/arduino/tools/arm-none-eabi-gcc/4.8.3-2014q1/bin/../lib/gcc/arm-none-eabi/4.8.3/armv7-m\libgcc.a(_fixunsdfdi.o)
                              c:/users/param/appdata/local/arduino15/packages/arduino/tools/arm-none-eabi-gcc/4.8.3-2014q1/bin/../lib/gcc/arm-none-eabi/4.8.3/armv7-m\libgcc.a(_fixdfdi.o) (__aeabi_d2ulz)
c:/users/param/appdata/local/arduino15/packages/arduino/tools/arm-none-eabi-gcc/4.8.3-2014q1/bin/../lib/gcc/arm-none-eabi/4.8.3/armv7-m\libgcc.a(bpabi.o)
                              c:/users/param/appdata/local/arduino15/packages/arduino/tools/arm-none-eabi-gcc/4.8.3-2014q1/bin/../lib/gcc/arm-none-eabi/4.8.3/armv7-m\libgcc.a(_aeabi_ldivmod.o) (__gnu_ldivmod_helper)
c:/users/param/appdata/local/arduino15/packages/arduino/tools/arm-none-eabi-gcc/4.8.3-2014q1/bin/../lib/gcc/arm-none-eabi/4.8.3/armv7-m\libgcc.a(_dvmd_tls.o)
                              c:/users/param/appdata/local/arduino15/packages/arduino/tools/arm-none-eabi-gcc/4.8.3-2014q1/bin/../lib/gcc/arm-none-eabi/4.8.3/armv7-m\libgcc.a(_aeabi_ldivmod.o) (__aeabi_ldiv0)
c:/users/param/appdata/local/arduino15/packages/arduino/tools/arm-none-eabi-gcc/4.8.3-2014q1/bin/../lib/gcc/arm-none-eabi/4.8.3/armv7-m\libgcc.a(_arm_fixunsdfsi.o)
                              c:/users/param/appdata/local/arduino15/packages/arduino/tools/arm-none-eabi-gcc/4.8.3-2014q1/bin/../lib/gcc/arm-none-eabi/4.8.3/armv7-m\libgcc.a(_fixunsdfdi.o) (__aeabi_d2uiz)
c:/users/param/appdata/local/arduino15/packages/arduino/tools/arm-none-eabi-gcc/4.8.3-2014q1/bin/../lib/gcc/arm-none-eabi/4.8.3/armv7-m\libgcc.a(_divdi3.o)
                              c:/users/param/appdata/local/arduino15/packages/arduino/tools/arm-none-eabi-gcc/4.8.3-2014q1/bin/../lib/gcc/arm-none-eabi/4.8.3/armv7-m\libgcc.a(bpabi.o) (__divdi3)
c:/users/param/appdata/local/arduino15/packages/arduino/tools/arm-none-eabi-gcc/4.8.3-2014q1/bin/../lib/gcc/arm-none-eabi/4.8.3/armv7-m\libgcc.a(_udivdi3.o)
                              c:/users/param/appdata/local/arduino15/packages/arduino/tools/arm-none-eabi-gcc/4.8.3-2014q1/bin/../lib/gcc/arm-none-eabi/4.8.3/armv7-m\libgcc.a(bpabi.o) (__udivdi3)
c:/users/param/appdata/local/arduino15/packages/arduino/tools/arm-none-eabi-gcc/4.8.3-2014q1/bin/../lib/gcc/arm-none-eabi/4.8.3/../../../../arm-none-eabi/lib/armv7-m\libc.a(lib_a-errno.o)
                              e:\drone_parachute\build\core\wirish\syscalls.c.o (__errno)
c:/users/param/appdata/local/arduino15/packages/arduino/tools/arm-none-eabi-gcc/4.8.3-2014q1/bin/../lib/gcc/arm-none-eabi/4.8.3/../../../../arm-none-eabi/lib/armv7-m\libc.a(lib_a-exit.o)
                              c:/users/param/appdata/local/arduino15/packages/arduino/tools/arm-none-eabi-gcc/4.8.3-2014q1/bin/../lib/gcc/arm-none-eabi/4.8.3/../../../../arm-none-eabi/lib/armv7-m/crt0.o (exit)
c:/users/param/appdata/local/arduino15/packages/arduino/tools/arm-none-eabi-gcc/4.8.3-2014q1/bin/../lib/gcc/arm-none-eabi/4.8.3/../../../../arm-none-eabi/lib/armv7-m\libc.a(lib_a-impure.o)
                              c:/users/param/appdata/local/arduino15/packages/arduino/tools/arm-none-eabi-gcc/4.8.3-2014q1/bin/../lib/gcc/arm-none-eabi/4.8.3/../../../../arm-none-eabi/lib/armv7-m\libc.a(lib_a-exit.o) (_global_impure_ptr)
c:/users/param/appdata/local/arduino15/packages/arduino/tools/arm-none-eabi-gcc/4.8.3-2014q1/bin/../lib/gcc/arm-none-eabi/4.8.3/../../../../arm-none-eabi/lib/armv7-m\libc.a(lib_a-init.o)
                              c:/users/param/appdata/local/arduino15/packages/arduino/tools/arm-none-eabi-gcc/4.8.3-2014q1/bin/../lib/gcc/arm-none-eabi/4.8.3/../../../../arm-none-eabi/lib/armv7-m/crt0.o (__libc_init_array)
c:/users/param/appdata/local/arduino15/packages/arduino/tools/arm-none-eabi-gcc/4.8.3-2014q1/bin/../lib/gcc/arm-none-eabi/4.8.3/../../../../arm-none-eabi/lib/armv7-m\libc.a(lib_a-memcpy.o)
                              e:\drone_parachute\build\libraries\Bolder_Flight_Systems_MPU9250\MPU9250.cpp.o (memcpy)
c:/users/param/appdata/local/arduino15/packages/arduino/tools/arm-none-eabi-gcc/4.8.3-2014q1/bin/../lib/gcc/arm-none-eabi/4.8.3/../../../../arm-none-eabi/lib/armv7-m\libc.a(lib_a-memset.o)
                              c:/users/param/appdata/local/arduino15/packages/arduino/tools/arm-none-eabi-gcc/4.8.3-2014q1/bin/../lib/gcc/arm-none-eabi/4.8.3/../../../../arm-none-eabi/lib/armv7-m/crt0.o (memset)
c:/users/param/appdata/local/arduino15/packages/arduino/tools/arm-none-eabi-gcc/4.8.3-2014q1/bin/../lib/gcc/arm-none-eabi/4.8.3/../../../../arm-none-eabi/lib/armv7-m\libc.a(lib_a-strcpy.o)
                              e:\drone_parachute\build\core\core.a(cxxabi-compat.cpp.o) (strcpy)
c:/users/param/appdata/local/arduino15/packages/arduino/tools/arm-none-eabi-gcc/4.8.3-2014q1/bin/../lib/gcc/arm-none-eabi/4.8.3/../../../../arm-none-eabi/lib/armv7-m\libc.a(lib_a-strlen.o)
                              e:\drone_parachute\build\core\core.a(Print.cpp.o) (strlen)
c:/users/param/appdata/local/arduino15/packages/arduino/tools/arm-none-eabi-gcc/4.8.3-2014q1/bin/../lib/gcc/arm-none-eabi/4.8.3/../../../../arm-none-eabi/lib/armv7-m\libc.a(lib_a-__call_atexit.o)
                              c:/users/param/appdata/local/arduino15/packages/arduino/tools/arm-none-eabi-gcc/4.8.3-2014q1/bin/../lib/gcc/arm-none-eabi/4.8.3/../../../../arm-none-eabi/lib/armv7-m\libc.a(lib_a-exit.o) (__call_exitprocs)
c:/users/param/appdata/local/arduino15/packages/arduino/tools/arm-none-eabi-gcc/4.8.3-2014q1/bin/../lib/gcc/arm-none-eabi/4.8.3/../../../../arm-none-eabi/lib/armv7-m\libc.a(lib_a-atexit.o)
                              c:/users/param/appdata/local/arduino15/packages/arduino/tools/arm-none-eabi-gcc/4.8.3-2014q1/bin/../lib/gcc/arm-none-eabi/4.8.3/../../../../arm-none-eabi/lib/armv7-m\libc.a(lib_a-__call_atexit.o) (atexit)
c:/users/param/appdata/local/arduino15/packages/arduino/tools/arm-none-eabi-gcc/4.8.3-2014q1/bin/../lib/gcc/arm-none-eabi/4.8.3/../../../../arm-none-eabi/lib/armv7-m\libc.a(lib_a-fini.o)
                              c:/users/param/appdata/local/arduino15/packages/arduino/tools/arm-none-eabi-gcc/4.8.3-2014q1/bin/../lib/gcc/arm-none-eabi/4.8.3/../../../../arm-none-eabi/lib/armv7-m\libc.a(lib_a-__call_atexit.o) (__libc_fini_array)
c:/users/param/appdata/local/arduino15/packages/arduino/tools/arm-none-eabi-gcc/4.8.3-2014q1/bin/../lib/gcc/arm-none-eabi/4.8.3/../../../../arm-none-eabi/lib/armv7-m\libc.a(lib_a-__atexit.o)
                              c:/users/param/appdata/local/arduino15/packages/arduino/tools/arm-none-eabi-gcc/4.8.3-2014q1/bin/../lib/gcc/arm-none-eabi/4.8.3/../../../../arm-none-eabi/lib/armv7-m\libc.a(lib_a-atexit.o) (__register_exitproc)

Allocating common symbols
Common symbol       size              file

SaveRState          0x2               e:\drone_parachute\build\core\core.a(usb.c.o)
SaveState           0x2               e:\drone_parachute\build\core\core.a(usb_init.c.o)
pProperty           0x4               e:\drone_parachute\build\core\core.a(usb_init.c.o)
EPindex             0x1               e:\drone_parachute\build\core\core.a(usb_init.c.o)
SaveTState          0x2               e:\drone_parachute\build\core\core.a(usb.c.o)
systick_uptime_millis
                    0x4               e:\drone_parachute\build\core\core.a(systick.c.o)
Device_Info         0x1c              e:\drone_parachute\build\core\core.a(usb_init.c.o)
pUser_Standard_Requests
                    0x4               e:\drone_parachute\build\core\core.a(usb_init.c.o)
StatusInfo          0x2               e:\drone_parachute\build\core\core.a(usb_core.c.o)
pInformation        0x4               e:\drone_parachute\build\core\core.a(usb_init.c.o)
ResumeS             0x2               e:\drone_parachute\build\core\core.a(usb.c.o)
wInterrupt_Mask     0x2               e:\drone_parachute\build\core\core.a(usb_init.c.o)

Discarded input sections

 .text          0x00000000        0x0 c:/users/param/appdata/local/arduino15/packages/arduino/tools/arm-none-eabi-gcc/4.8.3-2014q1/bin/../lib/gcc/arm-none-eabi/4.8.3/armv7-m/crti.o
 .data          0x00000000        0x0 c:/users/param/appdata/local/arduino15/packages/arduino/tools/arm-none-eabi-gcc/4.8.3-2014q1/bin/../lib/gcc/arm-none-eabi/4.8.3/armv7-m/crti.o
 .bss           0x00000000        0x0 c:/users/param/appdata/local/arduino15/packages/arduino/tools/arm-none-eabi-gcc/4.8.3-2014q1/bin/../lib/gcc/arm-none-eabi/4.8.3/armv7-m/crti.o
 .data          0x00000000        0x4 c:/users/param/appdata/local/arduino15/packages/arduino/tools/arm-none-eabi-gcc/4.8.3-2014q1/bin/../lib/gcc/arm-none-eabi/4.8.3/armv7-m/crtbegin.o
 .text          0x00000000       0x74 c:/users/param/appdata/local/arduino15/packages/arduino/tools/arm-none-eabi-gcc/4.8.3-2014q1/bin/../lib/gcc/arm-none-eabi/4.8.3/../../../../arm-none-eabi/lib/armv7-m/crt0.o
 .data          0x00000000        0x0 c:/users/param/appdata/local/arduino15/packages/arduino/tools/arm-none-eabi-gcc/4.8.3-2014q1/bin/../lib/gcc/arm-none-eabi/4.8.3/../../../../arm-none-eabi/lib/armv7-m/crt0.o
 .bss           0x00000000        0x0 c:/users/param/appdata/local/arduino15/packages/arduino/tools/arm-none-eabi-gcc/4.8.3-2014q1/bin/../lib/gcc/arm-none-eabi/4.8.3/../../../../arm-none-eabi/lib/armv7-m/crt0.o
 .ARM.extab     0x00000000        0x0 c:/users/param/appdata/local/arduino15/packages/arduino/tools/arm-none-eabi-gcc/4.8.3-2014q1/bin/../lib/gcc/arm-none-eabi/4.8.3/../../../../arm-none-eabi/lib/armv7-m/crt0.o
 .ARM.exidx     0x00000000        0x8 c:/users/param/appdata/local/arduino15/packages/arduino/tools/arm-none-eabi-gcc/4.8.3-2014q1/bin/../lib/gcc/arm-none-eabi/4.8.3/../../../../arm-none-eabi/lib/armv7-m/crt0.o
 .text          0x00000000        0x0 e:\drone_parachute\build\sketch\main.ino.cpp.o
 .data          0x00000000        0x0 e:\drone_parachute\build\sketch\main.ino.cpp.o
 .bss           0x00000000        0x0 e:\drone_parachute\build\sketch\main.ino.cpp.o
 .text._Z17error_signal_initv
                0x00000000       0x16 e:\drone_parachute\build\sketch\main.ino.cpp.o
 .text          0x00000000        0x0 e:\drone_parachute\build\libraries\Bolder_Flight_Systems_MPU9250\MPU9250.cpp.o
 .data          0x00000000        0x0 e:\drone_parachute\build\libraries\Bolder_Flight_Systems_MPU9250\MPU9250.cpp.o
 .bss           0x00000000        0x0 e:\drone_parachute\build\libraries\Bolder_Flight_Systems_MPU9250\MPU9250.cpp.o
 .text._ZN7MPU9250C2ER8SPIClassh
                0x00000000      0x294 e:\drone_parachute\build\libraries\Bolder_Flight_Systems_MPU9250\MPU9250.cpp.o
 .text._ZN11MPU9250FIFO17getFifoAccelX_mssEPjPf
                0x00000000       0x1e e:\drone_parachute\build\libraries\Bolder_Flight_Systems_MPU9250\MPU9250.cpp.o
 .text._ZN11MPU9250FIFO17getFifoAccelY_mssEPjPf
                0x00000000       0x1e e:\drone_parachute\build\libraries\Bolder_Flight_Systems_MPU9250\MPU9250.cpp.o
 .text._ZN11MPU9250FIFO17getFifoAccelZ_mssEPjPf
                0x00000000       0x1e e:\drone_parachute\build\libraries\Bolder_Flight_Systems_MPU9250\MPU9250.cpp.o
 .text._ZN11MPU9250FIFO17getFifoGyroX_radsEPjPf
                0x00000000       0x1e e:\drone_parachute\build\libraries\Bolder_Flight_Systems_MPU9250\MPU9250.cpp.o
 .text._ZN11MPU9250FIFO17getFifoGyroY_radsEPjPf
                0x00000000       0x1e e:\drone_parachute\build\libraries\Bolder_Flight_Systems_MPU9250\MPU9250.cpp.o
 .text._ZN11MPU9250FIFO17getFifoGyroZ_radsEPjPf
                0x00000000       0x1e e:\drone_parachute\build\libraries\Bolder_Flight_Systems_MPU9250\MPU9250.cpp.o
 .text._ZN11MPU9250FIFO14getFifoMagX_uTEPjPf
                0x00000000       0x1e e:\drone_parachute\build\libraries\Bolder_Flight_Systems_MPU9250\MPU9250.cpp.o
 .text._ZN11MPU9250FIFO14getFifoMagY_uTEPjPf
                0x00000000       0x1e e:\drone_parachute\build\libraries\Bolder_Flight_Systems_MPU9250\MPU9250.cpp.o
 .text._ZN11MPU9250FIFO14getFifoMagZ_uTEPjPf
                0x00000000       0x1e e:\drone_parachute\build\libraries\Bolder_Flight_Systems_MPU9250\MPU9250.cpp.o
 .text._ZN11MPU9250FIFO20getFifoTemperature_CEPjPf
                0x00000000       0x1e e:\drone_parachute\build\libraries\Bolder_Flight_Systems_MPU9250\MPU9250.cpp.o
 .text._ZN7MPU925017getGyroBiasX_radsEv
                0x00000000        0x6 e:\drone_parachute\build\libraries\Bolder_Flight_Systems_MPU9250\MPU9250.cpp.o
 .text._ZN7MPU925017getGyroBiasY_radsEv
                0x00000000        0x6 e:\drone_parachute\build\libraries\Bolder_Flight_Systems_MPU9250\MPU9250.cpp.o
 .text._ZN7MPU925017getGyroBiasZ_radsEv
                0x00000000        0x6 e:\drone_parachute\build\libraries\Bolder_Flight_Systems_MPU9250\MPU9250.cpp.o
 .text._ZN7MPU925017setGyroBiasX_radsEf
                0x00000000        0x6 e:\drone_parachute\build\libraries\Bolder_Flight_Systems_MPU9250\MPU9250.cpp.o
 .text._ZN7MPU925017setGyroBiasY_radsEf
                0x00000000        0x6 e:\drone_parachute\build\libraries\Bolder_Flight_Systems_MPU9250\MPU9250.cpp.o
 .text._ZN7MPU925017setGyroBiasZ_radsEf
                0x00000000        0x6 e:\drone_parachute\build\libraries\Bolder_Flight_Systems_MPU9250\MPU9250.cpp.o
 .text._ZN7MPU925017getAccelBiasX_mssEv
                0x00000000        0x6 e:\drone_parachute\build\libraries\Bolder_Flight_Systems_MPU9250\MPU9250.cpp.o
 .text._ZN7MPU925020getAccelScaleFactorXEv
                0x00000000        0x6 e:\drone_parachute\build\libraries\Bolder_Flight_Systems_MPU9250\MPU9250.cpp.o
 .text._ZN7MPU925017getAccelBiasY_mssEv
                0x00000000        0x6 e:\drone_parachute\build\libraries\Bolder_Flight_Systems_MPU9250\MPU9250.cpp.o
 .text._ZN7MPU925020getAccelScaleFactorYEv
                0x00000000        0x6 e:\drone_parachute\build\libraries\Bolder_Flight_Systems_MPU9250\MPU9250.cpp.o
 .text._ZN7MPU925017getAccelBiasZ_mssEv
                0x00000000        0x6 e:\drone_parachute\build\libraries\Bolder_Flight_Systems_MPU9250\MPU9250.cpp.o
 .text._ZN7MPU925020getAccelScaleFactorZEv
                0x00000000        0x6 e:\drone_parachute\build\libraries\Bolder_Flight_Systems_MPU9250\MPU9250.cpp.o
 .text._ZN7MPU925012setAccelCalXEff
                0x00000000        0xa e:\drone_parachute\build\libraries\Bolder_Flight_Systems_MPU9250\MPU9250.cpp.o
 .text._ZN7MPU925012setAccelCalYEff
                0x00000000        0xa e:\drone_parachute\build\libraries\Bolder_Flight_Systems_MPU9250\MPU9250.cpp.o
 .text._ZN7MPU925012setAccelCalZEff
                0x00000000        0xa e:\drone_parachute\build\libraries\Bolder_Flight_Systems_MPU9250\MPU9250.cpp.o
 .text._ZN7MPU925014getMagBiasX_uTEv
                0x00000000        0x6 e:\drone_parachute\build\libraries\Bolder_Flight_Systems_MPU9250\MPU9250.cpp.o
 .text._ZN7MPU925018getMagScaleFactorXEv
                0x00000000        0x6 e:\drone_parachute\build\libraries\Bolder_Flight_Systems_MPU9250\MPU9250.cpp.o
 .text._ZN7MPU925014getMagBiasY_uTEv
                0x00000000        0x6 e:\drone_parachute\build\libraries\Bolder_Flight_Systems_MPU9250\MPU9250.cpp.o
 .text._ZN7MPU925018getMagScaleFactorYEv
                0x00000000        0x6 e:\drone_parachute\build\libraries\Bolder_Flight_Systems_MPU9250\MPU9250.cpp.o
 .text._ZN7MPU925014getMagBiasZ_uTEv
                0x00000000        0x6 e:\drone_parachute\build\libraries\Bolder_Flight_Systems_MPU9250\MPU9250.cpp.o
 .text._ZN7MPU925018getMagScaleFactorZEv
                0x00000000        0x6 e:\drone_parachute\build\libraries\Bolder_Flight_Systems_MPU9250\MPU9250.cpp.o
 .text._ZN7MPU925010setMagCalXEff
                0x00000000        0xa e:\drone_parachute\build\libraries\Bolder_Flight_Systems_MPU9250\MPU9250.cpp.o
 .text._ZN7MPU925010setMagCalYEff
                0x00000000        0xa e:\drone_parachute\build\libraries\Bolder_Flight_Systems_MPU9250\MPU9250.cpp.o
 .text._ZN7MPU925010setMagCalZEff
                0x00000000        0xa e:\drone_parachute\build\libraries\Bolder_Flight_Systems_MPU9250\MPU9250.cpp.o
 .text._ZN11MPU9250FIFO8readFifoEv
                0x00000000      0x38c e:\drone_parachute\build\libraries\Bolder_Flight_Systems_MPU9250\MPU9250.cpp.o
 .text._ZN7MPU925024enableDataReadyInterruptEv
                0x00000000       0x38 e:\drone_parachute\build\libraries\Bolder_Flight_Systems_MPU9250\MPU9250.cpp.o
 .text._ZN7MPU925025disableDataReadyInterruptEv
                0x00000000       0x1e e:\drone_parachute\build\libraries\Bolder_Flight_Systems_MPU9250\MPU9250.cpp.o
 .text._ZN11MPU9250FIFO10enableFifoEbbbb
                0x00000000       0x92 e:\drone_parachute\build\libraries\Bolder_Flight_Systems_MPU9250\MPU9250.cpp.o
 .text._ZN7MPU925018enableWakeOnMotionEfNS_10LpAccelOdrE
                0x00000000      0x108 e:\drone_parachute\build\libraries\Bolder_Flight_Systems_MPU9250\MPU9250.cpp.o
 .text._ZN7MPU925014calibrateAccelEv
                0x00000000      0x418 e:\drone_parachute\build\libraries\Bolder_Flight_Systems_MPU9250\MPU9250.cpp.o
 .text._ZN7MPU925012calibrateMagEv
                0x00000000      0x368 e:\drone_parachute\build\libraries\Bolder_Flight_Systems_MPU9250\MPU9250.cpp.o
 .text          0x00000000        0x0 e:\drone_parachute\build\libraries\Wire\SoftWire.cpp.o
 .data          0x00000000        0x0 e:\drone_parachute\build\libraries\Wire\SoftWire.cpp.o
 .bss           0x00000000        0x0 e:\drone_parachute\build\libraries\Wire\SoftWire.cpp.o
 .text._ZN8SoftWire7processEv
                0x00000000        0xc e:\drone_parachute\build\libraries\Wire\SoftWire.cpp.o
 .text._ZN8SoftWire3endEv
                0x00000000       0x22 e:\drone_parachute\build\libraries\Wire\SoftWire.cpp.o
 .text._ZN8SoftWire7set_sclEb
                0x00000000       0x3a e:\drone_parachute\build\libraries\Wire\SoftWire.cpp.o
 .text._ZN8SoftWire7set_sdaEb
                0x00000000       0x2a e:\drone_parachute\build\libraries\Wire\SoftWire.cpp.o
 .text._ZN8SoftWire5beginEh
                0x00000000       0x68 e:\drone_parachute\build\libraries\Wire\SoftWire.cpp.o
 .text._ZN8SoftWire9i2c_startEv
                0x00000000       0x16 e:\drone_parachute\build\libraries\Wire\SoftWire.cpp.o
 .text._ZN8SoftWire8i2c_stopEv
                0x00000000       0x1e e:\drone_parachute\build\libraries\Wire\SoftWire.cpp.o
 .text._ZN8SoftWire18i2c_repeated_startEv
                0x00000000       0x1e e:\drone_parachute\build\libraries\Wire\SoftWire.cpp.o
 .text._ZN8SoftWire11i2c_get_ackEv
                0x00000000       0x36 e:\drone_parachute\build\libraries\Wire\SoftWire.cpp.o
 .text._ZN8SoftWire12i2c_send_ackEv
                0x00000000       0x1e e:\drone_parachute\build\libraries\Wire\SoftWire.cpp.o
 .text._ZN8SoftWire13i2c_send_nackEv
                0x00000000       0x1e e:\drone_parachute\build\libraries\Wire\SoftWire.cpp.o
 .text._ZN8SoftWire12i2c_shift_inEv
                0x00000000       0x36 e:\drone_parachute\build\libraries\Wire\SoftWire.cpp.o
 .text._ZN8SoftWire13i2c_shift_outEh
                0x00000000       0x2e e:\drone_parachute\build\libraries\Wire\SoftWire.cpp.o
 .text._ZN8SoftWire7processEh
                0x00000000       0xb2 e:\drone_parachute\build\libraries\Wire\SoftWire.cpp.o
 .text._ZN8SoftWireC2Ehhh
                0x00000000       0x18 e:\drone_parachute\build\libraries\Wire\SoftWire.cpp.o
 .text._ZN8SoftWire8setClockEm
                0x00000000       0x14 e:\drone_parachute\build\libraries\Wire\SoftWire.cpp.o
 .text._ZN8SoftWireD2Ev
                0x00000000       0x14 e:\drone_parachute\build\libraries\Wire\SoftWire.cpp.o
 .rodata._ZTV8SoftWire
                0x00000000       0x18 e:\drone_parachute\build\libraries\Wire\SoftWire.cpp.o
 .text          0x00000000        0x0 e:\drone_parachute\build\libraries\Wire\Wire.cpp.o
 .data          0x00000000        0x0 e:\drone_parachute\build\libraries\Wire\Wire.cpp.o
 .bss           0x00000000        0x0 e:\drone_parachute\build\libraries\Wire\Wire.cpp.o
 .text._ZN7TwoWireC2Ehhm
                0x00000000       0x40 e:\drone_parachute\build\libraries\Wire\Wire.cpp.o
 .text          0x00000000        0x0 e:\drone_parachute\build\libraries\Wire\utility\WireBase.cpp.o
 .data          0x00000000        0x0 e:\drone_parachute\build\libraries\Wire\utility\WireBase.cpp.o
 .bss           0x00000000        0x0 e:\drone_parachute\build\libraries\Wire\utility\WireBase.cpp.o
 .text._ZN8WireBase17beginTransmissionEi
                0x00000000       0x16 e:\drone_parachute\build\libraries\Wire\utility\WireBase.cpp.o
 .text._ZN8WireBase11requestFromEiib
                0x00000000        0x6 e:\drone_parachute\build\libraries\Wire\utility\WireBase.cpp.o
 .text._ZN8WireBase5writeEPhi
                0x00000000       0x2e e:\drone_parachute\build\libraries\Wire\utility\WireBase.cpp.o
 .text._ZN8WireBase5writeEi
                0x00000000        0x6 e:\drone_parachute\build\libraries\Wire\utility\WireBase.cpp.o
 .text._ZN8WireBase5writeEPii
                0x00000000        0x6 e:\drone_parachute\build\libraries\Wire\utility\WireBase.cpp.o
 .text._ZN8WireBase5writeEPc
                0x00000000       0x16 e:\drone_parachute\build\libraries\Wire\utility\WireBase.cpp.o
 .text._ZN8WireBase9availableEv
                0x00000000        0xe e:\drone_parachute\build\libraries\Wire\utility\WireBase.cpp.o
 .text          0x00000000        0x0 e:\drone_parachute\build\libraries\SPI\SPI.cpp.o
 .data          0x00000000        0x0 e:\drone_parachute\build\libraries\SPI\SPI.cpp.o
 .bss           0x00000000        0x0 e:\drone_parachute\build\libraries\SPI\SPI.cpp.o
 .text._ZN8SPIClass10beginSlaveEv
                0x00000000       0x36 e:\drone_parachute\build\libraries\SPI\SPI.cpp.o
 .text._ZN8SPIClass3endEv
                0x00000000       0x38 e:\drone_parachute\build\libraries\SPI\SPI.cpp.o
 .text._ZN8SPIClass21beginTransactionSlaveE11SPISettings
                0x00000000       0x32 e:\drone_parachute\build\libraries\SPI\SPI.cpp.o
 .text._ZN8SPIClass4readEv
                0x00000000       0x12 e:\drone_parachute\build\libraries\SPI\SPI.cpp.o
 .text._ZN8SPIClass4readEPhm
                0x00000000       0x44 e:\drone_parachute\build\libraries\SPI\SPI.cpp.o
 .text._ZN8SPIClass5writeEt
                0x00000000        0xc e:\drone_parachute\build\libraries\SPI\SPI.cpp.o
 .text._ZN8SPIClass7write16Et
                0x00000000       0x16 e:\drone_parachute\build\libraries\SPI\SPI.cpp.o
 .text._ZN8SPIClass5writeEtm
                0x00000000       0x1e e:\drone_parachute\build\libraries\SPI\SPI.cpp.o
 .text._ZN8SPIClass5writeEPKvm
                0x00000000       0x16 e:\drone_parachute\build\libraries\SPI\SPI.cpp.o
 .text._ZNK8SPIClass10transfer16Et
                0x00000000       0x2e e:\drone_parachute\build\libraries\SPI\SPI.cpp.o
 .text._ZN8SPIClass14dmaTransferSetEPKvPv
                0x00000000       0x80 e:\drone_parachute\build\libraries\SPI\SPI.cpp.o
 .text._ZN8SPIClass17dmaTransferRepeatEt
                0x00000000       0xdc e:\drone_parachute\build\libraries\SPI\SPI.cpp.o
 .text._ZN8SPIClass11dmaTransferEPKvPvt
                0x00000000       0x16 e:\drone_parachute\build\libraries\SPI\SPI.cpp.o
 .text._ZN8SPIClass10dmaSendSetEPKvb
                0x00000000       0x4e e:\drone_parachute\build\libraries\SPI\SPI.cpp.o
 .text._ZN8SPIClass13dmaSendRepeatEt
                0x00000000       0xa0 e:\drone_parachute\build\libraries\SPI\SPI.cpp.o
 .text._ZN8SPIClass7dmaSendEPKvtb
                0x00000000       0x18 e:\drone_parachute\build\libraries\SPI\SPI.cpp.o
 .text._ZN8SPIClass12dmaSendAsyncEPKvtb
                0x00000000       0xd8 e:\drone_parachute\build\libraries\SPI\SPI.cpp.o
 .text._ZN8SPIClass9onReceiveEPFvvE
                0x00000000       0x38 e:\drone_parachute\build\libraries\SPI\SPI.cpp.o
 .text._ZN8SPIClass10onTransmitEPFvvE
                0x00000000       0x38 e:\drone_parachute\build\libraries\SPI\SPI.cpp.o
 .text._ZN8SPIClass13EventCallbackEv
                0x00000000       0x4e e:\drone_parachute\build\libraries\SPI\SPI.cpp.o
 .text._ZN8SPIClass18_spi1EventCallbackEv
                0x00000000        0xc e:\drone_parachute\build\libraries\SPI\SPI.cpp.o
 .text._ZN8SPIClass18_spi2EventCallbackEv
                0x00000000        0xc e:\drone_parachute\build\libraries\SPI\SPI.cpp.o
 .text._ZN8SPIClass15attachInterruptEv
                0x00000000        0x2 e:\drone_parachute\build\libraries\SPI\SPI.cpp.o
 .text._ZN8SPIClass15detachInterruptEv
                0x00000000        0x2 e:\drone_parachute\build\libraries\SPI\SPI.cpp.o
 .text._ZN8SPIClass7misoPinEv
                0x00000000       0x10 e:\drone_parachute\build\libraries\SPI\SPI.cpp.o
 .text._ZN8SPIClass7mosiPinEv
                0x00000000       0x10 e:\drone_parachute\build\libraries\SPI\SPI.cpp.o
 .text._ZN8SPIClass6sckPinEv
                0x00000000       0x10 e:\drone_parachute\build\libraries\SPI\SPI.cpp.o
 .text._ZN8SPIClass6nssPinEv
                0x00000000       0x10 e:\drone_parachute\build\libraries\SPI\SPI.cpp.o
 .text._ZN8SPIClass4sendEh
                0x00000000        0xa e:\drone_parachute\build\libraries\SPI\SPI.cpp.o
 .text._ZN8SPIClass4sendEPhm
                0x00000000        0xc e:\drone_parachute\build\libraries\SPI\SPI.cpp.o
 .text._ZN8SPIClass4recvEv
                0x00000000        0xa e:\drone_parachute\build\libraries\SPI\SPI.cpp.o
 .rodata._ZL2ff
                0x00000000        0x1 e:\drone_parachute\build\libraries\SPI\SPI.cpp.o
 .text          0x00000000        0x0 e:\drone_parachute\build\libraries\Servo\Servo.cpp.o
 .data          0x00000000        0x0 e:\drone_parachute\build\libraries\Servo\Servo.cpp.o
 .bss           0x00000000        0x0 e:\drone_parachute\build\libraries\Servo\Servo.cpp.o
 .text._ZNK5Servo16readMicrosecondsEv
                0x00000000       0x44 e:\drone_parachute\build\libraries\Servo\Servo.cpp.o
 .text._ZNK5Servo4readEv
                0x00000000       0x36 e:\drone_parachute\build\libraries\Servo\Servo.cpp.o
 .text          0x00000000        0x0 e:\drone_parachute\build\core\board.cpp.o
 .data          0x00000000        0x0 e:\drone_parachute\build\core\board.cpp.o
 .bss           0x00000000        0x0 e:\drone_parachute\build\core\board.cpp.o
 .USER_FLASH    0x00000000       0x19 e:\drone_parachute\build\core\board.cpp.o
 .text          0x00000000        0x0 e:\drone_parachute\build\core\wirish\boards.cpp.o
 .data          0x00000000        0x0 e:\drone_parachute\build\core\wirish\boards.cpp.o
 .bss           0x00000000        0x0 e:\drone_parachute\build\core\wirish\boards.cpp.o
 .text._Z9boardInitv
                0x00000000        0x2 e:\drone_parachute\build\core\wirish\boards.cpp.o
 .text._Z12boardUsesPinh
                0x00000000       0x1c e:\drone_parachute\build\core\wirish\boards.cpp.o
 .text          0x00000000        0x0 e:\drone_parachute\build\core\wirish\boards_setup.cpp.o
 .data          0x00000000        0x0 e:\drone_parachute\build\core\wirish\boards_setup.cpp.o
 .bss           0x00000000        0x0 e:\drone_parachute\build\core\wirish\boards_setup.cpp.o
 .data          0x00000000        0x0 e:\drone_parachute\build\core\wirish\start.S.o
 .bss           0x00000000        0x0 e:\drone_parachute\build\core\wirish\start.S.o
 .ARM.extab     0x00000000        0x0 e:\drone_parachute\build\core\wirish\start.S.o
 .text          0x00000000        0x0 e:\drone_parachute\build\core\wirish\start_c.c.o
 .data          0x00000000        0x0 e:\drone_parachute\build\core\wirish\start_c.c.o
 .bss           0x00000000        0x0 e:\drone_parachute\build\core\wirish\start_c.c.o
 .text          0x00000000        0x0 e:\drone_parachute\build\core\wirish\syscalls.c.o
 .data          0x00000000        0x0 e:\drone_parachute\build\core\wirish\syscalls.c.o
 .bss           0x00000000        0x0 e:\drone_parachute\build\core\wirish\syscalls.c.o
 .text._sbrk    0x00000000       0x44 e:\drone_parachute\build\core\wirish\syscalls.c.o
 .text._open    0x00000000        0x8 e:\drone_parachute\build\core\wirish\syscalls.c.o
 .text._close   0x00000000        0x4 e:\drone_parachute\build\core\wirish\syscalls.c.o
 .text._fstat   0x00000000        0xa e:\drone_parachute\build\core\wirish\syscalls.c.o
 .text._isatty  0x00000000        0x4 e:\drone_parachute\build\core\wirish\syscalls.c.o
 .text.isatty   0x00000000        0x4 e:\drone_parachute\build\core\wirish\syscalls.c.o
 .text._lseek   0x00000000        0x6 e:\drone_parachute\build\core\wirish\syscalls.c.o
 .text.getch    0x00000000        0x4 e:\drone_parachute\build\core\wirish\syscalls.c.o
 .text._read    0x00000000        0xe e:\drone_parachute\build\core\wirish\syscalls.c.o
 .text.putch    0x00000000        0x2 e:\drone_parachute\build\core\wirish\syscalls.c.o
 .text.cgets    0x00000000       0x78 e:\drone_parachute\build\core\wirish\syscalls.c.o
 .text._write   0x00000000       0x1a e:\drone_parachute\build\core\wirish\syscalls.c.o
 .text.fgets    0x00000000        0xc e:\drone_parachute\build\core\wirish\syscalls.c.o
 .text._exit    0x00000000        0x2 e:\drone_parachute\build\core\wirish\syscalls.c.o
 .bss.pbreak.4444
                0x00000000        0x4 e:\drone_parachute\build\core\wirish\syscalls.c.o
 .group         0x00000000        0x8 e:\drone_parachute\build\core\core.a(HardwareSerial.cpp.o)
 .text          0x00000000        0x0 e:\drone_parachute\build\core\core.a(HardwareSerial.cpp.o)
 .data          0x00000000        0x0 e:\drone_parachute\build\core\core.a(HardwareSerial.cpp.o)
 .bss           0x00000000        0x0 e:\drone_parachute\build\core\core.a(HardwareSerial.cpp.o)
 .text._ZN14HardwareSerial3endEv
                0x00000000        0x6 e:\drone_parachute\build\core\core.a(HardwareSerial.cpp.o)
 .text._ZN14HardwareSerial17availableForWriteEv
                0x00000000       0x12 e:\drone_parachute\build\core\core.a(HardwareSerial.cpp.o)
 .rodata._ZTV6Stream
                0x00000000       0x28 e:\drone_parachute\build\core\core.a(HardwareSerial.cpp.o)
 .text          0x00000000        0x0 e:\drone_parachute\build\core\core.a(HardwareTimer.cpp.o)
 .data          0x00000000        0x0 e:\drone_parachute\build\core\core.a(HardwareTimer.cpp.o)
 .bss           0x00000000        0x0 e:\drone_parachute\build\core\core.a(HardwareTimer.cpp.o)
 .text._ZN13HardwareTimer17getPrescaleFactorEv
                0x00000000        0xc e:\drone_parachute\build\core\core.a(HardwareTimer.cpp.o)
 .text._ZN13HardwareTimer11getOverflowEv
                0x00000000        0xa e:\drone_parachute\build\core\core.a(HardwareTimer.cpp.o)
 .text._ZN13HardwareTimer11setOverflowEt
                0x00000000        0x8 e:\drone_parachute\build\core\core.a(HardwareTimer.cpp.o)
 .text._ZN13HardwareTimer8getCountEv
                0x00000000        0xa e:\drone_parachute\build\core\core.a(HardwareTimer.cpp.o)
 .text._ZN13HardwareTimer8setCountEt
                0x00000000       0x12 e:\drone_parachute\build\core\core.a(HardwareTimer.cpp.o)
 .text._ZN13HardwareTimer10getCompareEi
                0x00000000       0x16 e:\drone_parachute\build\core\core.a(HardwareTimer.cpp.o)
 .text._ZN13HardwareTimer15detachInterruptEi
                0x00000000        0x8 e:\drone_parachute\build\core\core.a(HardwareTimer.cpp.o)
 .text._ZN13HardwareTimer9enableDMAEi
                0x00000000       0x18 e:\drone_parachute\build\core\core.a(HardwareTimer.cpp.o)
 .text._ZN13HardwareTimer10disableDMAEi
                0x00000000       0x18 e:\drone_parachute\build\core\core.a(HardwareTimer.cpp.o)
 .text._ZN13HardwareTimer17setMasterModeTrGoEm
                0x00000000       0x14 e:\drone_parachute\build\core\core.a(HardwareTimer.cpp.o)
 .text          0x00000000        0x0 e:\drone_parachute\build\core\core.a(Print.cpp.o)
 .data          0x00000000        0x0 e:\drone_parachute\build\core\core.a(Print.cpp.o)
 .bss           0x00000000        0x0 e:\drone_parachute\build\core\core.a(Print.cpp.o)
 .text._ZN5Print5printERK6String
                0x00000000       0x10 e:\drone_parachute\build\core\core.a(Print.cpp.o)
 .text._ZN5Print5printEPK19__FlashStringHelper
                0x00000000        0x4 e:\drone_parachute\build\core\core.a(Print.cpp.o)
 .text._ZN5Print5printERK9Printable
                0x00000000       0x10 e:\drone_parachute\build\core\core.a(Print.cpp.o)
 .text._ZN5Print7printlnERK6String
                0x00000000       0x14 e:\drone_parachute\build\core\core.a(Print.cpp.o)
 .text._ZN5Print7printlnEc
                0x00000000       0x14 e:\drone_parachute\build\core\core.a(Print.cpp.o)
 .text._ZN5Print7printlnEPKc
                0x00000000       0x14 e:\drone_parachute\build\core\core.a(Print.cpp.o)
 .text._ZN5Print7printlnEPK19__FlashStringHelper
                0x00000000       0x14 e:\drone_parachute\build\core\core.a(Print.cpp.o)
 .text._ZN5Print7printlnERK9Printable
                0x00000000       0x14 e:\drone_parachute\build\core\core.a(Print.cpp.o)
 .text._ZN5Print7printlnEii
                0x00000000       0x14 e:\drone_parachute\build\core\core.a(Print.cpp.o)
 .text._ZN5Print5printEli
                0x00000000       0x12 e:\drone_parachute\build\core\core.a(Print.cpp.o)
 .text._ZN5Print7printlnEli
                0x00000000       0x1c e:\drone_parachute\build\core\core.a(Print.cpp.o)
 .text._ZN5Print7printlnExi
                0x00000000       0x1a e:\drone_parachute\build\core\core.a(Print.cpp.o)
 .text._ZN5Print5printEyi
                0x00000000        0xa e:\drone_parachute\build\core\core.a(Print.cpp.o)
 .text._ZN5Print5printEhi
                0x00000000       0x14 e:\drone_parachute\build\core\core.a(Print.cpp.o)
 .text._ZN5Print7printlnEhi
                0x00000000       0x14 e:\drone_parachute\build\core\core.a(Print.cpp.o)
 .text._ZN5Print5printEji
                0x00000000       0x14 e:\drone_parachute\build\core\core.a(Print.cpp.o)
 .text._ZN5Print7printlnEji
                0x00000000       0x14 e:\drone_parachute\build\core\core.a(Print.cpp.o)
 .text._ZN5Print5printEmi
                0x00000000       0x14 e:\drone_parachute\build\core\core.a(Print.cpp.o)
 .text._ZN5Print7printlnEmi
                0x00000000       0x1e e:\drone_parachute\build\core\core.a(Print.cpp.o)
 .text._ZN5Print7printlnEyi
                0x00000000       0x1c e:\drone_parachute\build\core\core.a(Print.cpp.o)
 .rodata._ZTV5Print
                0x00000000       0x18 e:\drone_parachute\build\core\core.a(Print.cpp.o)
 .text          0x00000000        0x0 e:\drone_parachute\build\core\core.a(cxxabi-compat.cpp.o)
 .data          0x00000000        0x0 e:\drone_parachute\build\core\core.a(cxxabi-compat.cpp.o)
 .bss           0x00000000        0x0 e:\drone_parachute\build\core\core.a(cxxabi-compat.cpp.o)
 .text.__cxa_demangle
                0x00000000        0xc e:\drone_parachute\build\core\core.a(cxxabi-compat.cpp.o)
 .text          0x00000000        0x0 e:\drone_parachute\build\core\core.a(adc.c.o)
 .data          0x00000000        0x0 e:\drone_parachute\build\core\core.a(adc.c.o)
 .bss           0x00000000        0x0 e:\drone_parachute\build\core\core.a(adc.c.o)
 .text          0x00000000        0x0 e:\drone_parachute\build\core\core.a(adc_f1.c.o)
 .data          0x00000000        0x0 e:\drone_parachute\build\core\core.a(adc_f1.c.o)
 .bss           0x00000000        0x0 e:\drone_parachute\build\core\core.a(adc_f1.c.o)
 .text.adc_enable_irq
                0x00000000       0x30 e:\drone_parachute\build\core\core.a(adc_f1.c.o)
 .text.adc_attach_interrupt
                0x00000000        0xa e:\drone_parachute\build\core\core.a(adc_f1.c.o)
 .text.adc_config_gpio
                0x00000000        0xa e:\drone_parachute\build\core\core.a(adc_f1.c.o)
 .text          0x00000000        0x0 e:\drone_parachute\build\core\core.a(dma.c.o)
 .data          0x00000000        0x0 e:\drone_parachute\build\core\core.a(dma.c.o)
 .bss           0x00000000        0x0 e:\drone_parachute\build\core\core.a(dma.c.o)
 .text.dma_init
                0x00000000        0x6 e:\drone_parachute\build\core\core.a(dma.c.o)
 .text._dma_addr_type
                0x00000000       0x28 e:\drone_parachute\build\core\core.a(dma.c.o)
 .text          0x00000000        0x0 e:\drone_parachute\build\core\core.a(dma_f1.c.o)
 .data          0x00000000        0x0 e:\drone_parachute\build\core\core.a(dma_f1.c.o)
 .bss           0x00000000        0x0 e:\drone_parachute\build\core\core.a(dma_f1.c.o)
 .text.dma_set_priority
                0x00000000       0x18 e:\drone_parachute\build\core\core.a(dma_f1.c.o)
 .text.dma_set_num_transfers
                0x00000000       0x10 e:\drone_parachute\build\core\core.a(dma_f1.c.o)
 .text.dma_attach_interrupt
                0x00000000       0x28 e:\drone_parachute\build\core\core.a(dma_f1.c.o)
 .text.dma_detach_interrupt
                0x00000000       0x1c e:\drone_parachute\build\core\core.a(dma_f1.c.o)
 .text.dma_enable
                0x00000000       0x18 e:\drone_parachute\build\core\core.a(dma_f1.c.o)
 .text.dma_disable
                0x00000000       0x18 e:\drone_parachute\build\core\core.a(dma_f1.c.o)
 .text.dma_tube_cfg
                0x00000000      0x15c e:\drone_parachute\build\core\core.a(dma_f1.c.o)
 .text.dma_get_irq_cause
                0x00000000       0x3c e:\drone_parachute\build\core\core.a(dma_f1.c.o)
 .text.dma_set_mem_addr
                0x00000000       0x10 e:\drone_parachute\build\core\core.a(dma_f1.c.o)
 .text.dma_set_per_addr
                0x00000000       0x10 e:\drone_parachute\build\core\core.a(dma_f1.c.o)
 .text.dma_setup_transfer
                0x00000000       0x36 e:\drone_parachute\build\core\core.a(dma_f1.c.o)
 .data          0x00000000        0x0 e:\drone_parachute\build\core\core.a(exc.S.o)
 .bss           0x00000000        0x0 e:\drone_parachute\build\core\core.a(exc.S.o)
 .text          0x00000000        0x0 e:\drone_parachute\build\core\core.a(exti.c.o)
 .data          0x00000000        0x0 e:\drone_parachute\build\core\core.a(exti.c.o)
 .bss           0x00000000        0x0 e:\drone_parachute\build\core\core.a(exti.c.o)
 .text.exti_attach_callback
                0x00000000       0xac e:\drone_parachute\build\core\core.a(exti.c.o)
 .text.exti_attach_interrupt
                0x00000000       0x10 e:\drone_parachute\build\core\core.a(exti.c.o)
 .text.exti_detach_interrupt
                0x00000000       0x28 e:\drone_parachute\build\core\core.a(exti.c.o)
 .text.exti_do_select
                0x00000000       0x1a e:\drone_parachute\build\core\core.a(exti.c.o)
 .text          0x00000000        0x0 e:\drone_parachute\build\core\core.a(exti_f1.c.o)
 .data          0x00000000        0x0 e:\drone_parachute\build\core\core.a(exti_f1.c.o)
 .bss           0x00000000        0x0 e:\drone_parachute\build\core\core.a(exti_f1.c.o)
 .text.exti_select
                0x00000000       0x18 e:\drone_parachute\build\core\core.a(exti_f1.c.o)
 .text          0x00000000        0x0 e:\drone_parachute\build\core\core.a(flash.c.o)
 .data          0x00000000        0x0 e:\drone_parachute\build\core\core.a(flash.c.o)
 .bss           0x00000000        0x0 e:\drone_parachute\build\core\core.a(flash.c.o)
 .text          0x00000000        0x0 e:\drone_parachute\build\core\core.a(gpio_f1.c.o)
 .data          0x00000000        0x0 e:\drone_parachute\build\core\core.a(gpio_f1.c.o)
 .bss           0x00000000        0x0 e:\drone_parachute\build\core\core.a(gpio_f1.c.o)
 .text.gpio_get_mode
                0x00000000       0x2a e:\drone_parachute\build\core\core.a(gpio_f1.c.o)
 .rodata.GPIOA  0x00000000        0x4 e:\drone_parachute\build\core\core.a(gpio_f1.c.o)
 .rodata.GPIOB  0x00000000        0x4 e:\drone_parachute\build\core\core.a(gpio_f1.c.o)
 .rodata.GPIOD  0x00000000        0x4 e:\drone_parachute\build\core\core.a(gpio_f1.c.o)
 .text          0x00000000        0x0 e:\drone_parachute\build\core\core.a(i2c.c.o)
 .data          0x00000000        0x0 e:\drone_parachute\build\core\core.a(i2c.c.o)
 .bss           0x00000000        0x0 e:\drone_parachute\build\core\core.a(i2c.c.o)
 .text.i2c_slave_enable
                0x00000000        0x8 e:\drone_parachute\build\core\core.a(i2c.c.o)
 .text.i2c_slave_attach_recv_handler
                0x00000000        0xa e:\drone_parachute\build\core\core.a(i2c.c.o)
 .text.i2c_slave_attach_transmit_handler
                0x00000000        0xa e:\drone_parachute\build\core\core.a(i2c.c.o)
 .text          0x00000000        0x0 e:\drone_parachute\build\core\core.a(i2c_f1.c.o)
 .data          0x00000000        0x0 e:\drone_parachute\build\core\core.a(i2c_f1.c.o)
 .bss           0x00000000        0x0 e:\drone_parachute\build\core\core.a(i2c_f1.c.o)
 .rodata.I2C2   0x00000000        0x4 e:\drone_parachute\build\core\core.a(i2c_f1.c.o)
 .text          0x00000000        0x0 e:\drone_parachute\build\core\core.a(nvic.c.o)
 .data          0x00000000        0x0 e:\drone_parachute\build\core\core.a(nvic.c.o)
 .bss           0x00000000        0x0 e:\drone_parachute\build\core\core.a(nvic.c.o)
 .text.nvic_set_vector_table
                0x00000000       0x14 e:\drone_parachute\build\core\core.a(nvic.c.o)
 .text.nvic_sys_reset
                0x00000000       0x1c e:\drone_parachute\build\core\core.a(nvic.c.o)
 .text          0x00000000        0x0 e:\drone_parachute\build\core\core.a(rcc.c.o)
 .data          0x00000000        0x0 e:\drone_parachute\build\core\core.a(rcc.c.o)
 .bss           0x00000000        0x0 e:\drone_parachute\build\core\core.a(rcc.c.o)
 .text.rcc_is_clk_on
                0x00000000       0x1e e:\drone_parachute\build\core\core.a(rcc.c.o)
 .text          0x00000000        0x0 e:\drone_parachute\build\core\core.a(rcc_f1.c.o)
 .data          0x00000000        0x0 e:\drone_parachute\build\core\core.a(rcc_f1.c.o)
 .bss           0x00000000        0x0 e:\drone_parachute\build\core\core.a(rcc_f1.c.o)
 .text.rcc_clk_init
                0x00000000       0x3c e:\drone_parachute\build\core\core.a(rcc_f1.c.o)
 .text          0x00000000        0x0 e:\drone_parachute\build\core\core.a(spi.c.o)
 .data          0x00000000        0x0 e:\drone_parachute\build\core\core.a(spi.c.o)
 .bss           0x00000000        0x0 e:\drone_parachute\build\core\core.a(spi.c.o)
 .text.spi_tx   0x00000000       0x38 e:\drone_parachute\build\core\core.a(spi.c.o)
 .text.spi_slave_enable
                0x00000000        0x6 e:\drone_parachute\build\core\core.a(spi.c.o)
 .text.spi_tx_dma_enable
                0x00000000        0xc e:\drone_parachute\build\core\core.a(spi.c.o)
 .text.spi_tx_dma_disable
                0x00000000        0xc e:\drone_parachute\build\core\core.a(spi.c.o)
 .text.spi_rx_dma_enable
                0x00000000        0xc e:\drone_parachute\build\core\core.a(spi.c.o)
 .text.spi_rx_dma_disable
                0x00000000        0xc e:\drone_parachute\build\core\core.a(spi.c.o)
 .text          0x00000000        0x0 e:\drone_parachute\build\core\core.a(spi_f1.c.o)
 .data          0x00000000        0x0 e:\drone_parachute\build\core\core.a(spi_f1.c.o)
 .bss           0x00000000        0x0 e:\drone_parachute\build\core\core.a(spi_f1.c.o)
 .text.spi_foreach
                0x00000000       0x1c e:\drone_parachute\build\core\core.a(spi_f1.c.o)
 .data          0x00000000        0x0 e:\drone_parachute\build\core\core.a(isrs.S.o)
 .bss           0x00000000        0x0 e:\drone_parachute\build\core\core.a(isrs.S.o)
 .text          0x00000000        0x0 e:\drone_parachute\build\core\core.a(vector_table.S.o)
 .data          0x00000000        0x0 e:\drone_parachute\build\core\core.a(vector_table.S.o)
 .bss           0x00000000        0x0 e:\drone_parachute\build\core\core.a(vector_table.S.o)
 .text          0x00000000        0x0 e:\drone_parachute\build\core\core.a(systick.c.o)
 .data          0x00000000        0x0 e:\drone_parachute\build\core\core.a(systick.c.o)
 .bss           0x00000000        0x0 e:\drone_parachute\build\core\core.a(systick.c.o)
 .text.systick_disable
                0x00000000        0xc e:\drone_parachute\build\core\core.a(systick.c.o)
 .text.systick_enable
                0x00000000        0xc e:\drone_parachute\build\core\core.a(systick.c.o)
 .text.systick_attach_callback
                0x00000000        0xc e:\drone_parachute\build\core\core.a(systick.c.o)
 .text          0x00000000        0x0 e:\drone_parachute\build\core\core.a(timer.c.o)
 .data          0x00000000        0x0 e:\drone_parachute\build\core\core.a(timer.c.o)
 .bss           0x00000000        0x0 e:\drone_parachute\build\core\core.a(timer.c.o)
 .text.timer_disable
                0x00000000       0x12 e:\drone_parachute\build\core\core.a(timer.c.o)
 .text.get_direction
                0x00000000        0xe e:\drone_parachute\build\core\core.a(timer.c.o)
 .rodata.TIMER1
                0x00000000        0x4 e:\drone_parachute\build\core\core.a(timer.c.o)
 .rodata.TIMER2
                0x00000000        0x4 e:\drone_parachute\build\core\core.a(timer.c.o)
 .rodata.TIMER3
                0x00000000        0x4 e:\drone_parachute\build\core\core.a(timer.c.o)
 .rodata.TIMER4
                0x00000000        0x4 e:\drone_parachute\build\core\core.a(timer.c.o)
 .text          0x00000000        0x0 e:\drone_parachute\build\core\core.a(usart.c.o)
 .data          0x00000000        0x0 e:\drone_parachute\build\core\core.a(usart.c.o)
 .bss           0x00000000        0x0 e:\drone_parachute\build\core\core.a(usart.c.o)
 .text.usart_disable
                0x00000000       0x38 e:\drone_parachute\build\core\core.a(usart.c.o)
 .text.usart_rx
                0x00000000       0x58 e:\drone_parachute\build\core\core.a(usart.c.o)
 .text.usart_putudec
                0x00000000       0x44 e:\drone_parachute\build\core\core.a(usart.c.o)
 .text          0x00000000        0x0 e:\drone_parachute\build\core\core.a(usart_f1.c.o)
 .data          0x00000000        0x0 e:\drone_parachute\build\core\core.a(usart_f1.c.o)
 .bss           0x00000000        0x0 e:\drone_parachute\build\core\core.a(usart_f1.c.o)
 .text.usart_foreach
                0x00000000       0x24 e:\drone_parachute\build\core\core.a(usart_f1.c.o)
 .text          0x00000000        0x0 e:\drone_parachute\build\core\core.a(usart_private.c.o)
 .data          0x00000000        0x0 e:\drone_parachute\build\core\core.a(usart_private.c.o)
 .bss           0x00000000        0x0 e:\drone_parachute\build\core\core.a(usart_private.c.o)
 .text          0x00000000        0x0 e:\drone_parachute\build\core\core.a(usb.c.o)
 .data          0x00000000        0x0 e:\drone_parachute\build\core\core.a(usb.c.o)
 .bss           0x00000000        0x0 e:\drone_parachute\build\core\core.a(usb.c.o)
 .text.usb_init_usblib
                0x00000000       0x48 e:\drone_parachute\build\core\core.a(usb.c.o)
 .text.usb_power_off
                0x00000000       0x14 e:\drone_parachute\build\core\core.a(usb.c.o)
 .text          0x00000000        0x0 e:\drone_parachute\build\core\core.a(usb_cdcacm.c.o)
 .data          0x00000000        0x0 e:\drone_parachute\build\core\core.a(usb_cdcacm.c.o)
 .bss           0x00000000        0x0 e:\drone_parachute\build\core\core.a(usb_cdcacm.c.o)
 .text.usbSetConfiguration
                0x00000000       0x1c e:\drone_parachute\build\core\core.a(usb_cdcacm.c.o)
 .text.usbSetDeviceAddress
                0x00000000       0x10 e:\drone_parachute\build\core\core.a(usb_cdcacm.c.o)
 .text.vcomDataTxCb
                0x00000000       0xa0 e:\drone_parachute\build\core\core.a(usb_cdcacm.c.o)
 .text.vcomDataRxCb
                0x00000000       0x7c e:\drone_parachute\build\core\core.a(usb_cdcacm.c.o)
 .text.usb_cdcacm_set_hooks
                0x00000000       0x1c e:\drone_parachute\build\core\core.a(usb_cdcacm.c.o)
 .text.usb_cdcacm_enable
                0x00000000       0x38 e:\drone_parachute\build\core\core.a(usb_cdcacm.c.o)
 .text.usb_cdcacm_disable
                0x00000000       0x20 e:\drone_parachute\build\core\core.a(usb_cdcacm.c.o)
 .text.usb_cdcacm_tx
                0x00000000       0x60 e:\drone_parachute\build\core\core.a(usb_cdcacm.c.o)
 .text.usb_cdcacm_putc
                0x00000000       0x1a e:\drone_parachute\build\core\core.a(usb_cdcacm.c.o)
 .text.usb_cdcacm_data_available
                0x00000000       0x18 e:\drone_parachute\build\core\core.a(usb_cdcacm.c.o)
 .text.usb_cdcacm_is_transmitting
                0x00000000       0x14 e:\drone_parachute\build\core\core.a(usb_cdcacm.c.o)
 .text.usb_cdcacm_get_pending
                0x00000000       0x18 e:\drone_parachute\build\core\core.a(usb_cdcacm.c.o)
 .text.usb_cdcacm_tx_available
                0x00000000        0xc e:\drone_parachute\build\core\core.a(usb_cdcacm.c.o)
 .text.usb_cdcacm_peek
                0x00000000       0x38 e:\drone_parachute\build\core\core.a(usb_cdcacm.c.o)
 .text.usb_cdcacm_rx
                0x00000000       0x34 e:\drone_parachute\build\core\core.a(usb_cdcacm.c.o)
 .text.usb_cdcacm_peek_ex
                0x00000000       0x40 e:\drone_parachute\build\core\core.a(usb_cdcacm.c.o)
 .text.usb_cdcacm_peek_char
                0x00000000       0x24 e:\drone_parachute\build\core\core.a(usb_cdcacm.c.o)
 .text.usb_cdcacm_get_dtr
                0x00000000       0x10 e:\drone_parachute\build\core\core.a(usb_cdcacm.c.o)
 .text.usb_cdcacm_get_rts
                0x00000000       0x10 e:\drone_parachute\build\core\core.a(usb_cdcacm.c.o)
 .text.usb_cdcacm_get_line_coding
                0x00000000       0x18 e:\drone_parachute\build\core\core.a(usb_cdcacm.c.o)
 .text.usb_cdcacm_get_baud
                0x00000000        0xc e:\drone_parachute\build\core\core.a(usb_cdcacm.c.o)
 .text.usb_cdcacm_get_stop_bits
                0x00000000        0xc e:\drone_parachute\build\core\core.a(usb_cdcacm.c.o)
 .text.usb_cdcacm_get_parity
                0x00000000        0xc e:\drone_parachute\build\core\core.a(usb_cdcacm.c.o)
 .text.usb_cdcacm_get_n_data_bits
                0x00000000        0xc e:\drone_parachute\build\core\core.a(usb_cdcacm.c.o)
 .bss.vcomBufferTx
                0x00000000      0x100 e:\drone_parachute\build\core\core.a(usb_cdcacm.c.o)
 .data.ep_int_in
                0x00000000       0x1c e:\drone_parachute\build\core\core.a(usb_cdcacm.c.o)
 .bss.rx_hook   0x00000000        0x4 e:\drone_parachute\build\core\core.a(usb_cdcacm.c.o)
 .bss.vcomBufferRx
                0x00000000      0x100 e:\drone_parachute\build\core\core.a(usb_cdcacm.c.o)
 .data.ep_int_out
                0x00000000       0x1c e:\drone_parachute\build\core\core.a(usb_cdcacm.c.o)
 .data.User_Standard_Requests
                0x00000000       0x24 e:\drone_parachute\build\core\core.a(usb_cdcacm.c.o)
 .text          0x00000000        0x0 e:\drone_parachute\build\core\core.a(usb_reg_map.c.o)
 .data          0x00000000        0x0 e:\drone_parachute\build\core\core.a(usb_reg_map.c.o)
 .bss           0x00000000        0x0 e:\drone_parachute\build\core\core.a(usb_reg_map.c.o)
 .text          0x00000000        0x0 e:\drone_parachute\build\core\core.a(usb_core.c.o)
 .data          0x00000000        0x0 e:\drone_parachute\build\core\core.a(usb_core.c.o)
 .bss           0x00000000        0x0 e:\drone_parachute\build\core\core.a(usb_core.c.o)
 .text          0x00000000        0x0 e:\drone_parachute\build\core\core.a(usb_init.c.o)
 .data          0x00000000        0x0 e:\drone_parachute\build\core\core.a(usb_init.c.o)
 .bss           0x00000000        0x0 e:\drone_parachute\build\core\core.a(usb_init.c.o)
 .text.USB_Init
                0x00000000       0x38 e:\drone_parachute\build\core\core.a(usb_init.c.o)
 .text          0x00000000        0x0 e:\drone_parachute\build\core\core.a(usb_mem.c.o)
 .data          0x00000000        0x0 e:\drone_parachute\build\core\core.a(usb_mem.c.o)
 .bss           0x00000000        0x0 e:\drone_parachute\build\core\core.a(usb_mem.c.o)
 .text          0x00000000        0x0 e:\drone_parachute\build\core\core.a(usb_regs.c.o)
 .data          0x00000000        0x0 e:\drone_parachute\build\core\core.a(usb_regs.c.o)
 .bss           0x00000000        0x0 e:\drone_parachute\build\core\core.a(usb_regs.c.o)
 .text.SetCNTR  0x00000000        0xc e:\drone_parachute\build\core\core.a(usb_regs.c.o)
 .text.GetCNTR  0x00000000        0xc e:\drone_parachute\build\core\core.a(usb_regs.c.o)
 .text.SetISTR  0x00000000        0xc e:\drone_parachute\build\core\core.a(usb_regs.c.o)
 .text.GetISTR  0x00000000        0xc e:\drone_parachute\build\core\core.a(usb_regs.c.o)
 .text.GetFNR   0x00000000        0xc e:\drone_parachute\build\core\core.a(usb_regs.c.o)
 .text.SetDADDR
                0x00000000        0xc e:\drone_parachute\build\core\core.a(usb_regs.c.o)
 .text.GetDADDR
                0x00000000        0xc e:\drone_parachute\build\core\core.a(usb_regs.c.o)
 .text.SetBTABLE
                0x00000000       0x10 e:\drone_parachute\build\core\core.a(usb_regs.c.o)
 .text.GetBTABLE
                0x00000000        0xc e:\drone_parachute\build\core\core.a(usb_regs.c.o)
 .text.SetENDPOINT
                0x00000000        0xe e:\drone_parachute\build\core\core.a(usb_regs.c.o)
 .text.GetENDPOINT
                0x00000000       0x10 e:\drone_parachute\build\core\core.a(usb_regs.c.o)
 .text.SetEPType
                0x00000000       0x1c e:\drone_parachute\build\core\core.a(usb_regs.c.o)
 .text.GetEPType
                0x00000000       0x12 e:\drone_parachute\build\core\core.a(usb_regs.c.o)
 .text.SetEPRxStatus
                0x00000000       0x2a e:\drone_parachute\build\core\core.a(usb_regs.c.o)
 .text.SetDouBleBuffEPStall
                0x00000000       0x24 e:\drone_parachute\build\core\core.a(usb_regs.c.o)
 .text.GetEPTxStatus
                0x00000000       0x12 e:\drone_parachute\build\core\core.a(usb_regs.c.o)
 .text.GetEPRxStatus
                0x00000000       0x12 e:\drone_parachute\build\core\core.a(usb_regs.c.o)
 .text.SetEPTxValid
                0x00000000       0x1e e:\drone_parachute\build\core\core.a(usb_regs.c.o)
 .text.SetEPRxValid
                0x00000000       0x1e e:\drone_parachute\build\core\core.a(usb_regs.c.o)
 .text.SetEP_KIND
                0x00000000       0x1e e:\drone_parachute\build\core\core.a(usb_regs.c.o)
 .text.ClearEP_KIND
                0x00000000       0x1c e:\drone_parachute\build\core\core.a(usb_regs.c.o)
 .text.Clear_Status_Out
                0x00000000       0x1c e:\drone_parachute\build\core\core.a(usb_regs.c.o)
 .text.Set_Status_Out
                0x00000000       0x1e e:\drone_parachute\build\core\core.a(usb_regs.c.o)
 .text.SetEPDoubleBuff
                0x00000000       0x1e e:\drone_parachute\build\core\core.a(usb_regs.c.o)
 .text.ClearEPDoubleBuff
                0x00000000       0x1c e:\drone_parachute\build\core\core.a(usb_regs.c.o)
 .text.GetTxStallStatus
                0x00000000       0x1a e:\drone_parachute\build\core\core.a(usb_regs.c.o)
 .text.GetRxStallStatus
                0x00000000       0x1a e:\drone_parachute\build\core\core.a(usb_regs.c.o)
 .text.ClearEP_CTR_RX
                0x00000000       0x18 e:\drone_parachute\build\core\core.a(usb_regs.c.o)
 .text.ClearEP_CTR_TX
                0x00000000       0x1c e:\drone_parachute\build\core\core.a(usb_regs.c.o)
 .text.ToggleDTOG_RX
                0x00000000       0x20 e:\drone_parachute\build\core\core.a(usb_regs.c.o)
 .text.ToggleDTOG_TX
                0x00000000       0x20 e:\drone_parachute\build\core\core.a(usb_regs.c.o)
 .text.SetEPAddress
                0x00000000       0x1e e:\drone_parachute\build\core\core.a(usb_regs.c.o)
 .text.GetEPAddress
                0x00000000       0x12 e:\drone_parachute\build\core\core.a(usb_regs.c.o)
 .text.SetEPTxAddr
                0x00000000       0x20 e:\drone_parachute\build\core\core.a(usb_regs.c.o)
 .text.SetEPRxAddr
                0x00000000       0x20 e:\drone_parachute\build\core\core.a(usb_regs.c.o)
 .text.SetEPCountRxReg
                0x00000000       0x26 e:\drone_parachute\build\core\core.a(usb_regs.c.o)
 .text.GetEPTxCount
                0x00000000       0x20 e:\drone_parachute\build\core\core.a(usb_regs.c.o)
 .text.GetEPRxCount
                0x00000000       0x20 e:\drone_parachute\build\core\core.a(usb_regs.c.o)
 .text.SetEPDblBuffAddr
                0x00000000       0x38 e:\drone_parachute\build\core\core.a(usb_regs.c.o)
 .text.SetEPDblBuf0Addr
                0x00000000       0x20 e:\drone_parachute\build\core\core.a(usb_regs.c.o)
 .text.SetEPDblBuf1Addr
                0x00000000       0x20 e:\drone_parachute\build\core\core.a(usb_regs.c.o)
 .text.GetEPDblBuf0Addr
                0x00000000       0x1c e:\drone_parachute\build\core\core.a(usb_regs.c.o)
 .text.GetEPDblBuf1Addr
                0x00000000       0x1c e:\drone_parachute\build\core\core.a(usb_regs.c.o)
 .text.SetEPDblBuffCount
                0x00000000       0xa8 e:\drone_parachute\build\core\core.a(usb_regs.c.o)
 .text.SetEPDblBuf0Count
                0x00000000       0x5c e:\drone_parachute\build\core\core.a(usb_regs.c.o)
 .text.SetEPDblBuf1Count
                0x00000000       0x5c e:\drone_parachute\build\core\core.a(usb_regs.c.o)
 .text.GetEPDblBuf0Count
                0x00000000       0x20 e:\drone_parachute\build\core\core.a(usb_regs.c.o)
 .text.GetEPDblBuf1Count
                0x00000000       0x20 e:\drone_parachute\build\core\core.a(usb_regs.c.o)
 .text.GetEPDblBufDir
                0x00000000       0x44 e:\drone_parachute\build\core\core.a(usb_regs.c.o)
 .text.FreeUserBuffer
                0x00000000       0x3a e:\drone_parachute\build\core\core.a(usb_regs.c.o)
 .text.ToWord   0x00000000        0x6 e:\drone_parachute\build\core\core.a(usb_regs.c.o)
 .text.ByteSwap
                0x00000000        0xa e:\drone_parachute\build\core\core.a(usb_regs.c.o)
 .text          0x00000000        0x0 e:\drone_parachute\build\core\core.a(util.c.o)
 .data          0x00000000        0x0 e:\drone_parachute\build\core\core.a(util.c.o)
 .bss           0x00000000        0x0 e:\drone_parachute\build\core\core.a(util.c.o)
 .text.usart_putc
                0x00000000       0x1c e:\drone_parachute\build\core\core.a(util.c.o)
 .text.usart_putstr
                0x00000000       0x16 e:\drone_parachute\build\core\core.a(util.c.o)
 .text._fail    0x00000000       0x64 e:\drone_parachute\build\core\core.a(util.c.o)
 .text.__assert_func
                0x00000000        0x8 e:\drone_parachute\build\core\core.a(util.c.o)
 .text.abort    0x00000000       0x1c e:\drone_parachute\build\core\core.a(util.c.o)
 .rodata.str1.1
                0x00000000       0x42 e:\drone_parachute\build\core\core.a(util.c.o)
 .text          0x00000000        0x0 e:\drone_parachute\build\core\core.a(main.cpp.o)
 .data          0x00000000        0x0 e:\drone_parachute\build\core\core.a(main.cpp.o)
 .bss           0x00000000        0x0 e:\drone_parachute\build\core\core.a(main.cpp.o)
 .text          0x00000000        0x0 e:\drone_parachute\build\core\core.a(pwm.cpp.o)
 .data          0x00000000        0x0 e:\drone_parachute\build\core\core.a(pwm.cpp.o)
 .bss           0x00000000        0x0 e:\drone_parachute\build\core\core.a(pwm.cpp.o)
 .text._Z11analogWritehi
                0x00000000       0x1c e:\drone_parachute\build\core\core.a(pwm.cpp.o)
 .text          0x00000000        0x0 e:\drone_parachute\build\core\core.a(wirish_digital_f1.cpp.o)
 .data          0x00000000        0x0 e:\drone_parachute\build\core\core.a(wirish_digital_f1.cpp.o)
 .bss           0x00000000        0x0 e:\drone_parachute\build\core\core.a(wirish_digital_f1.cpp.o)
 .text          0x00000000        0x0 e:\drone_parachute\build\core\core.a(wirish_analog.cpp.o)
 .data          0x00000000        0x0 e:\drone_parachute\build\core\core.a(wirish_analog.cpp.o)
 .bss           0x00000000        0x0 e:\drone_parachute\build\core\core.a(wirish_analog.cpp.o)
 .text          0x00000000        0x0 e:\drone_parachute\build\core\core.a(wirish_digital.cpp.o)
 .data          0x00000000        0x0 e:\drone_parachute\build\core\core.a(wirish_digital.cpp.o)
 .bss           0x00000000        0x0 e:\drone_parachute\build\core\core.a(wirish_digital.cpp.o)
 .text._Z11digitalReadh
                0x00000000       0x2c e:\drone_parachute\build\core\core.a(wirish_digital.cpp.o)
 .text          0x00000000        0x0 e:\drone_parachute\build\core\core.a(wirish_time.cpp.o)
 .data          0x00000000        0x0 e:\drone_parachute\build\core\core.a(wirish_time.cpp.o)
 .bss           0x00000000        0x0 e:\drone_parachute\build\core\core.a(wirish_time.cpp.o)
 .text._Z17delayMicrosecondsm
                0x00000000       0x10 e:\drone_parachute\build\core\core.a(wirish_time.cpp.o)
 .text          0x00000000        0x0 e:\drone_parachute\build\core\core.a(hooks.c.o)
 .data          0x00000000        0x0 e:\drone_parachute\build\core\core.a(hooks.c.o)
 .bss           0x00000000        0x0 e:\drone_parachute\build\core\core.a(hooks.c.o)
 .text          0x00000000        0x0 e:\drone_parachute\build\core\core.a(gpio.c.o)
 .data          0x00000000        0x0 e:\drone_parachute\build\core\core.a(gpio.c.o)
 .bss           0x00000000        0x0 e:\drone_parachute\build\core\core.a(gpio.c.o)
 .text          0x00000000        0x0 c:/users/param/appdata/local/arduino15/packages/arduino/tools/arm-none-eabi-gcc/4.8.3-2014q1/bin/../lib/gcc/arm-none-eabi/4.8.3/../../../../arm-none-eabi/lib/armv7-m\libm.a(lib_a-w_sqrt.o)
 .data          0x00000000        0x0 c:/users/param/appdata/local/arduino15/packages/arduino/tools/arm-none-eabi-gcc/4.8.3-2014q1/bin/../lib/gcc/arm-none-eabi/4.8.3/../../../../arm-none-eabi/lib/armv7-m\libm.a(lib_a-w_sqrt.o)
 .bss           0x00000000        0x0 c:/users/param/appdata/local/arduino15/packages/arduino/tools/arm-none-eabi-gcc/4.8.3-2014q1/bin/../lib/gcc/arm-none-eabi/4.8.3/../../../../arm-none-eabi/lib/armv7-m\libm.a(lib_a-w_sqrt.o)
 .text          0x00000000        0x0 c:/users/param/appdata/local/arduino15/packages/arduino/tools/arm-none-eabi-gcc/4.8.3-2014q1/bin/../lib/gcc/arm-none-eabi/4.8.3/../../../../arm-none-eabi/lib/armv7-m\libm.a(lib_a-e_sqrt.o)
 .data          0x00000000        0x0 c:/users/param/appdata/local/arduino15/packages/arduino/tools/arm-none-eabi-gcc/4.8.3-2014q1/bin/../lib/gcc/arm-none-eabi/4.8.3/../../../../arm-none-eabi/lib/armv7-m\libm.a(lib_a-e_sqrt.o)
 .bss           0x00000000        0x0 c:/users/param/appdata/local/arduino15/packages/arduino/tools/arm-none-eabi-gcc/4.8.3-2014q1/bin/../lib/gcc/arm-none-eabi/4.8.3/../../../../arm-none-eabi/lib/armv7-m\libm.a(lib_a-e_sqrt.o)
 .text          0x00000000        0x0 c:/users/param/appdata/local/arduino15/packages/arduino/tools/arm-none-eabi-gcc/4.8.3-2014q1/bin/../lib/gcc/arm-none-eabi/4.8.3/../../../../arm-none-eabi/lib/armv7-m\libm.a(lib_a-s_fpclassify.o)
 .data          0x00000000        0x0 c:/users/param/appdata/local/arduino15/packages/arduino/tools/arm-none-eabi-gcc/4.8.3-2014q1/bin/../lib/gcc/arm-none-eabi/4.8.3/../../../../arm-none-eabi/lib/armv7-m\libm.a(lib_a-s_fpclassify.o)
 .bss           0x00000000        0x0 c:/users/param/appdata/local/arduino15/packages/arduino/tools/arm-none-eabi-gcc/4.8.3-2014q1/bin/../lib/gcc/arm-none-eabi/4.8.3/../../../../arm-none-eabi/lib/armv7-m\libm.a(lib_a-s_fpclassify.o)
 .text          0x00000000        0x0 c:/users/param/appdata/local/arduino15/packages/arduino/tools/arm-none-eabi-gcc/4.8.3-2014q1/bin/../lib/gcc/arm-none-eabi/4.8.3/../../../../arm-none-eabi/lib/armv7-m\libm.a(lib_a-s_lib_ver.o)
 .data          0x00000000        0x0 c:/users/param/appdata/local/arduino15/packages/arduino/tools/arm-none-eabi-gcc/4.8.3-2014q1/bin/../lib/gcc/arm-none-eabi/4.8.3/../../../../arm-none-eabi/lib/armv7-m\libm.a(lib_a-s_lib_ver.o)
 .bss           0x00000000        0x0 c:/users/param/appdata/local/arduino15/packages/arduino/tools/arm-none-eabi-gcc/4.8.3-2014q1/bin/../lib/gcc/arm-none-eabi/4.8.3/../../../../arm-none-eabi/lib/armv7-m\libm.a(lib_a-s_lib_ver.o)
 .text          0x00000000        0x0 c:/users/param/appdata/local/arduino15/packages/arduino/tools/arm-none-eabi-gcc/4.8.3-2014q1/bin/../lib/gcc/arm-none-eabi/4.8.3/../../../../arm-none-eabi/lib/armv7-m\libm.a(lib_a-s_matherr.o)
 .data          0x00000000        0x0 c:/users/param/appdata/local/arduino15/packages/arduino/tools/arm-none-eabi-gcc/4.8.3-2014q1/bin/../lib/gcc/arm-none-eabi/4.8.3/../../../../arm-none-eabi/lib/armv7-m\libm.a(lib_a-s_matherr.o)
 .bss           0x00000000        0x0 c:/users/param/appdata/local/arduino15/packages/arduino/tools/arm-none-eabi-gcc/4.8.3-2014q1/bin/../lib/gcc/arm-none-eabi/4.8.3/../../../../arm-none-eabi/lib/armv7-m\libm.a(lib_a-s_matherr.o)
 .data          0x00000000        0x0 c:/users/param/appdata/local/arduino15/packages/arduino/tools/arm-none-eabi-gcc/4.8.3-2014q1/bin/../lib/gcc/arm-none-eabi/4.8.3/armv7-m\libgcc.a(_arm_addsubdf3.o)
 .bss           0x00000000        0x0 c:/users/param/appdata/local/arduino15/packages/arduino/tools/arm-none-eabi-gcc/4.8.3-2014q1/bin/../lib/gcc/arm-none-eabi/4.8.3/armv7-m\libgcc.a(_arm_addsubdf3.o)
 .data          0x00000000        0x0 c:/users/param/appdata/local/arduino15/packages/arduino/tools/arm-none-eabi-gcc/4.8.3-2014q1/bin/../lib/gcc/arm-none-eabi/4.8.3/armv7-m\libgcc.a(_arm_muldivdf3.o)
 .bss           0x00000000        0x0 c:/users/param/appdata/local/arduino15/packages/arduino/tools/arm-none-eabi-gcc/4.8.3-2014q1/bin/../lib/gcc/arm-none-eabi/4.8.3/armv7-m\libgcc.a(_arm_muldivdf3.o)
 .data          0x00000000        0x0 c:/users/param/appdata/local/arduino15/packages/arduino/tools/arm-none-eabi-gcc/4.8.3-2014q1/bin/../lib/gcc/arm-none-eabi/4.8.3/armv7-m\libgcc.a(_arm_cmpdf2.o)
 .bss           0x00000000        0x0 c:/users/param/appdata/local/arduino15/packages/arduino/tools/arm-none-eabi-gcc/4.8.3-2014q1/bin/../lib/gcc/arm-none-eabi/4.8.3/armv7-m\libgcc.a(_arm_cmpdf2.o)
 .data          0x00000000        0x0 c:/users/param/appdata/local/arduino15/packages/arduino/tools/arm-none-eabi-gcc/4.8.3-2014q1/bin/../lib/gcc/arm-none-eabi/4.8.3/armv7-m\libgcc.a(_arm_fixdfsi.o)
 .bss           0x00000000        0x0 c:/users/param/appdata/local/arduino15/packages/arduino/tools/arm-none-eabi-gcc/4.8.3-2014q1/bin/../lib/gcc/arm-none-eabi/4.8.3/armv7-m\libgcc.a(_arm_fixdfsi.o)
 .data          0x00000000        0x0 c:/users/param/appdata/local/arduino15/packages/arduino/tools/arm-none-eabi-gcc/4.8.3-2014q1/bin/../lib/gcc/arm-none-eabi/4.8.3/armv7-m\libgcc.a(_arm_truncdfsf2.o)
 .bss           0x00000000        0x0 c:/users/param/appdata/local/arduino15/packages/arduino/tools/arm-none-eabi-gcc/4.8.3-2014q1/bin/../lib/gcc/arm-none-eabi/4.8.3/armv7-m\libgcc.a(_arm_truncdfsf2.o)
 .data          0x00000000        0x0 c:/users/param/appdata/local/arduino15/packages/arduino/tools/arm-none-eabi-gcc/4.8.3-2014q1/bin/../lib/gcc/arm-none-eabi/4.8.3/armv7-m\libgcc.a(_arm_addsubsf3.o)
 .bss           0x00000000        0x0 c:/users/param/appdata/local/arduino15/packages/arduino/tools/arm-none-eabi-gcc/4.8.3-2014q1/bin/../lib/gcc/arm-none-eabi/4.8.3/armv7-m\libgcc.a(_arm_addsubsf3.o)
 .data          0x00000000        0x0 c:/users/param/appdata/local/arduino15/packages/arduino/tools/arm-none-eabi-gcc/4.8.3-2014q1/bin/../lib/gcc/arm-none-eabi/4.8.3/armv7-m\libgcc.a(_arm_muldivsf3.o)
 .bss           0x00000000        0x0 c:/users/param/appdata/local/arduino15/packages/arduino/tools/arm-none-eabi-gcc/4.8.3-2014q1/bin/../lib/gcc/arm-none-eabi/4.8.3/armv7-m\libgcc.a(_arm_muldivsf3.o)
 .data          0x00000000        0x0 c:/users/param/appdata/local/arduino15/packages/arduino/tools/arm-none-eabi-gcc/4.8.3-2014q1/bin/../lib/gcc/arm-none-eabi/4.8.3/armv7-m\libgcc.a(_arm_cmpsf2.o)
 .bss           0x00000000        0x0 c:/users/param/appdata/local/arduino15/packages/arduino/tools/arm-none-eabi-gcc/4.8.3-2014q1/bin/../lib/gcc/arm-none-eabi/4.8.3/armv7-m\libgcc.a(_arm_cmpsf2.o)
 .text          0x00000000       0x4c c:/users/param/appdata/local/arduino15/packages/arduino/tools/arm-none-eabi-gcc/4.8.3-2014q1/bin/../lib/gcc/arm-none-eabi/4.8.3/armv7-m\libgcc.a(_arm_fixsfsi.o)
 .data          0x00000000        0x0 c:/users/param/appdata/local/arduino15/packages/arduino/tools/arm-none-eabi-gcc/4.8.3-2014q1/bin/../lib/gcc/arm-none-eabi/4.8.3/armv7-m\libgcc.a(_arm_fixsfsi.o)
 .bss           0x00000000        0x0 c:/users/param/appdata/local/arduino15/packages/arduino/tools/arm-none-eabi-gcc/4.8.3-2014q1/bin/../lib/gcc/arm-none-eabi/4.8.3/armv7-m\libgcc.a(_arm_fixsfsi.o)
 .data          0x00000000        0x0 c:/users/param/appdata/local/arduino15/packages/arduino/tools/arm-none-eabi-gcc/4.8.3-2014q1/bin/../lib/gcc/arm-none-eabi/4.8.3/armv7-m\libgcc.a(_aeabi_ldivmod.o)
 .bss           0x00000000        0x0 c:/users/param/appdata/local/arduino15/packages/arduino/tools/arm-none-eabi-gcc/4.8.3-2014q1/bin/../lib/gcc/arm-none-eabi/4.8.3/armv7-m\libgcc.a(_aeabi_ldivmod.o)
 .data          0x00000000        0x0 c:/users/param/appdata/local/arduino15/packages/arduino/tools/arm-none-eabi-gcc/4.8.3-2014q1/bin/../lib/gcc/arm-none-eabi/4.8.3/armv7-m\libgcc.a(_aeabi_uldivmod.o)
 .bss           0x00000000        0x0 c:/users/param/appdata/local/arduino15/packages/arduino/tools/arm-none-eabi-gcc/4.8.3-2014q1/bin/../lib/gcc/arm-none-eabi/4.8.3/armv7-m\libgcc.a(_aeabi_uldivmod.o)
 .data          0x00000000        0x0 c:/users/param/appdata/local/arduino15/packages/arduino/tools/arm-none-eabi-gcc/4.8.3-2014q1/bin/../lib/gcc/arm-none-eabi/4.8.3/armv7-m\libgcc.a(_fixdfdi.o)
 .bss           0x00000000        0x0 c:/users/param/appdata/local/arduino15/packages/arduino/tools/arm-none-eabi-gcc/4.8.3-2014q1/bin/../lib/gcc/arm-none-eabi/4.8.3/armv7-m\libgcc.a(_fixdfdi.o)
 .data          0x00000000        0x0 c:/users/param/appdata/local/arduino15/packages/arduino/tools/arm-none-eabi-gcc/4.8.3-2014q1/bin/../lib/gcc/arm-none-eabi/4.8.3/armv7-m\libgcc.a(_fixunsdfdi.o)
 .bss           0x00000000        0x0 c:/users/param/appdata/local/arduino15/packages/arduino/tools/arm-none-eabi-gcc/4.8.3-2014q1/bin/../lib/gcc/arm-none-eabi/4.8.3/armv7-m\libgcc.a(_fixunsdfdi.o)
 .data          0x00000000        0x0 c:/users/param/appdata/local/arduino15/packages/arduino/tools/arm-none-eabi-gcc/4.8.3-2014q1/bin/../lib/gcc/arm-none-eabi/4.8.3/armv7-m\libgcc.a(bpabi.o)
 .bss           0x00000000        0x0 c:/users/param/appdata/local/arduino15/packages/arduino/tools/arm-none-eabi-gcc/4.8.3-2014q1/bin/../lib/gcc/arm-none-eabi/4.8.3/armv7-m\libgcc.a(bpabi.o)
 .data          0x00000000        0x0 c:/users/param/appdata/local/arduino15/packages/arduino/tools/arm-none-eabi-gcc/4.8.3-2014q1/bin/../lib/gcc/arm-none-eabi/4.8.3/armv7-m\libgcc.a(_dvmd_tls.o)
 .bss           0x00000000        0x0 c:/users/param/appdata/local/arduino15/packages/arduino/tools/arm-none-eabi-gcc/4.8.3-2014q1/bin/../lib/gcc/arm-none-eabi/4.8.3/armv7-m\libgcc.a(_dvmd_tls.o)
 .data          0x00000000        0x0 c:/users/param/appdata/local/arduino15/packages/arduino/tools/arm-none-eabi-gcc/4.8.3-2014q1/bin/../lib/gcc/arm-none-eabi/4.8.3/armv7-m\libgcc.a(_arm_fixunsdfsi.o)
 .bss           0x00000000        0x0 c:/users/param/appdata/local/arduino15/packages/arduino/tools/arm-none-eabi-gcc/4.8.3-2014q1/bin/../lib/gcc/arm-none-eabi/4.8.3/armv7-m\libgcc.a(_arm_fixunsdfsi.o)
 .data          0x00000000        0x0 c:/users/param/appdata/local/arduino15/packages/arduino/tools/arm-none-eabi-gcc/4.8.3-2014q1/bin/../lib/gcc/arm-none-eabi/4.8.3/armv7-m\libgcc.a(_divdi3.o)
 .bss           0x00000000        0x0 c:/users/param/appdata/local/arduino15/packages/arduino/tools/arm-none-eabi-gcc/4.8.3-2014q1/bin/../lib/gcc/arm-none-eabi/4.8.3/armv7-m\libgcc.a(_divdi3.o)
 .ARM.extab     0x00000000        0x0 c:/users/param/appdata/local/arduino15/packages/arduino/tools/arm-none-eabi-gcc/4.8.3-2014q1/bin/../lib/gcc/arm-none-eabi/4.8.3/armv7-m\libgcc.a(_divdi3.o)
 .data          0x00000000        0x0 c:/users/param/appdata/local/arduino15/packages/arduino/tools/arm-none-eabi-gcc/4.8.3-2014q1/bin/../lib/gcc/arm-none-eabi/4.8.3/armv7-m\libgcc.a(_udivdi3.o)
 .bss           0x00000000        0x0 c:/users/param/appdata/local/arduino15/packages/arduino/tools/arm-none-eabi-gcc/4.8.3-2014q1/bin/../lib/gcc/arm-none-eabi/4.8.3/armv7-m\libgcc.a(_udivdi3.o)
 .ARM.extab     0x00000000        0x0 c:/users/param/appdata/local/arduino15/packages/arduino/tools/arm-none-eabi-gcc/4.8.3-2014q1/bin/../lib/gcc/arm-none-eabi/4.8.3/armv7-m\libgcc.a(_udivdi3.o)
 .text          0x00000000        0x0 c:/users/param/appdata/local/arduino15/packages/arduino/tools/arm-none-eabi-gcc/4.8.3-2014q1/bin/../lib/gcc/arm-none-eabi/4.8.3/../../../../arm-none-eabi/lib/armv7-m\libc.a(lib_a-errno.o)
 .data          0x00000000        0x0 c:/users/param/appdata/local/arduino15/packages/arduino/tools/arm-none-eabi-gcc/4.8.3-2014q1/bin/../lib/gcc/arm-none-eabi/4.8.3/../../../../arm-none-eabi/lib/armv7-m\libc.a(lib_a-errno.o)
 .bss           0x00000000        0x0 c:/users/param/appdata/local/arduino15/packages/arduino/tools/arm-none-eabi-gcc/4.8.3-2014q1/bin/../lib/gcc/arm-none-eabi/4.8.3/../../../../arm-none-eabi/lib/armv7-m\libc.a(lib_a-errno.o)
 .text          0x00000000        0x0 c:/users/param/appdata/local/arduino15/packages/arduino/tools/arm-none-eabi-gcc/4.8.3-2014q1/bin/../lib/gcc/arm-none-eabi/4.8.3/../../../../arm-none-eabi/lib/armv7-m\libc.a(lib_a-exit.o)
 .data          0x00000000        0x0 c:/users/param/appdata/local/arduino15/packages/arduino/tools/arm-none-eabi-gcc/4.8.3-2014q1/bin/../lib/gcc/arm-none-eabi/4.8.3/../../../../arm-none-eabi/lib/armv7-m\libc.a(lib_a-exit.o)
 .bss           0x00000000        0x0 c:/users/param/appdata/local/arduino15/packages/arduino/tools/arm-none-eabi-gcc/4.8.3-2014q1/bin/../lib/gcc/arm-none-eabi/4.8.3/../../../../arm-none-eabi/lib/armv7-m\libc.a(lib_a-exit.o)
 .text.exit     0x00000000       0x20 c:/users/param/appdata/local/arduino15/packages/arduino/tools/arm-none-eabi-gcc/4.8.3-2014q1/bin/../lib/gcc/arm-none-eabi/4.8.3/../../../../arm-none-eabi/lib/armv7-m\libc.a(lib_a-exit.o)
 .text          0x00000000        0x0 c:/users/param/appdata/local/arduino15/packages/arduino/tools/arm-none-eabi-gcc/4.8.3-2014q1/bin/../lib/gcc/arm-none-eabi/4.8.3/../../../../arm-none-eabi/lib/armv7-m\libc.a(lib_a-impure.o)
 .data          0x00000000        0x0 c:/users/param/appdata/local/arduino15/packages/arduino/tools/arm-none-eabi-gcc/4.8.3-2014q1/bin/../lib/gcc/arm-none-eabi/4.8.3/../../../../arm-none-eabi/lib/armv7-m\libc.a(lib_a-impure.o)
 .bss           0x00000000        0x0 c:/users/param/appdata/local/arduino15/packages/arduino/tools/arm-none-eabi-gcc/4.8.3-2014q1/bin/../lib/gcc/arm-none-eabi/4.8.3/../../../../arm-none-eabi/lib/armv7-m\libc.a(lib_a-impure.o)
 .text          0x00000000        0x0 c:/users/param/appdata/local/arduino15/packages/arduino/tools/arm-none-eabi-gcc/4.8.3-2014q1/bin/../lib/gcc/arm-none-eabi/4.8.3/../../../../arm-none-eabi/lib/armv7-m\libc.a(lib_a-init.o)
 .data          0x00000000        0x0 c:/users/param/appdata/local/arduino15/packages/arduino/tools/arm-none-eabi-gcc/4.8.3-2014q1/bin/../lib/gcc/arm-none-eabi/4.8.3/../../../../arm-none-eabi/lib/armv7-m\libc.a(lib_a-init.o)
 .bss           0x00000000        0x0 c:/users/param/appdata/local/arduino15/packages/arduino/tools/arm-none-eabi-gcc/4.8.3-2014q1/bin/../lib/gcc/arm-none-eabi/4.8.3/../../../../arm-none-eabi/lib/armv7-m\libc.a(lib_a-init.o)
 .text          0x00000000       0xec c:/users/param/appdata/local/arduino15/packages/arduino/tools/arm-none-eabi-gcc/4.8.3-2014q1/bin/../lib/gcc/arm-none-eabi/4.8.3/../../../../arm-none-eabi/lib/armv7-m\libc.a(lib_a-memcpy.o)
 .data          0x00000000        0x0 c:/users/param/appdata/local/arduino15/packages/arduino/tools/arm-none-eabi-gcc/4.8.3-2014q1/bin/../lib/gcc/arm-none-eabi/4.8.3/../../../../arm-none-eabi/lib/armv7-m\libc.a(lib_a-memcpy.o)
 .bss           0x00000000        0x0 c:/users/param/appdata/local/arduino15/packages/arduino/tools/arm-none-eabi-gcc/4.8.3-2014q1/bin/../lib/gcc/arm-none-eabi/4.8.3/../../../../arm-none-eabi/lib/armv7-m\libc.a(lib_a-memcpy.o)
 .text          0x00000000        0x0 c:/users/param/appdata/local/arduino15/packages/arduino/tools/arm-none-eabi-gcc/4.8.3-2014q1/bin/../lib/gcc/arm-none-eabi/4.8.3/../../../../arm-none-eabi/lib/armv7-m\libc.a(lib_a-memset.o)
 .data          0x00000000        0x0 c:/users/param/appdata/local/arduino15/packages/arduino/tools/arm-none-eabi-gcc/4.8.3-2014q1/bin/../lib/gcc/arm-none-eabi/4.8.3/../../../../arm-none-eabi/lib/armv7-m\libc.a(lib_a-memset.o)
 .bss           0x00000000        0x0 c:/users/param/appdata/local/arduino15/packages/arduino/tools/arm-none-eabi-gcc/4.8.3-2014q1/bin/../lib/gcc/arm-none-eabi/4.8.3/../../../../arm-none-eabi/lib/armv7-m\libc.a(lib_a-memset.o)
 .text.memset   0x00000000       0x94 c:/users/param/appdata/local/arduino15/packages/arduino/tools/arm-none-eabi-gcc/4.8.3-2014q1/bin/../lib/gcc/arm-none-eabi/4.8.3/../../../../arm-none-eabi/lib/armv7-m\libc.a(lib_a-memset.o)
 .text          0x00000000        0x0 c:/users/param/appdata/local/arduino15/packages/arduino/tools/arm-none-eabi-gcc/4.8.3-2014q1/bin/../lib/gcc/arm-none-eabi/4.8.3/../../../../arm-none-eabi/lib/armv7-m\libc.a(lib_a-strcpy.o)
 .data          0x00000000        0x0 c:/users/param/appdata/local/arduino15/packages/arduino/tools/arm-none-eabi-gcc/4.8.3-2014q1/bin/../lib/gcc/arm-none-eabi/4.8.3/../../../../arm-none-eabi/lib/armv7-m\libc.a(lib_a-strcpy.o)
 .bss           0x00000000        0x0 c:/users/param/appdata/local/arduino15/packages/arduino/tools/arm-none-eabi-gcc/4.8.3-2014q1/bin/../lib/gcc/arm-none-eabi/4.8.3/../../../../arm-none-eabi/lib/armv7-m\libc.a(lib_a-strcpy.o)
 .text.strcpy   0x00000000       0xbc c:/users/param/appdata/local/arduino15/packages/arduino/tools/arm-none-eabi-gcc/4.8.3-2014q1/bin/../lib/gcc/arm-none-eabi/4.8.3/../../../../arm-none-eabi/lib/armv7-m\libc.a(lib_a-strcpy.o)
 .text          0x00000000        0x0 c:/users/param/appdata/local/arduino15/packages/arduino/tools/arm-none-eabi-gcc/4.8.3-2014q1/bin/../lib/gcc/arm-none-eabi/4.8.3/../../../../arm-none-eabi/lib/armv7-m\libc.a(lib_a-strlen.o)
 .data          0x00000000        0x0 c:/users/param/appdata/local/arduino15/packages/arduino/tools/arm-none-eabi-gcc/4.8.3-2014q1/bin/../lib/gcc/arm-none-eabi/4.8.3/../../../../arm-none-eabi/lib/armv7-m\libc.a(lib_a-strlen.o)
 .bss           0x00000000        0x0 c:/users/param/appdata/local/arduino15/packages/arduino/tools/arm-none-eabi-gcc/4.8.3-2014q1/bin/../lib/gcc/arm-none-eabi/4.8.3/../../../../arm-none-eabi/lib/armv7-m\libc.a(lib_a-strlen.o)
 .text          0x00000000        0x0 c:/users/param/appdata/local/arduino15/packages/arduino/tools/arm-none-eabi-gcc/4.8.3-2014q1/bin/../lib/gcc/arm-none-eabi/4.8.3/../../../../arm-none-eabi/lib/armv7-m\libc.a(lib_a-__call_atexit.o)
 .data          0x00000000        0x0 c:/users/param/appdata/local/arduino15/packages/arduino/tools/arm-none-eabi-gcc/4.8.3-2014q1/bin/../lib/gcc/arm-none-eabi/4.8.3/../../../../arm-none-eabi/lib/armv7-m\libc.a(lib_a-__call_atexit.o)
 .bss           0x00000000        0x0 c:/users/param/appdata/local/arduino15/packages/arduino/tools/arm-none-eabi-gcc/4.8.3-2014q1/bin/../lib/gcc/arm-none-eabi/4.8.3/../../../../arm-none-eabi/lib/armv7-m\libc.a(lib_a-__call_atexit.o)
 .text.__call_exitprocs
                0x00000000       0xf0 c:/users/param/appdata/local/arduino15/packages/arduino/tools/arm-none-eabi-gcc/4.8.3-2014q1/bin/../lib/gcc/arm-none-eabi/4.8.3/../../../../arm-none-eabi/lib/armv7-m\libc.a(lib_a-__call_atexit.o)
 .text          0x00000000        0x0 c:/users/param/appdata/local/arduino15/packages/arduino/tools/arm-none-eabi-gcc/4.8.3-2014q1/bin/../lib/gcc/arm-none-eabi/4.8.3/../../../../arm-none-eabi/lib/armv7-m\libc.a(lib_a-atexit.o)
 .data          0x00000000        0x0 c:/users/param/appdata/local/arduino15/packages/arduino/tools/arm-none-eabi-gcc/4.8.3-2014q1/bin/../lib/gcc/arm-none-eabi/4.8.3/../../../../arm-none-eabi/lib/armv7-m\libc.a(lib_a-atexit.o)
 .bss           0x00000000        0x0 c:/users/param/appdata/local/arduino15/packages/arduino/tools/arm-none-eabi-gcc/4.8.3-2014q1/bin/../lib/gcc/arm-none-eabi/4.8.3/../../../../arm-none-eabi/lib/armv7-m\libc.a(lib_a-atexit.o)
 .text          0x00000000        0x0 c:/users/param/appdata/local/arduino15/packages/arduino/tools/arm-none-eabi-gcc/4.8.3-2014q1/bin/../lib/gcc/arm-none-eabi/4.8.3/../../../../arm-none-eabi/lib/armv7-m\libc.a(lib_a-fini.o)
 .data          0x00000000        0x0 c:/users/param/appdata/local/arduino15/packages/arduino/tools/arm-none-eabi-gcc/4.8.3-2014q1/bin/../lib/gcc/arm-none-eabi/4.8.3/../../../../arm-none-eabi/lib/armv7-m\libc.a(lib_a-fini.o)
 .bss           0x00000000        0x0 c:/users/param/appdata/local/arduino15/packages/arduino/tools/arm-none-eabi-gcc/4.8.3-2014q1/bin/../lib/gcc/arm-none-eabi/4.8.3/../../../../arm-none-eabi/lib/armv7-m\libc.a(lib_a-fini.o)
 .text          0x00000000        0x0 c:/users/param/appdata/local/arduino15/packages/arduino/tools/arm-none-eabi-gcc/4.8.3-2014q1/bin/../lib/gcc/arm-none-eabi/4.8.3/../../../../arm-none-eabi/lib/armv7-m\libc.a(lib_a-__atexit.o)
 .data          0x00000000        0x0 c:/users/param/appdata/local/arduino15/packages/arduino/tools/arm-none-eabi-gcc/4.8.3-2014q1/bin/../lib/gcc/arm-none-eabi/4.8.3/../../../../arm-none-eabi/lib/armv7-m\libc.a(lib_a-__atexit.o)
 .bss           0x00000000        0x0 c:/users/param/appdata/local/arduino15/packages/arduino/tools/arm-none-eabi-gcc/4.8.3-2014q1/bin/../lib/gcc/arm-none-eabi/4.8.3/../../../../arm-none-eabi/lib/armv7-m\libc.a(lib_a-__atexit.o)
 .text          0x00000000        0x0 c:/users/param/appdata/local/arduino15/packages/arduino/tools/arm-none-eabi-gcc/4.8.3-2014q1/bin/../lib/gcc/arm-none-eabi/4.8.3/armv7-m/crtend.o
 .data          0x00000000        0x0 c:/users/param/appdata/local/arduino15/packages/arduino/tools/arm-none-eabi-gcc/4.8.3-2014q1/bin/../lib/gcc/arm-none-eabi/4.8.3/armv7-m/crtend.o
 .bss           0x00000000        0x0 c:/users/param/appdata/local/arduino15/packages/arduino/tools/arm-none-eabi-gcc/4.8.3-2014q1/bin/../lib/gcc/arm-none-eabi/4.8.3/armv7-m/crtend.o
 .eh_frame      0x00000000        0x4 c:/users/param/appdata/local/arduino15/packages/arduino/tools/arm-none-eabi-gcc/4.8.3-2014q1/bin/../lib/gcc/arm-none-eabi/4.8.3/armv7-m/crtend.o
 .jcr           0x00000000        0x4 c:/users/param/appdata/local/arduino15/packages/arduino/tools/arm-none-eabi-gcc/4.8.3-2014q1/bin/../lib/gcc/arm-none-eabi/4.8.3/armv7-m/crtend.o
 .text          0x00000000        0x0 c:/users/param/appdata/local/arduino15/packages/arduino/tools/arm-none-eabi-gcc/4.8.3-2014q1/bin/../lib/gcc/arm-none-eabi/4.8.3/armv7-m/crtn.o
 .data          0x00000000        0x0 c:/users/param/appdata/local/arduino15/packages/arduino/tools/arm-none-eabi-gcc/4.8.3-2014q1/bin/../lib/gcc/arm-none-eabi/4.8.3/armv7-m/crtn.o
 .bss           0x00000000        0x0 c:/users/param/appdata/local/arduino15/packages/arduino/tools/arm-none-eabi-gcc/4.8.3-2014q1/bin/../lib/gcc/arm-none-eabi/4.8.3/armv7-m/crtn.o

Memory Configuration

Name             Origin             Length             Attributes
ram              0x20000000         0x00005000         xrw
rom              0x08000000         0x00010000         xr
*default*        0x00000000         0xffffffff

Linker script and memory map

LOAD c:/users/param/appdata/local/arduino15/packages/arduino/tools/arm-none-eabi-gcc/4.8.3-2014q1/bin/../lib/gcc/arm-none-eabi/4.8.3/armv7-m/crti.o
LOAD c:/users/param/appdata/local/arduino15/packages/arduino/tools/arm-none-eabi-gcc/4.8.3-2014q1/bin/../lib/gcc/arm-none-eabi/4.8.3/armv7-m/crtbegin.o
LOAD c:/users/param/appdata/local/arduino15/packages/arduino/tools/arm-none-eabi-gcc/4.8.3-2014q1/bin/../lib/gcc/arm-none-eabi/4.8.3/../../../../arm-none-eabi/lib/armv7-m/crt0.o
LOAD c:/users/param/appdata/local/arduino15/packages/arduino/tools/arm-none-eabi-gcc/4.8.3-2014q1/bin/../lib/gcc/arm-none-eabi/4.8.3/armv7-m\libgcc.a
START GROUP
LOAD e:\drone_parachute\build\sketch\main.ino.cpp.o
LOAD e:\drone_parachute\build\libraries\Bolder_Flight_Systems_MPU9250\MPU9250.cpp.o
LOAD e:\drone_parachute\build\libraries\Wire\SoftWire.cpp.o
LOAD e:\drone_parachute\build\libraries\Wire\Wire.cpp.o
LOAD e:\drone_parachute\build\libraries\Wire\utility\WireBase.cpp.o
LOAD e:\drone_parachute\build\libraries\SPI\SPI.cpp.o
LOAD e:\drone_parachute\build\libraries\Servo\Servo.cpp.o
LOAD e:\drone_parachute\build\core\board.cpp.o
LOAD e:\drone_parachute\build\core\wirish\boards.cpp.o
LOAD e:\drone_parachute\build\core\wirish\boards_setup.cpp.o
LOAD e:\drone_parachute\build\core\wirish\start.S.o
LOAD e:\drone_parachute\build\core\wirish\start_c.c.o
LOAD e:\drone_parachute\build\core\wirish\syscalls.c.o
LOAD e:\drone_parachute\build\core\core.a
END GROUP
LOAD c:/users/param/appdata/local/arduino15/packages/arduino/tools/arm-none-eabi-gcc/4.8.3-2014q1/bin/../lib/gcc/arm-none-eabi/4.8.3/../../../../arm-none-eabi/lib/armv7-m\libstdc++.a
LOAD c:/users/param/appdata/local/arduino15/packages/arduino/tools/arm-none-eabi-gcc/4.8.3-2014q1/bin/../lib/gcc/arm-none-eabi/4.8.3/../../../../arm-none-eabi/lib/armv7-m\libm.a
START GROUP
LOAD c:/users/param/appdata/local/arduino15/packages/arduino/tools/arm-none-eabi-gcc/4.8.3-2014q1/bin/../lib/gcc/arm-none-eabi/4.8.3/armv7-m\libgcc.a
LOAD c:/users/param/appdata/local/arduino15/packages/arduino/tools/arm-none-eabi-gcc/4.8.3-2014q1/bin/../lib/gcc/arm-none-eabi/4.8.3/../../../../arm-none-eabi/lib/armv7-m\libc.a
END GROUP
LOAD c:/users/param/appdata/local/arduino15/packages/arduino/tools/arm-none-eabi-gcc/4.8.3-2014q1/bin/../lib/gcc/arm-none-eabi/4.8.3/armv7-m/crtend.o
LOAD c:/users/param/appdata/local/arduino15/packages/arduino/tools/arm-none-eabi-gcc/4.8.3-2014q1/bin/../lib/gcc/arm-none-eabi/4.8.3/armv7-m/crtn.o
START GROUP
LOAD c:/users/param/appdata/local/arduino15/packages/arduino/tools/arm-none-eabi-gcc/4.8.3-2014q1/bin/../lib/gcc/arm-none-eabi/4.8.3/armv7-m\libgcc.a
LOAD c:/users/param/appdata/local/arduino15/packages/arduino/tools/arm-none-eabi-gcc/4.8.3-2014q1/bin/../lib/gcc/arm-none-eabi/4.8.3/../../../../arm-none-eabi/lib/armv7-m\libc.a
LOAD c:/users/param/appdata/local/arduino15/packages/arduino/tools/arm-none-eabi-gcc/4.8.3-2014q1/bin/../lib/gcc/arm-none-eabi/4.8.3/../../../../arm-none-eabi/lib/armv7-m\libm.a
END GROUP
START GROUP
LOAD c:/users/param/appdata/local/arduino15/packages/arduino/tools/arm-none-eabi-gcc/4.8.3-2014q1/bin/../lib/gcc/arm-none-eabi/4.8.3/../../../../arm-none-eabi/lib/armv7-m\libnosys.a
END GROUP
                0x20005000                PROVIDE (__msp_init, (ORIGIN (ram) + 0x5000))
                0x08001dbc                PROVIDE (__exc_reset, __start__)

.text           0x08000000     0x64d8
                0x08000000                __text_start__ = .
 *(.stm32.interrupt_vector)
 .stm32.interrupt_vector
                0x08000000       0xec e:\drone_parachute\build\core\core.a(vector_table.S.o)
                0x08000000                __stm32_vector_table
 *(.text .text.* .gnu.linkonce.t.*)
 .text          0x080000ec       0x54 c:/users/param/appdata/local/arduino15/packages/arduino/tools/arm-none-eabi-gcc/4.8.3-2014q1/bin/../lib/gcc/arm-none-eabi/4.8.3/armv7-m/crtbegin.o
 .text._Z4loopv
                0x08000140        0x2 e:\drone_parachute\build\sketch\main.ino.cpp.o
                0x08000140                loop()
 *fill*         0x08000142        0x2 
 .text._Z23check_main_battery_voltv
                0x08000144       0x2c e:\drone_parachute\build\sketch\main.ino.cpp.o
                0x08000144                check_main_battery_volt()
 .text._Z16executioner_initv
                0x08000170       0x50 e:\drone_parachute\build\sketch\main.ino.cpp.o
                0x08000170                executioner_init()
 .text._Z11refresh_imuv
                0x080001c0        0xc e:\drone_parachute\build\sketch\main.ino.cpp.o
                0x080001c0                refresh_imu()
 .text._Z12handler_tim2v
                0x080001cc        0x4 e:\drone_parachute\build\sketch\main.ino.cpp.o
                0x080001cc                handler_tim2()
 .text._Z11check_statev
                0x080001d0      0x21c e:\drone_parachute\build\sketch\main.ino.cpp.o
                0x080001d0                check_state()
 .text._Z14parachute_initv
                0x080003ec       0x2c e:\drone_parachute\build\sketch\main.ino.cpp.o
                0x080003ec                parachute_init()
 .text._Z12deploy_chutev
                0x08000418       0x4c e:\drone_parachute\build\sketch\main.ino.cpp.o
                0x08000418                deploy_chute()
 .text._Z11kill_rotorsv
                0x08000464        0x8 e:\drone_parachute\build\sketch\main.ino.cpp.o
                0x08000464                kill_rotors()
 .text._Z18raise_error_signalv
                0x0800046c       0x34 e:\drone_parachute\build\sketch\main.ino.cpp.o
                0x0800046c                raise_error_signal()
 .text._Z14batteries_initv
                0x080004a0       0x78 e:\drone_parachute\build\sketch\main.ino.cpp.o
                0x080004a0                batteries_init()
 .text._Z12check_systemv
                0x08000518       0x2c e:\drone_parachute\build\sketch\main.ino.cpp.o
                0x08000518                check_system()
 .text._Z8imu_initv
                0x08000544       0x40 e:\drone_parachute\build\sketch\main.ino.cpp.o
                0x08000544                imu_init()
 .text._Z5setupv
                0x08000584       0x28 e:\drone_parachute\build\sketch\main.ino.cpp.o
                0x08000584                setup()
 .text.startup._GLOBAL__sub_I__Z5setupv
                0x080005ac       0x24 e:\drone_parachute\build\sketch\main.ino.cpp.o
 .text._ZN7MPU9250C2ER7TwoWireh
                0x080005d0      0x294 e:\drone_parachute\build\libraries\Bolder_Flight_Systems_MPU9250\MPU9250.cpp.o
                0x080005d0                MPU9250::MPU9250(TwoWire&, unsigned char)
                0x080005d0                MPU9250::MPU9250(TwoWire&, unsigned char)
 .text._ZN7MPU925013getAccelX_mssEv
                0x08000864        0x4 e:\drone_parachute\build\libraries\Bolder_Flight_Systems_MPU9250\MPU9250.cpp.o
                0x08000864                MPU9250::getAccelX_mss()
 .text._ZN7MPU925013getAccelY_mssEv
                0x08000868        0x4 e:\drone_parachute\build\libraries\Bolder_Flight_Systems_MPU9250\MPU9250.cpp.o
                0x08000868                MPU9250::getAccelY_mss()
 .text._ZN7MPU925013getAccelZ_mssEv
                0x0800086c        0x4 e:\drone_parachute\build\libraries\Bolder_Flight_Systems_MPU9250\MPU9250.cpp.o
                0x0800086c                MPU9250::getAccelZ_mss()
 .text._ZN7MPU925013getGyroX_radsEv
                0x08000870        0x4 e:\drone_parachute\build\libraries\Bolder_Flight_Systems_MPU9250\MPU9250.cpp.o
                0x08000870                MPU9250::getGyroX_rads()
 .text._ZN7MPU925013getGyroY_radsEv
                0x08000874        0x4 e:\drone_parachute\build\libraries\Bolder_Flight_Systems_MPU9250\MPU9250.cpp.o
                0x08000874                MPU9250::getGyroY_rads()
 .text._ZN7MPU925013getGyroZ_radsEv
                0x08000878        0x4 e:\drone_parachute\build\libraries\Bolder_Flight_Systems_MPU9250\MPU9250.cpp.o
                0x08000878                MPU9250::getGyroZ_rads()
 .text._ZN7MPU925010getMagX_uTEv
                0x0800087c        0x4 e:\drone_parachute\build\libraries\Bolder_Flight_Systems_MPU9250\MPU9250.cpp.o
                0x0800087c                MPU9250::getMagX_uT()
 .text._ZN7MPU925010getMagY_uTEv
                0x08000880        0x4 e:\drone_parachute\build\libraries\Bolder_Flight_Systems_MPU9250\MPU9250.cpp.o
                0x08000880                MPU9250::getMagY_uT()
 .text._ZN7MPU925010getMagZ_uTEv
                0x08000884        0x4 e:\drone_parachute\build\libraries\Bolder_Flight_Systems_MPU9250\MPU9250.cpp.o
                0x08000884                MPU9250::getMagZ_uT()
 .text._ZN7MPU925016getTemperature_CEv
                0x08000888        0x4 e:\drone_parachute\build\libraries\Bolder_Flight_Systems_MPU9250\MPU9250.cpp.o
                0x08000888                MPU9250::getTemperature_C()
 .text._ZN7MPU925013readRegistersEhhPh
                0x0800088c      0x130 e:\drone_parachute\build\libraries\Bolder_Flight_Systems_MPU9250\MPU9250.cpp.o
                0x0800088c                MPU9250::readRegisters(unsigned char, unsigned char, unsigned char*)
 .text._ZN7MPU925010readSensorEv
                0x080009bc      0x29e e:\drone_parachute\build\libraries\Bolder_Flight_Systems_MPU9250\MPU9250.cpp.o
                0x080009bc                MPU9250::readSensor()
 .text._ZN7MPU925013writeRegisterEhh
                0x08000c5a       0xc6 e:\drone_parachute\build\libraries\Bolder_Flight_Systems_MPU9250\MPU9250.cpp.o
                0x08000c5a                MPU9250::writeRegister(unsigned char, unsigned char)
 .text._ZN7MPU925013setAccelRangeENS_10AccelRangeE
                0x08000d20       0x9c e:\drone_parachute\build\libraries\Bolder_Flight_Systems_MPU9250\MPU9250.cpp.o
                0x08000d20                MPU9250::setAccelRange(MPU9250::AccelRange)
 .text._ZN7MPU925012setGyroRangeENS_9GyroRangeE
                0x08000dbc       0x9c e:\drone_parachute\build\libraries\Bolder_Flight_Systems_MPU9250\MPU9250.cpp.o
                0x08000dbc                MPU9250::setGyroRange(MPU9250::GyroRange)
 .text._ZN7MPU925016setDlpfBandwidthENS_13DlpfBandwidthE
                0x08000e58       0xda e:\drone_parachute\build\libraries\Bolder_Flight_Systems_MPU9250\MPU9250.cpp.o
                0x08000e58                MPU9250::setDlpfBandwidth(MPU9250::DlpfBandwidth)
 .text._ZN7MPU925019readAK8963RegistersEhhPh
                0x08000f32       0x6e e:\drone_parachute\build\libraries\Bolder_Flight_Systems_MPU9250\MPU9250.cpp.o
                0x08000f32                MPU9250::readAK8963Registers(unsigned char, unsigned char, unsigned char*)
 .text._ZN7MPU925019writeAK8963RegisterEhh
                0x08000fa0       0x8e e:\drone_parachute\build\libraries\Bolder_Flight_Systems_MPU9250\MPU9250.cpp.o
                0x08000fa0                MPU9250::writeAK8963Register(unsigned char, unsigned char)
 .text._ZN7MPU92506setSrdEh
                0x0800102e       0xa6 e:\drone_parachute\build\libraries\Bolder_Flight_Systems_MPU9250\MPU9250.cpp.o
                0x0800102e                MPU9250::setSrd(unsigned char)
 .text._ZN7MPU925013calibrateGyroEv
                0x080010d4      0x148 e:\drone_parachute\build\libraries\Bolder_Flight_Systems_MPU9250\MPU9250.cpp.o
                0x080010d4                MPU9250::calibrateGyro()
 .text._ZN7MPU92506whoAmIEv
                0x0800121c       0x20 e:\drone_parachute\build\libraries\Bolder_Flight_Systems_MPU9250\MPU9250.cpp.o
                0x0800121c                MPU9250::whoAmI()
 .text._ZN7MPU925012whoAmIAK8963Ev
                0x0800123c       0x20 e:\drone_parachute\build\libraries\Bolder_Flight_Systems_MPU9250\MPU9250.cpp.o
                0x0800123c                MPU9250::whoAmIAK8963()
 .text._ZN7MPU92505beginEv
                0x0800125c      0x358 e:\drone_parachute\build\libraries\Bolder_Flight_Systems_MPU9250\MPU9250.cpp.o
                0x0800125c                MPU9250::begin()
 .text._ZN7TwoWire7processEv
                0x080015b4        0xc e:\drone_parachute\build\libraries\Wire\Wire.cpp.o
                0x080015b4                TwoWire::process()
 .text._ZN7TwoWire5beginEh
                0x080015c0        0xe e:\drone_parachute\build\libraries\Wire\Wire.cpp.o
                0x080015c0                TwoWire::begin(unsigned char)
 .text.i2c_disable
                0x080015ce       0x1a e:\drone_parachute\build\libraries\Wire\Wire.cpp.o
 .text._ZN7TwoWire3endEv
                0x080015e8       0x10 e:\drone_parachute\build\libraries\Wire\Wire.cpp.o
                0x080015e8                TwoWire::end()
 .text._ZN7TwoWire7processEh
                0x080015f8       0x4a e:\drone_parachute\build\libraries\Wire\Wire.cpp.o
                0x080015f8                TwoWire::process(unsigned char)
 *fill*         0x08001642        0x2 
 .text._ZN7TwoWireD2Ev
                0x08001644       0x24 e:\drone_parachute\build\libraries\Wire\Wire.cpp.o
                0x08001644                TwoWire::~TwoWire()
                0x08001644                TwoWire::~TwoWire()
 .text._ZN7TwoWire8setClockEm
                0x08001668       0x26 e:\drone_parachute\build\libraries\Wire\Wire.cpp.o
                0x08001668                TwoWire::setClock(unsigned long)
 *fill*         0x0800168e        0x2 
 .text.startup._GLOBAL__sub_I__ZN7TwoWire7processEh
                0x08001690       0x28 e:\drone_parachute\build\libraries\Wire\Wire.cpp.o
 .text.exit._GLOBAL__sub_D__ZN7TwoWire7processEh
                0x080016b8        0xc e:\drone_parachute\build\libraries\Wire\Wire.cpp.o
 .text._ZN8WireBase5beginEh
                0x080016c4       0x14 e:\drone_parachute\build\libraries\Wire\utility\WireBase.cpp.o
                0x080016c4                WireBase::begin(unsigned char)
 .text._ZN8WireBase17beginTransmissionEh
                0x080016d8       0x14 e:\drone_parachute\build\libraries\Wire\utility\WireBase.cpp.o
                0x080016d8                WireBase::beginTransmission(unsigned char)
 .text._ZN8WireBase15endTransmissionEb
                0x080016ec       0x1e e:\drone_parachute\build\libraries\Wire\utility\WireBase.cpp.o
                0x080016ec                WireBase::endTransmission(bool)
 .text._ZN8WireBase15endTransmissionEv
                0x0800170a        0x6 e:\drone_parachute\build\libraries\Wire\utility\WireBase.cpp.o
                0x0800170a                WireBase::endTransmission()
 .text._ZN8WireBase11requestFromEhib
                0x08001710       0x38 e:\drone_parachute\build\libraries\Wire\utility\WireBase.cpp.o
                0x08001710                WireBase::requestFrom(unsigned char, int, bool)
 .text._ZN8WireBase5writeEh
                0x08001748       0x28 e:\drone_parachute\build\libraries\Wire\utility\WireBase.cpp.o
                0x08001748                WireBase::write(unsigned char)
 .text._ZN8WireBase4readEv
                0x08001770       0x3e e:\drone_parachute\build\libraries\Wire\utility\WireBase.cpp.o
                0x08001770                WireBase::read()
 .text._ZL12waitSpiTxEndP7spi_dev
                0x080017ae       0x10 e:\drone_parachute\build\libraries\SPI\SPI.cpp.o
 .text._ZL11disable_pwmPK14stm32_pin_info
                0x080017be       0x10 e:\drone_parachute\build\libraries\SPI\SPI.cpp.o
 *fill*         0x080017ce        0x2 
 .text._ZL15dev_to_spi_pinsP7spi_dev.isra.8
                0x080017d0       0x1c e:\drone_parachute\build\libraries\SPI\SPI.cpp.o
 .text._ZL15configure_gpiosP7spi_devb
                0x080017ec       0x84 e:\drone_parachute\build\libraries\SPI\SPI.cpp.o
 .text._ZL19determine_baud_rateP7spi_devm.isra.9
                0x08001870       0x3c e:\drone_parachute\build\libraries\SPI\SPI.cpp.o
 .text._ZN8SPIClassC2Em
                0x080018ac       0xa8 e:\drone_parachute\build\libraries\SPI\SPI.cpp.o
                0x080018ac                SPIClass::SPIClass(unsigned long)
                0x080018ac                SPIClass::SPIClass(unsigned long)
 .text._ZN8SPIClass14updateSettingsEv
                0x08001954       0x24 e:\drone_parachute\build\libraries\SPI\SPI.cpp.o
                0x08001954                SPIClass::updateSettings()
 .text._ZN8SPIClass5beginEv
                0x08001978       0x24 e:\drone_parachute\build\libraries\SPI\SPI.cpp.o
                0x08001978                SPIClass::begin()
 .text._ZN8SPIClass15setClockDividerEm
                0x0800199c       0x18 e:\drone_parachute\build\libraries\SPI\SPI.cpp.o
                0x0800199c                SPIClass::setClockDivider(unsigned long)
 .text._ZN8SPIClass11setBitOrderE8BitOrder
                0x080019b4       0x18 e:\drone_parachute\build\libraries\SPI\SPI.cpp.o
                0x080019b4                SPIClass::setBitOrder(BitOrder)
 .text._ZN8SPIClass11setDataSizeEm
                0x080019cc       0x30 e:\drone_parachute\build\libraries\SPI\SPI.cpp.o
                0x080019cc                SPIClass::setDataSize(unsigned long)
 .text._ZN8SPIClass11setDataModeEh
                0x080019fc       0x1a e:\drone_parachute\build\libraries\SPI\SPI.cpp.o
                0x080019fc                SPIClass::setDataMode(unsigned char)
 .text._ZN8SPIClass16beginTransactionEh11SPISettings
                0x08001a16       0x46 e:\drone_parachute\build\libraries\SPI\SPI.cpp.o
                0x08001a16                SPIClass::beginTransaction(unsigned char, SPISettings)
 .text._ZN8SPIClass14endTransactionEv
                0x08001a5c        0x2 e:\drone_parachute\build\libraries\SPI\SPI.cpp.o
                0x08001a5c                SPIClass::endTransaction()
 .text._ZNK8SPIClass8transferEh
                0x08001a5e       0x1a e:\drone_parachute\build\libraries\SPI\SPI.cpp.o
                0x08001a5e                SPIClass::transfer(unsigned char) const
 .text.startup._GLOBAL__sub_I__ZN8SPIClassC2Em
                0x08001a78        0xc e:\drone_parachute\build\libraries\SPI\SPI.cpp.o
 .text._ZN5Servo17writeMicrosecondsEt
                0x08001a84       0x3a e:\drone_parachute\build\libraries\Servo\Servo.cpp.o
                0x08001a84                Servo::writeMicroseconds(unsigned short)
 .text._ZN5Servo5writeEi
                0x08001abe       0x3c e:\drone_parachute\build\libraries\Servo\Servo.cpp.o
                0x08001abe                Servo::write(int)
 .text._ZN5Servo11resetFieldsEv
                0x08001afa       0x1c e:\drone_parachute\build\libraries\Servo\Servo.cpp.o
                0x08001afa                Servo::resetFields()
 .text._ZN5ServoC2Ev
                0x08001b16        0xc e:\drone_parachute\build\libraries\Servo\Servo.cpp.o
                0x08001b16                Servo::Servo()
                0x08001b16                Servo::Servo()
 *fill*         0x08001b22        0x2 
 .text._ZN5Servo6detachEv
                0x08001b24       0x30 e:\drone_parachute\build\libraries\Servo\Servo.cpp.o
                0x08001b24                Servo::detach()
 .text._ZN5Servo6attachEhttss
                0x08001b54       0x68 e:\drone_parachute\build\libraries\Servo\Servo.cpp.o
                0x08001b54                Servo::attach(unsigned char, unsigned short, unsigned short, short, short)
 .text._Z9boardInitv
                0x08001bbc        0x2 e:\drone_parachute\build\core\board.cpp.o
                0x08001bbc                boardInit()
 *fill*         0x08001bbe        0x2 
 .text.startup._GLOBAL__sub_I__Z9boardInitv
                0x08001bc0       0x48 e:\drone_parachute\build\core\board.cpp.o
 .text._ZL18adc_default_configP7adc_dev
                0x08001c08       0x1c e:\drone_parachute\build\core\wirish\boards.cpp.o
 .text._ZL20timer_default_configP9timer_dev
                0x08001c24       0x9e e:\drone_parachute\build\core\wirish\boards.cpp.o
 *fill*         0x08001cc2        0x2 
 .text._Z4initv
                0x08001cc4       0xbc e:\drone_parachute\build\core\wirish\boards.cpp.o
                0x08001cc4                init()
 .text._ZN6wirish4priv15board_reset_pllEv
                0x08001d80        0x2 e:\drone_parachute\build\core\wirish\boards_setup.cpp.o
                0x08001d80                wirish::priv::board_reset_pll()
 .text._ZN6wirish4priv28board_setup_clock_prescalersEv
                0x08001d82       0x2e e:\drone_parachute\build\core\wirish\boards_setup.cpp.o
                0x08001d82                wirish::priv::board_setup_clock_prescalers()
 .text._ZN6wirish4priv16board_setup_gpioEv
                0x08001db0        0x4 e:\drone_parachute\build\core\wirish\boards_setup.cpp.o
                0x08001db0                wirish::priv::board_setup_gpio()
 .text._ZN6wirish4priv15board_setup_usbEv
                0x08001db4        0x2 e:\drone_parachute\build\core\wirish\boards_setup.cpp.o
                0x08001db4                wirish::priv::board_setup_usb()
 .text._ZN6wirish4priv11series_initEv
                0x08001db6        0x4 e:\drone_parachute\build\core\wirish\boards_setup.cpp.o
                0x08001db6                wirish::priv::series_init()
 *fill*         0x08001dba        0x2 
 .text          0x08001dbc       0x10 e:\drone_parachute\build\core\wirish\start.S.o
                0x08001dbc                __start__
 .text.start_c  0x08001dcc       0x58 e:\drone_parachute\build\core\wirish\start_c.c.o
                0x08001dcc                start_c
 .text.rb_full_count
                0x08001e24       0x22 e:\drone_parachute\build\core\core.a(HardwareSerial.cpp.o)
 .text._ZN14HardwareSerial4readEv
                0x08001e46       0x3a e:\drone_parachute\build\core\core.a(HardwareSerial.cpp.o)
                0x08001e46                HardwareSerial::read()
 .text._ZN14HardwareSerial9availableEv
                0x08001e80        0xc e:\drone_parachute\build\core\core.a(HardwareSerial.cpp.o)
                0x08001e80                HardwareSerial::available()
 .text._ZN14HardwareSerial4peekEv
                0x08001e8c       0x22 e:\drone_parachute\build\core\core.a(HardwareSerial.cpp.o)
                0x08001e8c                HardwareSerial::peek()
 .text._ZN14HardwareSerial5flushEv
                0x08001eae       0x1a e:\drone_parachute\build\core\core.a(HardwareSerial.cpp.o)
                0x08001eae                HardwareSerial::flush()
 .text._ZN14HardwareSerial5writeEh
                0x08001ec8       0x1e e:\drone_parachute\build\core\core.a(HardwareSerial.cpp.o)
                0x08001ec8                HardwareSerial::write(unsigned char)
 *fill*         0x08001ee6        0x2 
 .text._ZN14HardwareSerialC2EP9usart_devhh
                0x08001ee8       0x1c e:\drone_parachute\build\core\core.a(HardwareSerial.cpp.o)
                0x08001ee8                HardwareSerial::HardwareSerial(usart_dev*, unsigned char, unsigned char)
                0x08001ee8                HardwareSerial::HardwareSerial(usart_dev*, unsigned char, unsigned char)
 .text._ZN14HardwareSerial5beginEmh
                0x08001f04       0x78 e:\drone_parachute\build\core\core.a(HardwareSerial.cpp.o)
                0x08001f04                HardwareSerial::begin(unsigned long, unsigned char)
 .text._ZN14HardwareSerial5beginEm
                0x08001f7c        0x6 e:\drone_parachute\build\core\core.a(HardwareSerial.cpp.o)
                0x08001f7c                HardwareSerial::begin(unsigned long)
 *fill*         0x08001f82        0x2 
 .text.set_this_dev
                0x08001f84       0x1c e:\drone_parachute\build\core\core.a(HardwareTimer.cpp.o)
 .text._ZN13HardwareTimerC2Eh
                0x08001fa0       0x2c e:\drone_parachute\build\core\core.a(HardwareTimer.cpp.o)
                0x08001fa0                HardwareTimer::HardwareTimer(unsigned char)
                0x08001fa0                HardwareTimer::HardwareTimer(unsigned char)
 .text._ZN13HardwareTimer5pauseEv
                0x08001fcc       0x10 e:\drone_parachute\build\core\core.a(HardwareTimer.cpp.o)
                0x08001fcc                HardwareTimer::pause()
 .text._ZN13HardwareTimer6resumeEv
                0x08001fdc       0x10 e:\drone_parachute\build\core\core.a(HardwareTimer.cpp.o)
                0x08001fdc                HardwareTimer::resume()
 .text._ZN13HardwareTimer17setPrescaleFactorEm
                0x08001fec        0xc e:\drone_parachute\build\core\core.a(HardwareTimer.cpp.o)
                0x08001fec                HardwareTimer::setPrescaleFactor(unsigned long)
 .text._ZN13HardwareTimer9setPeriodEm
                0x08001ff8       0x3e e:\drone_parachute\build\core\core.a(HardwareTimer.cpp.o)
                0x08001ff8                HardwareTimer::setPeriod(unsigned long)
 .text._ZN13HardwareTimer7setModeEi10timer_mode
                0x08002036        0x8 e:\drone_parachute\build\core\core.a(HardwareTimer.cpp.o)
                0x08002036                HardwareTimer::setMode(int, timer_mode)
 .text._ZN13HardwareTimer10setCompareEit
                0x0800203e       0x1e e:\drone_parachute\build\core\core.a(HardwareTimer.cpp.o)
                0x0800203e                HardwareTimer::setCompare(int, unsigned short)
 .text._ZN13HardwareTimer15attachInterruptEiPFvvE
                0x0800205c        0x8 e:\drone_parachute\build\core\core.a(HardwareTimer.cpp.o)
                0x0800205c                HardwareTimer::attachInterrupt(int, void (*)())
 .text._ZN13HardwareTimer7refreshEv
                0x08002064       0x12 e:\drone_parachute\build\core\core.a(HardwareTimer.cpp.o)
                0x08002064                HardwareTimer::refresh()
 *fill*         0x08002076        0x2 
 .text.startup._GLOBAL__sub_I__ZN13HardwareTimerC2Eh
                0x08002078       0x38 e:\drone_parachute\build\core\core.a(HardwareTimer.cpp.o)
 .text._ZN5Print5writeEPKvm
                0x080020b0       0x20 e:\drone_parachute\build\core\core.a(Print.cpp.o)
                0x080020b0                Print::write(void const*, unsigned long)
 .text._ZN5Print5writeEPKc
                0x080020d0       0x1e e:\drone_parachute\build\core\core.a(Print.cpp.o)
                0x080020d0                Print::write(char const*)
 .text._ZN5Print5printEc
                0x080020ee        0xa e:\drone_parachute\build\core\core.a(Print.cpp.o)
                0x080020ee                Print::print(char)
 .text._ZN5Print5printEPKc
                0x080020f8        0xa e:\drone_parachute\build\core\core.a(Print.cpp.o)
                0x080020f8                Print::print(char const*)
 .text._ZN5Print7printlnEv
                0x08002102       0x18 e:\drone_parachute\build\core\core.a(Print.cpp.o)
                0x08002102                Print::println()
 .text._ZN5Print11printNumberEyh
                0x0800211a       0x84 e:\drone_parachute\build\core\core.a(Print.cpp.o)
                0x0800211a                Print::printNumber(unsigned long long, unsigned char)
 .text._ZN5Print5printExi
                0x0800219e       0x32 e:\drone_parachute\build\core\core.a(Print.cpp.o)
                0x0800219e                Print::print(long long, int)
 .text._ZN5Print5printEii
                0x080021d0       0x12 e:\drone_parachute\build\core\core.a(Print.cpp.o)
                0x080021d0                Print::print(int, int)
 *fill*         0x080021e2        0x6 
 .text._ZN5Print10printFloatEdh
                0x080021e8      0x158 e:\drone_parachute\build\core\core.a(Print.cpp.o)
                0x080021e8                Print::printFloat(double, unsigned char)
 .text._ZN5Print5printEdi
                0x08002340        0xa e:\drone_parachute\build\core\core.a(Print.cpp.o)
                0x08002340                Print::print(double, int)
 .text._ZN5Print7printlnEdi
                0x0800234a       0x1c e:\drone_parachute\build\core\core.a(Print.cpp.o)
                0x0800234a                Print::println(double, int)
 .text.__cxa_pure_virtual
                0x08002366        0x2 e:\drone_parachute\build\core\core.a(cxxabi-compat.cpp.o)
                0x08002366                __cxa_pure_virtual
 .text.adc_init
                0x08002368       0x14 e:\drone_parachute\build\core\core.a(adc.c.o)
                0x08002368                adc_init
 .text.adc_set_extsel
                0x0800237c       0x12 e:\drone_parachute\build\core\core.a(adc.c.o)
                0x0800237c                adc_set_extsel
 .text.adc_set_sample_rate
                0x0800238e       0x30 e:\drone_parachute\build\core\core.a(adc.c.o)
                0x0800238e                adc_set_sample_rate
 .text.adc_read
                0x080023be       0x20 e:\drone_parachute\build\core\core.a(adc.c.o)
                0x080023be                adc_read
 *fill*         0x080023de        0x2 
 .text.__irq_adc
                0x080023e0       0x50 e:\drone_parachute\build\core\core.a(adc_f1.c.o)
                0x080023e0                __irq_adc
 .text.adc_calibrate
                0x08002430       0x24 e:\drone_parachute\build\core\core.a(adc_f1.c.o)
                0x08002430                adc_calibrate
 .text.adc_set_prescaler
                0x08002454        0x8 e:\drone_parachute\build\core\core.a(adc_f1.c.o)
                0x08002454                adc_set_prescaler
 .text.adc_foreach
                0x0800245c       0x1c e:\drone_parachute\build\core\core.a(adc_f1.c.o)
                0x0800245c                adc_foreach
 .text.adc_enable_single_swstart
                0x08002478       0x36 e:\drone_parachute\build\core\core.a(adc_f1.c.o)
                0x08002478                adc_enable_single_swstart
 .text.dma_irq_handler
                0x080024ae       0x1c e:\drone_parachute\build\core\core.a(dma_f1.c.o)
 *fill*         0x080024ca        0x2 
 .text.__irq_dma1_channel1
                0x080024cc       0x10 e:\drone_parachute\build\core\core.a(dma_f1.c.o)
                0x080024cc                __irq_dma1_channel1
 .text.__irq_dma1_channel2
                0x080024dc       0x10 e:\drone_parachute\build\core\core.a(dma_f1.c.o)
                0x080024dc                __irq_dma1_channel2
 .text.__irq_dma1_channel3
                0x080024ec       0x10 e:\drone_parachute\build\core\core.a(dma_f1.c.o)
                0x080024ec                __irq_dma1_channel3
 .text.__irq_dma1_channel4
                0x080024fc       0x10 e:\drone_parachute\build\core\core.a(dma_f1.c.o)
                0x080024fc                __irq_dma1_channel4
 .text.__irq_dma1_channel5
                0x0800250c       0x10 e:\drone_parachute\build\core\core.a(dma_f1.c.o)
                0x0800250c                __irq_dma1_channel5
 .text.__irq_dma1_channel6
                0x0800251c       0x10 e:\drone_parachute\build\core\core.a(dma_f1.c.o)
                0x0800251c                __irq_dma1_channel6
 .text.__irq_dma1_channel7
                0x0800252c       0x10 e:\drone_parachute\build\core\core.a(dma_f1.c.o)
                0x0800252c                __irq_dma1_channel7
 *fill*         0x0800253c        0x4 
 .text          0x08002540       0x60 e:\drone_parachute\build\core\core.a(exc.S.o)
                0x08002540                __exc_nmi
                0x08002544                __exc_hardfault
                0x08002548                __exc_memmanage
                0x0800254c                __exc_busfault
                0x08002550                __exc_usagefault
 .text.dispatch_single_exti
                0x080025a0       0x2c e:\drone_parachute\build\core\core.a(exti.c.o)
                0x080025a0                dispatch_single_exti
 .text.dispatch_extis
                0x080025cc       0x4c e:\drone_parachute\build\core\core.a(exti.c.o)
                0x080025cc                dispatch_extis
 .text.__irq_exti0
                0x08002618        0x6 e:\drone_parachute\build\core\core.a(exti.c.o)
                0x08002618                __irq_exti0
 .text.__irq_exti1
                0x0800261e        0x6 e:\drone_parachute\build\core\core.a(exti.c.o)
                0x0800261e                __irq_exti1
 .text.__irq_exti2
                0x08002624        0x6 e:\drone_parachute\build\core\core.a(exti.c.o)
                0x08002624                __irq_exti2
 .text.__irq_exti3
                0x0800262a        0x6 e:\drone_parachute\build\core\core.a(exti.c.o)
                0x0800262a                __irq_exti3
 .text.__irq_exti4
                0x08002630        0x6 e:\drone_parachute\build\core\core.a(exti.c.o)
                0x08002630                __irq_exti4
 .text.__irq_exti9_5
                0x08002636        0x8 e:\drone_parachute\build\core\core.a(exti.c.o)
                0x08002636                __irq_exti9_5
 .text.__irq_exti15_10
                0x0800263e        0x8 e:\drone_parachute\build\core\core.a(exti.c.o)
                0x0800263e                __irq_exti15_10
 *fill*         0x08002646        0x2 
 .text.flash_set_latency
                0x08002648       0x14 e:\drone_parachute\build\core\core.a(flash.c.o)
                0x08002648                flash_set_latency
 .text.gpio_init_all
                0x0800265c       0x30 e:\drone_parachute\build\core\core.a(gpio_f1.c.o)
                0x0800265c                gpio_init_all
 .text.gpio_set_mode
                0x0800268c       0x50 e:\drone_parachute\build\core\core.a(gpio_f1.c.o)
                0x0800268c                gpio_set_mode
 .text.afio_init
                0x080026dc       0x12 e:\drone_parachute\build\core\core.a(gpio_f1.c.o)
                0x080026dc                afio_init
 *fill*         0x080026ee        0x2 
 .text.afio_remap
                0x080026f0       0x20 e:\drone_parachute\build\core\core.a(gpio_f1.c.o)
                0x080026f0                afio_remap
 .text.nvic_irq_enable
                0x08002710       0x1c e:\drone_parachute\build\core\core.a(i2c.c.o)
 .text.i2c_disable_irq
                0x0800272c        0xc e:\drone_parachute\build\core\core.a(i2c.c.o)
 .text.delay_us.part.0.constprop.6
                0x08002738        0xa e:\drone_parachute\build\core\core.a(i2c.c.o)
 .text.i2c_bus_reset
                0x08002742       0xc2 e:\drone_parachute\build\core\core.a(i2c.c.o)
                0x08002742                i2c_bus_reset
 .text.i2c_init
                0x08002804       0x1e e:\drone_parachute\build\core\core.a(i2c.c.o)
                0x08002804                i2c_init
 *fill*         0x08002822        0x2 
 .text.wait_for_state_change
                0x08002824       0x98 e:\drone_parachute\build\core\core.a(i2c.c.o)
                0x08002824                wait_for_state_change
 .text.i2c_master_xfer
                0x080028bc       0xa4 e:\drone_parachute\build\core\core.a(i2c.c.o)
                0x080028bc                i2c_master_xfer
 .text._i2c_irq_handler
                0x08002960      0x3d8 e:\drone_parachute\build\core\core.a(i2c.c.o)
                0x08002960                _i2c_irq_handler
 .text._i2c_irq_error_handler
                0x08002d38       0x84 e:\drone_parachute\build\core\core.a(i2c.c.o)
                0x08002d38                _i2c_irq_error_handler
 .text.i2c_set_ccr_trise
                0x08002dbc       0x54 e:\drone_parachute\build\core\core.a(i2c.c.o)
                0x08002dbc                i2c_set_ccr_trise
 .text.i2c_master_enable
                0x08002e10      0x1b4 e:\drone_parachute\build\core\core.a(i2c.c.o)
                0x08002e10                i2c_master_enable
 .text.i2c_config_gpios
                0x08002fc4       0x58 e:\drone_parachute\build\core\core.a(i2c_f1.c.o)
                0x08002fc4                i2c_config_gpios
 .text.i2c_master_release_bus
                0x0800301c       0x4c e:\drone_parachute\build\core\core.a(i2c_f1.c.o)
                0x0800301c                i2c_master_release_bus
 .text.__irq_i2c1_ev
                0x08003068        0xc e:\drone_parachute\build\core\core.a(i2c_f1.c.o)
                0x08003068                __irq_i2c1_ev
 .text.__irq_i2c2_ev
                0x08003074        0xc e:\drone_parachute\build\core\core.a(i2c_f1.c.o)
                0x08003074                __irq_i2c2_ev
 .text.__irq_i2c1_er
                0x08003080        0xc e:\drone_parachute\build\core\core.a(i2c_f1.c.o)
                0x08003080                __irq_i2c1_er
 .text.__irq_i2c2_er
                0x0800308c        0xc e:\drone_parachute\build\core\core.a(i2c_f1.c.o)
                0x0800308c                __irq_i2c2_er
 .text._i2c_irq_priority_fixup
                0x08003098        0xa e:\drone_parachute\build\core\core.a(i2c_f1.c.o)
                0x08003098                _i2c_irq_priority_fixup
 *fill*         0x080030a2        0x2 
 .text.nvic_irq_set_priority
                0x080030a4       0x28 e:\drone_parachute\build\core\core.a(nvic.c.o)
                0x080030a4                nvic_irq_set_priority
 .text.nvic_init
                0x080030cc       0x30 e:\drone_parachute\build\core\core.a(nvic.c.o)
                0x080030cc                nvic_init
 .text.rcc_dev_clk
                0x080030fc        0xc e:\drone_parachute\build\core\core.a(rcc.c.o)
                0x080030fc                rcc_dev_clk
 .text.rcc_switch_sysclk
                0x08003108       0x20 e:\drone_parachute\build\core\core.a(rcc.c.o)
                0x08003108                rcc_switch_sysclk
 .text.rcc_turn_on_clk
                0x08003128       0x1a e:\drone_parachute\build\core\core.a(rcc.c.o)
                0x08003128                rcc_turn_on_clk
 .text.rcc_turn_off_clk
                0x08003142       0x1c e:\drone_parachute\build\core\core.a(rcc.c.o)
                0x08003142                rcc_turn_off_clk
 .text.rcc_is_clk_ready
                0x0800315e       0x18 e:\drone_parachute\build\core\core.a(rcc.c.o)
                0x0800315e                rcc_is_clk_ready
 *fill*         0x08003176        0x2 
 .text.rcc_configure_pll
                0x08003178       0x18 e:\drone_parachute\build\core\core.a(rcc_f1.c.o)
                0x08003178                rcc_configure_pll
 .text.rcc_clk_enable
                0x08003190       0x30 e:\drone_parachute\build\core\core.a(rcc_f1.c.o)
                0x08003190                rcc_clk_enable
 .text.rcc_reset_dev
                0x080031c0       0x34 e:\drone_parachute\build\core\core.a(rcc_f1.c.o)
                0x080031c0                rcc_reset_dev
 .text.rcc_set_prescaler
                0x080031f4       0x20 e:\drone_parachute\build\core\core.a(rcc_f1.c.o)
                0x080031f4                rcc_set_prescaler
 .text.rcc_clk_disable
                0x08003214       0x30 e:\drone_parachute\build\core\core.a(rcc_f1.c.o)
                0x08003214                rcc_clk_disable
 .text.bb_peri_set_bit
                0x08003244        0xe e:\drone_parachute\build\core\core.a(spi.c.o)
 .text.spi_init
                0x08003252       0x14 e:\drone_parachute\build\core\core.a(spi.c.o)
                0x08003252                spi_init
 .text.spi_peripheral_enable
                0x08003266        0xa e:\drone_parachute\build\core\core.a(spi.c.o)
                0x08003266                spi_peripheral_enable
 .text.spi_peripheral_disable
                0x08003270        0xa e:\drone_parachute\build\core\core.a(spi.c.o)
                0x08003270                spi_peripheral_disable
 .text.spi_reconfigure
                0x0800327a       0x2c e:\drone_parachute\build\core\core.a(spi.c.o)
 .text.spi_master_enable
                0x080032a6        0xc e:\drone_parachute\build\core\core.a(spi.c.o)
                0x080032a6                spi_master_enable
 .text.spi_config_gpios
                0x080032b2       0x5a e:\drone_parachute\build\core\core.a(spi_f1.c.o)
                0x080032b2                spi_config_gpios
 .text          0x0800330c        0x2 e:\drone_parachute\build\core\core.a(isrs.S.o)
                0x0800330c                __stm32reservedexception9
                0x0800330c                __exc_debug_monitor
                0x0800330c                __exc_svc
                0x0800330c                __irq_can_rx1
                0x0800330c                __irq_spi2
                0x0800330c                __irq_can_sce
                0x0800330c                __irq_pvd
                0x0800330c                __irq_tamper
                0x0800330c                __default_handler
                0x0800330c                __irq_wwdg
                0x0800330c                __stm32reservedexception10
                0x0800330c                __irq_flash
                0x0800330c                __stm32reservedexception13
                0x0800330c                __irq_rtc
                0x0800330c                __irq_spi1
                0x0800330c                __stm32reservedexception7
                0x0800330c                __irq_usb_hp_can_tx
                0x0800330c                __irq_rtcalarm
                0x0800330c                __stm32reservedexception8
                0x0800330c                __exc_pendsv
                0x0800330c                __irq_usbwakeup
                0x0800330c                __irq_rcc
 *fill*         0x0800330e        0x2 
 .text.systick_init
                0x08003310       0x10 e:\drone_parachute\build\core\core.a(systick.c.o)
                0x08003310                systick_init
 .text.__exc_systick
                0x08003320       0x1c e:\drone_parachute\build\core\core.a(systick.c.o)
                0x08003320                __exc_systick
 .text.timer_oc_set_mode
                0x0800333c       0x3a e:\drone_parachute\build\core\core.a(timer.c.o)
 .text.dispatch_general
                0x08003376       0x66 e:\drone_parachute\build\core\core.a(timer.c.o)
 .text.timer_cc_enable
                0x080033dc       0x1c e:\drone_parachute\build\core\core.a(timer.c.o)
 .text.timer_foreach
                0x080033f8       0x28 e:\drone_parachute\build\core\core.a(timer.c.o)
                0x080033f8                timer_foreach
 .text.timer_init
                0x08003420       0x14 e:\drone_parachute\build\core\core.a(timer.c.o)
                0x08003420                timer_init
 .text.timer_has_cc_channel
                0x08003434       0x30 e:\drone_parachute\build\core\core.a(timer.c.o)
                0x08003434                timer_has_cc_channel
 .text.timer_attach_interrupt
                0x08003464       0xe0 e:\drone_parachute\build\core\core.a(timer.c.o)
                0x08003464                timer_attach_interrupt
 .text.timer_detach_interrupt
                0x08003544       0x1e e:\drone_parachute\build\core\core.a(timer.c.o)
                0x08003544                timer_detach_interrupt
 .text.input_capture_mode
                0x08003562       0x1a e:\drone_parachute\build\core\core.a(timer.c.o)
                0x08003562                input_capture_mode
 .text.timer_set_mode
                0x0800357c       0x8c e:\drone_parachute\build\core\core.a(timer.c.o)
                0x0800357c                timer_set_mode
 .text.__irq_tim1_brk
                0x08003608       0x24 e:\drone_parachute\build\core\core.a(timer.c.o)
                0x08003608                __irq_tim1_brk
 .text.__irq_tim1_up
                0x0800362c       0x24 e:\drone_parachute\build\core\core.a(timer.c.o)
                0x0800362c                __irq_tim1_up
 .text.__irq_tim1_trg_com
                0x08003650       0x34 e:\drone_parachute\build\core\core.a(timer.c.o)
                0x08003650                __irq_tim1_trg_com
 .text.__irq_tim1_cc
                0x08003684       0x50 e:\drone_parachute\build\core\core.a(timer.c.o)
                0x08003684                __irq_tim1_cc
 .text.__irq_tim2
                0x080036d4        0xc e:\drone_parachute\build\core\core.a(timer.c.o)
                0x080036d4                __irq_tim2
 .text.__irq_tim3
                0x080036e0        0xc e:\drone_parachute\build\core\core.a(timer.c.o)
                0x080036e0                __irq_tim3
 .text.__irq_tim4
                0x080036ec        0xc e:\drone_parachute\build\core\core.a(timer.c.o)
                0x080036ec                __irq_tim4
 .text.usart_init
                0x080036f8       0x4c e:\drone_parachute\build\core\core.a(usart.c.o)
                0x080036f8                usart_init
 .text.usart_enable
                0x08003744       0x14 e:\drone_parachute\build\core\core.a(usart.c.o)
                0x08003744                usart_enable
 .text.usart_tx
                0x08003758       0x9c e:\drone_parachute\build\core\core.a(usart.c.o)
                0x08003758                usart_tx
 .text.usart_irq
                0x080037f4       0xc8 e:\drone_parachute\build\core\core.a(usart_f1.c.o)
 .text.usart_config_gpios_async
                0x080038bc       0x4a e:\drone_parachute\build\core\core.a(usart_f1.c.o)
                0x080038bc                usart_config_gpios_async
 .text.usart_set_baud_rate
                0x08003906       0x3c e:\drone_parachute\build\core\core.a(usart_f1.c.o)
                0x08003906                usart_set_baud_rate
 *fill*         0x08003942        0x2 
 .text.__irq_usart1
                0x08003944       0x18 e:\drone_parachute\build\core\core.a(usart_f1.c.o)
                0x08003944                __irq_usart1
 .text.__irq_usart2
                0x0800395c       0x18 e:\drone_parachute\build\core\core.a(usart_f1.c.o)
                0x0800395c                __irq_usart2
 .text.__irq_usart3
                0x08003974       0x18 e:\drone_parachute\build\core\core.a(usart_f1.c.o)
                0x08003974                __irq_usart3
 .text._usart_clock_freq
                0x0800398c       0x24 e:\drone_parachute\build\core\core.a(usart_private.c.o)
                0x0800398c                _usart_clock_freq
 .text.usb_resume
                0x080039b0       0xb4 e:\drone_parachute\build\core\core.a(usb.c.o)
 .text.__irq_usb_lp_can_rx0
                0x08003a64      0x1c8 e:\drone_parachute\build\core\core.a(usb.c.o)
                0x08003a64                __irq_usb_lp_can_rx0
 .text.usb_set_ep_rx_stat
                0x08003c2c       0x22 e:\drone_parachute\build\core\core.a(usb_cdcacm.c.o)
 *fill*         0x08003c4e        0x2 
 .text.vcomGetSetLineCoding
                0x08003c50       0x18 e:\drone_parachute\build\core\core.a(usb_cdcacm.c.o)
 .text.usbDataSetup
                0x08003c68       0x54 e:\drone_parachute\build\core\core.a(usb_cdcacm.c.o)
 .text.usbNoDataSetup
                0x08003cbc       0x50 e:\drone_parachute\build\core\core.a(usb_cdcacm.c.o)
 .text.usbGetInterfaceSetting
                0x08003d0c       0x10 e:\drone_parachute\build\core\core.a(usb_cdcacm.c.o)
 .text.usbGetStringDescriptor
                0x08003d1c       0x20 e:\drone_parachute\build\core\core.a(usb_cdcacm.c.o)
 .text.usbGetConfigDescriptor
                0x08003d3c        0xc e:\drone_parachute\build\core\core.a(usb_cdcacm.c.o)
 .text.usbGetDeviceDescriptor
                0x08003d48        0xc e:\drone_parachute\build\core\core.a(usb_cdcacm.c.o)
 .text.usbInit  0x08003d54       0x44 e:\drone_parachute\build\core\core.a(usb_cdcacm.c.o)
 .text.usbReset
                0x08003d98      0x160 e:\drone_parachute\build\core\core.a(usb_cdcacm.c.o)
 .text.usb_set_ep_rx_count
                0x08003ef8       0x4c e:\drone_parachute\build\core\core.a(usb_reg_map.c.o)
                0x08003ef8                usb_set_ep_rx_count
 .text.Standard_GetConfiguration
                0x08003f44       0x24 e:\drone_parachute\build\core\core.a(usb_core.c.o)
                0x08003f44                Standard_GetConfiguration
 .text.Standard_GetInterface
                0x08003f68       0x24 e:\drone_parachute\build\core\core.a(usb_core.c.o)
                0x08003f68                Standard_GetInterface
 .text.Standard_GetStatus
                0x08003f8c       0x90 e:\drone_parachute\build\core\core.a(usb_core.c.o)
                0x08003f8c                Standard_GetStatus
 .text.DataStageIn
                0x0800401c       0xa8 e:\drone_parachute\build\core\core.a(usb_core.c.o)
 .text.Standard_SetConfiguration
                0x080040c4       0x38 e:\drone_parachute\build\core\core.a(usb_core.c.o)
                0x080040c4                Standard_SetConfiguration
 .text.Standard_SetInterface
                0x080040fc       0x48 e:\drone_parachute\build\core\core.a(usb_core.c.o)
                0x080040fc                Standard_SetInterface
 .text.Standard_ClearFeature
                0x08004144       0xd0 e:\drone_parachute\build\core\core.a(usb_core.c.o)
                0x08004144                Standard_ClearFeature
 .text.Standard_SetEndPointFeature
                0x08004214       0x84 e:\drone_parachute\build\core\core.a(usb_core.c.o)
                0x08004214                Standard_SetEndPointFeature
 .text.Standard_SetDeviceFeature
                0x08004298       0x24 e:\drone_parachute\build\core\core.a(usb_core.c.o)
                0x08004298                Standard_SetDeviceFeature
 .text.Standard_GetDescriptorData
                0x080042bc       0x1c e:\drone_parachute\build\core\core.a(usb_core.c.o)
                0x080042bc                Standard_GetDescriptorData
 .text.Post0_Process
                0x080042d8       0x40 e:\drone_parachute\build\core\core.a(usb_core.c.o)
                0x080042d8                Post0_Process
 .text.Setup0_Process
                0x08004318      0x2d0 e:\drone_parachute\build\core\core.a(usb_core.c.o)
                0x08004318                Setup0_Process
 .text.Out0_Process
                0x080045e8       0xc8 e:\drone_parachute\build\core\core.a(usb_core.c.o)
                0x080045e8                Out0_Process
 .text.SetDeviceAddress
                0x080046b0       0x38 e:\drone_parachute\build\core\core.a(usb_core.c.o)
                0x080046b0                SetDeviceAddress
 .text.In0_Process
                0x080046e8       0x5c e:\drone_parachute\build\core\core.a(usb_core.c.o)
                0x080046e8                In0_Process
 .text.NOP_Process
                0x08004744        0x2 e:\drone_parachute\build\core\core.a(usb_core.c.o)
                0x08004744                NOP_Process
 .text.UserToPMABufferCopy
                0x08004746       0x30 e:\drone_parachute\build\core\core.a(usb_mem.c.o)
                0x08004746                UserToPMABufferCopy
 .text.PMAToUserBufferCopy
                0x08004776       0x32 e:\drone_parachute\build\core\core.a(usb_mem.c.o)
                0x08004776                PMAToUserBufferCopy
 .text.SetEPTxStatus
                0x080047a8       0x2a e:\drone_parachute\build\core\core.a(usb_regs.c.o)
                0x080047a8                SetEPTxStatus
 .text.ClearDTOG_RX
                0x080047d2       0x20 e:\drone_parachute\build\core\core.a(usb_regs.c.o)
                0x080047d2                ClearDTOG_RX
 .text.ClearDTOG_TX
                0x080047f2       0x20 e:\drone_parachute\build\core\core.a(usb_regs.c.o)
                0x080047f2                ClearDTOG_TX
 *fill*         0x08004812        0x2 
 .text.GetEPTxAddr
                0x08004814       0x1c e:\drone_parachute\build\core\core.a(usb_regs.c.o)
                0x08004814                GetEPTxAddr
 .text.GetEPRxAddr
                0x08004830       0x1c e:\drone_parachute\build\core\core.a(usb_regs.c.o)
                0x08004830                GetEPRxAddr
 .text.SetEPTxCount
                0x0800484c       0x1c e:\drone_parachute\build\core\core.a(usb_regs.c.o)
                0x0800484c                SetEPTxCount
 .text.SetEPRxCount
                0x08004868       0x40 e:\drone_parachute\build\core\core.a(usb_regs.c.o)
                0x08004868                SetEPRxCount
 .text.throb    0x080048a8       0x4c e:\drone_parachute\build\core\core.a(util.c.o)
                0x080048a8                throb
 .text.__error  0x080048f4       0x14 e:\drone_parachute\build\core\core.a(util.c.o)
                0x080048f4                __error
 .text.startup._Z7premainv
                0x08004908        0x4 e:\drone_parachute\build\core\core.a(main.cpp.o)
                0x08004908                premain()
 .text.startup.main
                0x0800490c        0xc e:\drone_parachute\build\core\core.a(main.cpp.o)
                0x0800490c                main
 .text._Z8pwmWriteht
                0x08004918       0x24 e:\drone_parachute\build\core\core.a(pwm.cpp.o)
                0x08004918                pwmWrite(unsigned char, unsigned short)
 .text._Z7pinModeh13WiringPinMode
                0x0800493c       0x84 e:\drone_parachute\build\core\core.a(wirish_digital_f1.cpp.o)
                0x0800493c                pinMode(unsigned char, WiringPinMode)
 .text._Z10analogReadh
                0x080049c0       0x1c e:\drone_parachute\build\core\core.a(wirish_analog.cpp.o)
                0x080049c0                analogRead(unsigned char)
 .text._Z12digitalWritehh
                0x080049dc       0x2c e:\drone_parachute\build\core\core.a(wirish_digital.cpp.o)
                0x080049dc                digitalWrite(unsigned char, unsigned char)
 .text._ZL6microsv
                0x08004a08       0x34 e:\drone_parachute\build\core\core.a(wirish_time.cpp.o)
 .text._Z5delaym
                0x08004a3c       0x2a e:\drone_parachute\build\core\core.a(wirish_time.cpp.o)
                0x08004a3c                delay(unsigned long)
 .text.__empty  0x08004a66        0x2 e:\drone_parachute\build\core\core.a(hooks.c.o)
                0x08004a66                yield
 .text.gpio_init
                0x08004a68       0x14 e:\drone_parachute\build\core\core.a(gpio.c.o)
                0x08004a68                gpio_init
 .text.sqrt     0x08004a7c       0xac c:/users/param/appdata/local/arduino15/packages/arduino/tools/arm-none-eabi-gcc/4.8.3-2014q1/bin/../lib/gcc/arm-none-eabi/4.8.3/../../../../arm-none-eabi/lib/armv7-m\libm.a(lib_a-w_sqrt.o)
                0x08004a7c                sqrt
 .text.__ieee754_sqrt
                0x08004b28      0x180 c:/users/param/appdata/local/arduino15/packages/arduino/tools/arm-none-eabi-gcc/4.8.3-2014q1/bin/../lib/gcc/arm-none-eabi/4.8.3/../../../../arm-none-eabi/lib/armv7-m\libm.a(lib_a-e_sqrt.o)
                0x08004b28                __ieee754_sqrt
 .text.__fpclassifyd
                0x08004ca8       0x50 c:/users/param/appdata/local/arduino15/packages/arduino/tools/arm-none-eabi-gcc/4.8.3-2014q1/bin/../lib/gcc/arm-none-eabi/4.8.3/../../../../arm-none-eabi/lib/armv7-m\libm.a(lib_a-s_fpclassify.o)
                0x08004ca8                __fpclassifyd
 .text.matherr  0x08004cf8        0x4 c:/users/param/appdata/local/arduino15/packages/arduino/tools/arm-none-eabi-gcc/4.8.3-2014q1/bin/../lib/gcc/arm-none-eabi/4.8.3/../../../../arm-none-eabi/lib/armv7-m\libm.a(lib_a-s_matherr.o)
                0x08004cf8                matherr
 .text          0x08004cfc      0x370 c:/users/param/appdata/local/arduino15/packages/arduino/tools/arm-none-eabi-gcc/4.8.3-2014q1/bin/../lib/gcc/arm-none-eabi/4.8.3/armv7-m\libgcc.a(_arm_addsubdf3.o)
                0x08004cfc                __aeabi_drsub
                0x08004d04                __aeabi_dsub
                0x08004d04                __subdf3
                0x08004d08                __aeabi_dadd
                0x08004d08                __adddf3
                0x08004f80                __floatunsidf
                0x08004f80                __aeabi_ui2d
                0x08004fa0                __floatsidf
                0x08004fa0                __aeabi_i2d
                0x08004fc4                __aeabi_f2d
                0x08004fc4                __extendsfdf2
                0x08005000                __floatundidf
                0x08005000                __aeabi_ul2d
                0x08005010                __floatdidf
                0x08005010                __aeabi_l2d
 .text          0x0800506c      0x424 c:/users/param/appdata/local/arduino15/packages/arduino/tools/arm-none-eabi-gcc/4.8.3-2014q1/bin/../lib/gcc/arm-none-eabi/4.8.3/armv7-m\libgcc.a(_arm_muldivdf3.o)
                0x0800506c                __aeabi_dmul
                0x0800506c                __muldf3
                0x080052c0                __divdf3
                0x080052c0                __aeabi_ddiv
 .text          0x08005490      0x110 c:/users/param/appdata/local/arduino15/packages/arduino/tools/arm-none-eabi-gcc/4.8.3-2014q1/bin/../lib/gcc/arm-none-eabi/4.8.3/armv7-m\libgcc.a(_arm_cmpdf2.o)
                0x08005490                __gtdf2
                0x08005490                __gedf2
                0x08005498                __ltdf2
                0x08005498                __ledf2
                0x080054a0                __nedf2
                0x080054a0                __eqdf2
                0x080054a0                __cmpdf2
                0x0800551c                __aeabi_cdrcmple
                0x0800552c                __aeabi_cdcmpeq
                0x0800552c                __aeabi_cdcmple
                0x0800553c                __aeabi_dcmpeq
                0x08005550                __aeabi_dcmplt
                0x08005564                __aeabi_dcmple
                0x08005578                __aeabi_dcmpge
                0x0800558c                __aeabi_dcmpgt
 .text          0x080055a0       0x50 c:/users/param/appdata/local/arduino15/packages/arduino/tools/arm-none-eabi-gcc/4.8.3-2014q1/bin/../lib/gcc/arm-none-eabi/4.8.3/armv7-m\libgcc.a(_arm_fixdfsi.o)
                0x080055a0                __aeabi_d2iz
                0x080055a0                __fixdfsi
 .text          0x080055f0       0xa0 c:/users/param/appdata/local/arduino15/packages/arduino/tools/arm-none-eabi-gcc/4.8.3-2014q1/bin/../lib/gcc/arm-none-eabi/4.8.3/armv7-m\libgcc.a(_arm_truncdfsf2.o)
                0x080055f0                __truncdfsf2
                0x080055f0                __aeabi_d2f
 .text          0x08005690      0x21c c:/users/param/appdata/local/arduino15/packages/arduino/tools/arm-none-eabi-gcc/4.8.3-2014q1/bin/../lib/gcc/arm-none-eabi/4.8.3/armv7-m\libgcc.a(_arm_addsubsf3.o)
                0x08005690                __aeabi_frsub
                0x08005698                __subsf3
                0x08005698                __aeabi_fsub
                0x0800569c                __aeabi_fadd
                0x0800569c                __addsf3
                0x080057fc                __aeabi_ui2f
                0x080057fc                __floatunsisf
                0x08005804                __aeabi_i2f
                0x08005804                __floatsisf
                0x08005820                __aeabi_ul2f
                0x08005820                __floatundisf
                0x08005830                __aeabi_l2f
                0x08005830                __floatdisf
 .text          0x080058ac      0x2a0 c:/users/param/appdata/local/arduino15/packages/arduino/tools/arm-none-eabi-gcc/4.8.3-2014q1/bin/../lib/gcc/arm-none-eabi/4.8.3/armv7-m\libgcc.a(_arm_muldivsf3.o)
                0x080058ac                __mulsf3
                0x080058ac                __aeabi_fmul
                0x08005a14                __aeabi_fdiv
                0x08005a14                __divsf3
 .text          0x08005b4c       0xec c:/users/param/appdata/local/arduino15/packages/arduino/tools/arm-none-eabi-gcc/4.8.3-2014q1/bin/../lib/gcc/arm-none-eabi/4.8.3/armv7-m\libgcc.a(_arm_cmpsf2.o)
                0x08005b4c                __gesf2
                0x08005b4c                __gtsf2
                0x08005b54                __lesf2
                0x08005b54                __ltsf2
                0x08005b5c                __nesf2
                0x08005b5c                __eqsf2
                0x08005b5c                __cmpsf2
                0x08005bbc                __aeabi_cfrcmple
                0x08005bc4                __aeabi_cfcmpeq
                0x08005bc4                __aeabi_cfcmple
                0x08005bd4                __aeabi_fcmpeq
                0x08005be8                __aeabi_fcmplt
                0x08005bfc                __aeabi_fcmple
                0x08005c10                __aeabi_fcmpge
                0x08005c24                __aeabi_fcmpgt
 .text          0x08005c38       0x38 c:/users/param/appdata/local/arduino15/packages/arduino/tools/arm-none-eabi-gcc/4.8.3-2014q1/bin/../lib/gcc/arm-none-eabi/4.8.3/armv7-m\libgcc.a(_aeabi_ldivmod.o)
                0x08005c38                __aeabi_ldivmod
 .text          0x08005c70       0x2c c:/users/param/appdata/local/arduino15/packages/arduino/tools/arm-none-eabi-gcc/4.8.3-2014q1/bin/../lib/gcc/arm-none-eabi/4.8.3/armv7-m\libgcc.a(_aeabi_uldivmod.o)
                0x08005c70                __aeabi_uldivmod
 .text          0x08005c9c       0x30 c:/users/param/appdata/local/arduino15/packages/arduino/tools/arm-none-eabi-gcc/4.8.3-2014q1/bin/../lib/gcc/arm-none-eabi/4.8.3/armv7-m\libgcc.a(_fixdfdi.o)
                0x08005c9c                __fixdfdi
                0x08005c9c                __aeabi_d2lz
 .text          0x08005ccc       0x44 c:/users/param/appdata/local/arduino15/packages/arduino/tools/arm-none-eabi-gcc/4.8.3-2014q1/bin/../lib/gcc/arm-none-eabi/4.8.3/armv7-m\libgcc.a(_fixunsdfdi.o)
                0x08005ccc                __fixunsdfdi
                0x08005ccc                __aeabi_d2ulz
 .text          0x08005d10       0x60 c:/users/param/appdata/local/arduino15/packages/arduino/tools/arm-none-eabi-gcc/4.8.3-2014q1/bin/../lib/gcc/arm-none-eabi/4.8.3/armv7-m\libgcc.a(bpabi.o)
                0x08005d10                __gnu_ldivmod_helper
                0x08005d40                __gnu_uldivmod_helper
 .text          0x08005d70        0x4 c:/users/param/appdata/local/arduino15/packages/arduino/tools/arm-none-eabi-gcc/4.8.3-2014q1/bin/../lib/gcc/arm-none-eabi/4.8.3/armv7-m\libgcc.a(_dvmd_tls.o)
                0x08005d70                __aeabi_idiv0
                0x08005d70                __aeabi_ldiv0
 .text          0x08005d74       0x40 c:/users/param/appdata/local/arduino15/packages/arduino/tools/arm-none-eabi-gcc/4.8.3-2014q1/bin/../lib/gcc/arm-none-eabi/4.8.3/armv7-m\libgcc.a(_arm_fixunsdfsi.o)
                0x08005d74                __aeabi_d2uiz
                0x08005d74                __fixunsdfsi
 .text          0x08005db4      0x2a0 c:/users/param/appdata/local/arduino15/packages/arduino/tools/arm-none-eabi-gcc/4.8.3-2014q1/bin/../lib/gcc/arm-none-eabi/4.8.3/armv7-m\libgcc.a(_divdi3.o)
                0x08005db4                __divdi3
 .text          0x08006054      0x290 c:/users/param/appdata/local/arduino15/packages/arduino/tools/arm-none-eabi-gcc/4.8.3-2014q1/bin/../lib/gcc/arm-none-eabi/4.8.3/armv7-m\libgcc.a(_udivdi3.o)
                0x08006054                __udivdi3
 .text.__errno  0x080062e4        0xc c:/users/param/appdata/local/arduino15/packages/arduino/tools/arm-none-eabi-gcc/4.8.3-2014q1/bin/../lib/gcc/arm-none-eabi/4.8.3/../../../../arm-none-eabi/lib/armv7-m\libc.a(lib_a-errno.o)
                0x080062e4                __errno
 .text.__libc_init_array
                0x080062f0       0x50 c:/users/param/appdata/local/arduino15/packages/arduino/tools/arm-none-eabi-gcc/4.8.3-2014q1/bin/../lib/gcc/arm-none-eabi/4.8.3/../../../../arm-none-eabi/lib/armv7-m\libc.a(lib_a-init.o)
                0x080062f0                __libc_init_array
 .text.strlen   0x08006340       0x60 c:/users/param/appdata/local/arduino15/packages/arduino/tools/arm-none-eabi-gcc/4.8.3-2014q1/bin/../lib/gcc/arm-none-eabi/4.8.3/../../../../arm-none-eabi/lib/armv7-m\libc.a(lib_a-strlen.o)
                0x08006340                strlen
 .text.startup.register_fini
                0x080063a0       0x14 c:/users/param/appdata/local/arduino15/packages/arduino/tools/arm-none-eabi-gcc/4.8.3-2014q1/bin/../lib/gcc/arm-none-eabi/4.8.3/../../../../arm-none-eabi/lib/armv7-m\libc.a(lib_a-__call_atexit.o)
 .text.atexit   0x080063b4        0xc c:/users/param/appdata/local/arduino15/packages/arduino/tools/arm-none-eabi-gcc/4.8.3-2014q1/bin/../lib/gcc/arm-none-eabi/4.8.3/../../../../arm-none-eabi/lib/armv7-m\libc.a(lib_a-atexit.o)
                0x080063b4                atexit
 .text.__libc_fini_array
                0x080063c0       0x30 c:/users/param/appdata/local/arduino15/packages/arduino/tools/arm-none-eabi-gcc/4.8.3-2014q1/bin/../lib/gcc/arm-none-eabi/4.8.3/../../../../arm-none-eabi/lib/armv7-m\libc.a(lib_a-fini.o)
                0x080063c0                __libc_fini_array
 .text.__register_exitproc
                0x080063f0       0xa8 c:/users/param/appdata/local/arduino15/packages/arduino/tools/arm-none-eabi-gcc/4.8.3-2014q1/bin/../lib/gcc/arm-none-eabi/4.8.3/../../../../arm-none-eabi/lib/armv7-m\libc.a(lib_a-__atexit.o)
                0x080063f0                __register_exitproc
 *(.plt)
 *(.gnu.warning)
 *(.glue_7t)
 .glue_7t       0x00000000        0x0 linker stubs
 *(.glue_7)
 .glue_7        0x00000000        0x0 linker stubs
 *(.vfp11_veneer)
 .vfp11_veneer  0x00000000        0x0 linker stubs
 *(.ARM.extab* .gnu.linkonce.armextab.*)
 *(.gcc_except_table)
 *(.eh_frame_hdr)
 *(.eh_frame)
 .eh_frame      0x08006498        0x0 c:/users/param/appdata/local/arduino15/packages/arduino/tools/arm-none-eabi-gcc/4.8.3-2014q1/bin/../lib/gcc/arm-none-eabi/4.8.3/armv7-m/crtbegin.o
                0x08006498                . = ALIGN (0x4)
 *(.init)
 .init          0x08006498        0x4 c:/users/param/appdata/local/arduino15/packages/arduino/tools/arm-none-eabi-gcc/4.8.3-2014q1/bin/../lib/gcc/arm-none-eabi/4.8.3/armv7-m/crti.o
                0x08006498                _init
 .init          0x0800649c        0x8 c:/users/param/appdata/local/arduino15/packages/arduino/tools/arm-none-eabi-gcc/4.8.3-2014q1/bin/../lib/gcc/arm-none-eabi/4.8.3/armv7-m/crtn.o
                0x080064a4                . = ALIGN (0x4)
                0x080064a4                __preinit_array_start = .
 *(.preinit_array)
                0x080064a4                __preinit_array_end = .
                0x080064a4                . = ALIGN (0x4)
                0x080064a4                __init_array_start = .
 *(SORT(.init_array.*))
 .init_array.00000
                0x080064a4        0x4 c:/users/param/appdata/local/arduino15/packages/arduino/tools/arm-none-eabi-gcc/4.8.3-2014q1/bin/../lib/gcc/arm-none-eabi/4.8.3/../../../../arm-none-eabi/lib/armv7-m\libc.a(lib_a-__call_atexit.o)
 .init_array.00101
                0x080064a8        0x4 e:\drone_parachute\build\core\core.a(main.cpp.o)
 *(.init_array)
 .init_array    0x080064ac        0x4 c:/users/param/appdata/local/arduino15/packages/arduino/tools/arm-none-eabi-gcc/4.8.3-2014q1/bin/../lib/gcc/arm-none-eabi/4.8.3/armv7-m/crtbegin.o
 .init_array    0x080064b0        0x4 e:\drone_parachute\build\sketch\main.ino.cpp.o
 .init_array    0x080064b4        0x4 e:\drone_parachute\build\libraries\Wire\Wire.cpp.o
 .init_array    0x080064b8        0x4 e:\drone_parachute\build\libraries\SPI\SPI.cpp.o
 .init_array    0x080064bc        0x4 e:\drone_parachute\build\core\board.cpp.o
 .init_array    0x080064c0        0x4 e:\drone_parachute\build\core\core.a(HardwareTimer.cpp.o)
                0x080064c4                __init_array_end = .
                0x080064c4                . = ALIGN (0x4)
 *crtbegin.o(.ctors)
 *(EXCLUDE_FILE(*crtend.o) .ctors)
 *(SORT(.ctors.*))
 *crtend.o(.ctors)
                0x080064c4                . = ALIGN (0x4)
 *(.fini)
 .fini          0x080064c4        0x4 c:/users/param/appdata/local/arduino15/packages/arduino/tools/arm-none-eabi-gcc/4.8.3-2014q1/bin/../lib/gcc/arm-none-eabi/4.8.3/armv7-m/crti.o
                0x080064c4                _fini
 .fini          0x080064c8        0x8 c:/users/param/appdata/local/arduino15/packages/arduino/tools/arm-none-eabi-gcc/4.8.3-2014q1/bin/../lib/gcc/arm-none-eabi/4.8.3/armv7-m/crtn.o
                0x080064d0                . = ALIGN (0x4)
                0x080064d0                __fini_array_start = .
 *(.fini_array)
 .fini_array    0x080064d0        0x4 c:/users/param/appdata/local/arduino15/packages/arduino/tools/arm-none-eabi-gcc/4.8.3-2014q1/bin/../lib/gcc/arm-none-eabi/4.8.3/armv7-m/crtbegin.o
 .fini_array    0x080064d4        0x4 e:\drone_parachute\build\libraries\Wire\Wire.cpp.o
 *(SORT(.fini_array.*))
                0x080064d8                __fini_array_end = .
 *crtbegin.o(.dtors)
 *(EXCLUDE_FILE(*crtend.o) .dtors)
 *(SORT(.dtors.*))
 *crtend.o(.dtors)

.v4_bx          0x080064d8        0x0
 .v4_bx         0x00000000        0x0 linker stubs

.iplt           0x080064d8        0x0
 .iplt          0x00000000        0x0 c:/users/param/appdata/local/arduino15/packages/arduino/tools/arm-none-eabi-gcc/4.8.3-2014q1/bin/../lib/gcc/arm-none-eabi/4.8.3/armv7-m/crtbegin.o

.text.align     0x080064d8        0x0
                0x080064d8                . = ALIGN (0x8)
                0x080064d8                __text_end__ = .
                0x080064d8                __exidx_start = .

.ARM.exidx      0x080064d8        0x8
 *(.ARM.exidx* .gnu.linkonce.armexidx.*)
 .ARM.exidx     0x080064d8        0x8 e:\drone_parachute\build\core\wirish\start.S.o
 .ARM.exidx     0x080064e0        0x0 c:/users/param/appdata/local/arduino15/packages/arduino/tools/arm-none-eabi-gcc/4.8.3-2014q1/bin/../lib/gcc/arm-none-eabi/4.8.3/armv7-m\libgcc.a(_divdi3.o)
                                  0x8 (size before relaxing)
 .ARM.exidx     0x080064e0        0x0 c:/users/param/appdata/local/arduino15/packages/arduino/tools/arm-none-eabi-gcc/4.8.3-2014q1/bin/../lib/gcc/arm-none-eabi/4.8.3/armv7-m\libgcc.a(_udivdi3.o)
                                  0x8 (size before relaxing)
                0x080064e0                __exidx_end = .

.data           0x20000000      0x850 load address 0x080064e0
                0x20000000                __data_start__ = .
                0x20000000        0x4 LONG 0x0
                0x20000008                . = ALIGN (0x8)
 *fill*         0x20000004        0x4 
 *(.got.plt)
 *(.got)
 *(.data .data.* .gnu.linkonce.d.*)
 .data._ZN6wirish4privL8pll_dataE
                0x20000008        0x4 e:\drone_parachute\build\core\wirish\boards_setup.cpp.o
 .data._ZN6wirish4priv9w_adc_smpE
                0x2000000c        0x1 e:\drone_parachute\build\core\wirish\boards_setup.cpp.o
                0x2000000c                wirish::priv::w_adc_smp
 *fill*         0x2000000d        0x1 
 .data._ZN6wirish4priv9w_adc_preE
                0x2000000e        0x2 e:\drone_parachute\build\core\wirish\boards_setup.cpp.o
                0x2000000e                wirish::priv::w_adc_pre
 .data._ZN6wirish4priv15w_board_pll_cfgE
                0x20000010        0x8 e:\drone_parachute\build\core\wirish\boards_setup.cpp.o
                0x20000010                wirish::priv::w_board_pll_cfg
 .data.adc2     0x20000018        0x8 e:\drone_parachute\build\core\core.a(adc_f1.c.o)
                0x20000018                adc2
 .data.adc1     0x20000020       0x18 e:\drone_parachute\build\core\core.a(adc_f1.c.o)
                0x20000020                adc1
 .data.ADC2     0x20000038        0x4 e:\drone_parachute\build\core\core.a(adc_f1.c.o)
                0x20000038                ADC2
 .data.ADC1     0x2000003c        0x4 e:\drone_parachute\build\core\core.a(adc_f1.c.o)
                0x2000003c                ADC1
 .data.dma1     0x20000040       0x40 e:\drone_parachute\build\core\core.a(dma_f1.c.o)
 .data.DMA1     0x20000080        0x4 e:\drone_parachute\build\core\core.a(dma_f1.c.o)
                0x20000080                DMA1
 .data.gpioa    0x20000084        0x8 e:\drone_parachute\build\core\core.a(gpio_f1.c.o)
                0x20000084                gpioa
 .data.gpiob    0x2000008c        0x8 e:\drone_parachute\build\core\core.a(gpio_f1.c.o)
                0x2000008c                gpiob
 .data.gpioc    0x20000094        0x8 e:\drone_parachute\build\core\core.a(gpio_f1.c.o)
                0x20000094                gpioc
 .data.gpiod    0x2000009c        0x8 e:\drone_parachute\build\core\core.a(gpio_f1.c.o)
                0x2000009c                gpiod
 .data.i2c1     0x200000a4       0x38 e:\drone_parachute\build\core\core.a(i2c_f1.c.o)
 .data.i2c2     0x200000dc       0x38 e:\drone_parachute\build\core\core.a(i2c_f1.c.o)
 .data.enable_regs.4411
                0x20000114        0xc e:\drone_parachute\build\core\core.a(rcc_f1.c.o)
 .data.reset_regs.4415
                0x20000120        0x8 e:\drone_parachute\build\core\core.a(rcc_f1.c.o)
 .data.enable_regs.4424
                0x20000128        0xc e:\drone_parachute\build\core\core.a(rcc_f1.c.o)
 .data.spi1     0x20000134        0x8 e:\drone_parachute\build\core\core.a(spi_f1.c.o)
 .data.spi2     0x2000013c        0x8 e:\drone_parachute\build\core\core.a(spi_f1.c.o)
 .data.SPI1     0x20000144        0x4 e:\drone_parachute\build\core\core.a(spi_f1.c.o)
                0x20000144                SPI1
 .data.SPI2     0x20000148        0x4 e:\drone_parachute\build\core\core.a(spi_f1.c.o)
                0x20000148                SPI2
 .data.timer3   0x2000014c       0x24 e:\drone_parachute\build\core\core.a(timer.c.o)
                0x2000014c                timer3
 .data.timer4   0x20000170       0x24 e:\drone_parachute\build\core\core.a(timer.c.o)
                0x20000170                timer4
 .data.timer1   0x20000194       0x28 e:\drone_parachute\build\core\core.a(timer.c.o)
                0x20000194                timer1
 .data.timer2   0x200001bc       0x24 e:\drone_parachute\build\core\core.a(timer.c.o)
                0x200001bc                timer2
 .data.USART1   0x200001e0        0x4 e:\drone_parachute\build\core\core.a(usart_f1.c.o)
                0x200001e0                USART1
 .data.USART2   0x200001e4        0x4 e:\drone_parachute\build\core\core.a(usart_f1.c.o)
                0x200001e4                USART2
 .data.USART3   0x200001e8        0x4 e:\drone_parachute\build\core\core.a(usart_f1.c.o)
                0x200001e8                USART3
 .data.usart1   0x200001ec       0x94 e:\drone_parachute\build\core\core.a(usart_f1.c.o)
 .data.usart2   0x20000280       0x94 e:\drone_parachute\build\core\core.a(usart_f1.c.o)
 .data.usart3   0x20000314       0x94 e:\drone_parachute\build\core\core.a(usart_f1.c.o)
 .data.USBLIB   0x200003a8        0x4 e:\drone_parachute\build\core\core.a(usb.c.o)
                0x200003a8                USBLIB
 .data.usblib   0x200003ac       0x10 e:\drone_parachute\build\core\core.a(usb.c.o)
 .data.Config_Descriptor
                0x200003bc        0x8 e:\drone_parachute\build\core\core.a(usb_cdcacm.c.o)
 .data.Device_Property
                0x200003c4       0x30 e:\drone_parachute\build\core\core.a(usb_cdcacm.c.o)
                0x200003c4                Device_Property
 .data.String_Descriptor
                0x200003f4       0x18 e:\drone_parachute\build\core\core.a(usb_cdcacm.c.o)
 .data.line_coding
                0x2000040c        0x7 e:\drone_parachute\build\core\core.a(usb_cdcacm.c.o)
 *fill*         0x20000413        0x1 
 .data.Device_Descriptor
                0x20000414        0x8 e:\drone_parachute\build\core\core.a(usb_cdcacm.c.o)
 .data.Device_Table
                0x2000041c        0x2 e:\drone_parachute\build\core\core.a(usb_cdcacm.c.o)
                0x2000041c                Device_Table
 .data.__fdlib_version
                0x2000041e        0x1 c:/users/param/appdata/local/arduino15/packages/arduino/tools/arm-none-eabi-gcc/4.8.3-2014q1/bin/../lib/gcc/arm-none-eabi/4.8.3/../../../../arm-none-eabi/lib/armv7-m\libm.a(lib_a-s_lib_ver.o)
                0x2000041e                __fdlib_version
 *fill*         0x2000041f        0x1 
 .data.impure_data
                0x20000420      0x428 c:/users/param/appdata/local/arduino15/packages/arduino/tools/arm-none-eabi-gcc/4.8.3-2014q1/bin/../lib/gcc/arm-none-eabi/4.8.3/../../../../arm-none-eabi/lib/armv7-m\libc.a(lib_a-impure.o)
 .data._impure_ptr
                0x20000848        0x4 c:/users/param/appdata/local/arduino15/packages/arduino/tools/arm-none-eabi-gcc/4.8.3-2014q1/bin/../lib/gcc/arm-none-eabi/4.8.3/../../../../arm-none-eabi/lib/armv7-m\libc.a(lib_a-impure.o)
                0x20000848                _impure_ptr
                0x20000850                . = ALIGN (0x8)
 *fill*         0x2000084c        0x4 
                0x20000850                __data_end__ = .

.jcr            0x20000850        0x0 load address 0x08006d30
 .jcr           0x20000850        0x0 c:/users/param/appdata/local/arduino15/packages/arduino/tools/arm-none-eabi-gcc/4.8.3-2014q1/bin/../lib/gcc/arm-none-eabi/4.8.3/armv7-m/crtbegin.o

.igot.plt       0x20000850        0x0 load address 0x08006d30
 .igot.plt      0x00000000        0x0 c:/users/param/appdata/local/arduino15/packages/arduino/tools/arm-none-eabi-gcc/4.8.3-2014q1/bin/../lib/gcc/arm-none-eabi/4.8.3/armv7-m/crtbegin.o

.rodata         0x08006d30      0x3b8
 *(.rodata .rodata.* .gnu.linkonce.r.*)
 .rodata.str1.1
                0x08006d30        0x2 e:\drone_parachute\build\sketch\main.ino.cpp.o
 *fill*         0x08006d32        0x6 
 .rodata._ZTV7TwoWire
                0x08006d38       0x18 e:\drone_parachute\build\libraries\Wire\Wire.cpp.o
                0x08006d38                vtable for TwoWire
 .rodata._ZTV8WireBase
                0x08006d50       0x18 e:\drone_parachute\build\libraries\Wire\utility\WireBase.cpp.o
                0x08006d50                vtable for WireBase
 .rodata.PIN_MAP
                0x08006d68      0x230 e:\drone_parachute\build\core\board.cpp.o
                0x08006d68                PIN_MAP
 .rodata._ZTV14HardwareSerial
                0x08006f98       0x28 e:\drone_parachute\build\core\core.a(HardwareSerial.cpp.o)
                0x08006f98                vtable for HardwareSerial
 .rodata.str1.1
                0x08006fc0       0x11 e:\drone_parachute\build\core\core.a(Print.cpp.o)
 *fill*         0x08006fd1        0x3 
 .rodata.GPIOC  0x08006fd4        0x4 e:\drone_parachute\build\core\core.a(gpio_f1.c.o)
                0x08006fd4                GPIOC
 .rodata.I2C1   0x08006fd8        0x4 e:\drone_parachute\build\core\core.a(i2c_f1.c.o)
                0x08006fd8                I2C1
 .rodata.rcc_dev_table
                0x08006fdc       0x5c e:\drone_parachute\build\core\core.a(rcc_f1.c.o)
                0x08006fdc                rcc_dev_table
 .rodata.masks.4420
                0x08007038       0x14 e:\drone_parachute\build\core\core.a(rcc_f1.c.o)
 .rodata.usbVcomDescriptor_iProduct
                0x0800704c        0xc e:\drone_parachute\build\core\core.a(usb_cdcacm.c.o)
 .rodata.usbVcomDescriptor_iManufacturer
                0x08007058       0x12 e:\drone_parachute\build\core\core.a(usb_cdcacm.c.o)
 .rodata.usbVcomDescriptor_Device
                0x0800706a       0x12 e:\drone_parachute\build\core\core.a(usb_cdcacm.c.o)
 .rodata.usbVcomDescriptor_Config
                0x0800707c       0x43 e:\drone_parachute\build\core\core.a(usb_cdcacm.c.o)
 .rodata.usbVcomDescriptor_LangID
                0x080070bf        0x4 e:\drone_parachute\build\core\core.a(usb_cdcacm.c.o)
 *fill*         0x080070c3        0x1 
 .rodata.str1.4
                0x080070c4        0x5 c:/users/param/appdata/local/arduino15/packages/arduino/tools/arm-none-eabi-gcc/4.8.3-2014q1/bin/../lib/gcc/arm-none-eabi/4.8.3/../../../../arm-none-eabi/lib/armv7-m\libm.a(lib_a-w_sqrt.o)
                                  0x8 (size before relaxing)
 *fill*         0x080070c9        0x3 
 .rodata.str1.4
                0x080070cc        0x4 c:/users/param/appdata/local/arduino15/packages/arduino/tools/arm-none-eabi-gcc/4.8.3-2014q1/bin/../lib/gcc/arm-none-eabi/4.8.3/../../../../arm-none-eabi/lib/armv7-m\libc.a(lib_a-impure.o)
 .rodata._global_impure_ptr
                0x080070d0        0x4 c:/users/param/appdata/local/arduino15/packages/arduino/tools/arm-none-eabi-gcc/4.8.3-2014q1/bin/../lib/gcc/arm-none-eabi/4.8.3/../../../../arm-none-eabi/lib/armv7-m\libc.a(lib_a-impure.o)
                0x080070d0                _global_impure_ptr
 *(.USER_FLASH)
 .USER_FLASH    0x080070d4       0x10 e:\drone_parachute\build\libraries\SPI\SPI.cpp.o
                0x080070e4                . = ALIGN (0x4)
                0x080070e4                _lm_rom_img_cfgp = .
                0x080070e4        0x4 LONG 0x80064e0 LOADADDR (.data)
                0x20000cb0                _lm_heap_start = DEFINED (_lm_heap_start)?_lm_heap_start:_end
                0x20005000                _lm_heap_end = DEFINED (_lm_heap_end)?_lm_heap_end:__msp_init

.rel.dyn        0x080070e8        0x0
 .rel.iplt      0x00000000        0x0 c:/users/param/appdata/local/arduino15/packages/arduino/tools/arm-none-eabi-gcc/4.8.3-2014q1/bin/../lib/gcc/arm-none-eabi/4.8.3/armv7-m/crtbegin.o

.bss            0x20000850      0x460
                0x20000850                . = ALIGN (0x8)
                0x20000850                __bss_start__ = .
 *(.bss .bss.* .gnu.linkonce.b.*)
 .bss           0x20000850       0x1c c:/users/param/appdata/local/arduino15/packages/arduino/tools/arm-none-eabi-gcc/4.8.3-2014q1/bin/../lib/gcc/arm-none-eabi/4.8.3/armv7-m/crtbegin.o
 .bss.FREEFALL_MAYDAY
                0x2000086c        0x1 e:\drone_parachute\build\sketch\main.ino.cpp.o
                0x2000086c                FREEFALL_MAYDAY
 *fill*         0x2000086d        0x3 
 .bss._ZL8az_ffall
                0x20000870        0x4 e:\drone_parachute\build\sketch\main.ino.cpp.o
 .bss._ZL19container_lid_servo
                0x20000874        0xa e:\drone_parachute\build\sketch\main.ino.cpp.o
 .bss.BATTERY_MAYDAY
                0x2000087e        0x1 e:\drone_parachute\build\sketch\main.ino.cpp.o
                0x2000087e                BATTERY_MAYDAY
 *fill*         0x2000087f        0x1 
 .bss._ZL8ax_ffall
                0x20000880        0x4 e:\drone_parachute\build\sketch\main.ino.cpp.o
 .bss._ZL21main_battery_volt_est
                0x20000884        0x4 e:\drone_parachute\build\sketch\main.ino.cpp.o
 .bss._ZL9a_net_gnd
                0x20000888        0x4 e:\drone_parachute\build\sketch\main.ino.cpp.o
 *fill*         0x2000088c        0x4 
 .bss._ZL3IMU   0x20000890      0x1d0 e:\drone_parachute\build\sketch\main.ino.cpp.o
 .bss._ZL8ay_ffall
                0x20000a60        0x4 e:\drone_parachute\build\sketch\main.ino.cpp.o
 .bss._ZL23backup_battery_volt_est
                0x20000a64        0x4 e:\drone_parachute\build\sketch\main.ino.cpp.o
 .bss._ZL3pos   0x20000a68        0x4 e:\drone_parachute\build\sketch\main.ino.cpp.o
 .bss._ZL6status
                0x20000a6c        0x4 e:\drone_parachute\build\sketch\main.ino.cpp.o
 .bss.Wire      0x20000a70       0x60 e:\drone_parachute\build\libraries\Wire\Wire.cpp.o
                0x20000a70                Wire
 .bss._ZL10_spi2_this
                0x20000ad0        0x4 e:\drone_parachute\build\libraries\SPI\SPI.cpp.o
 .bss._ZL10_spi1_this
                0x20000ad4        0x4 e:\drone_parachute\build\libraries\SPI\SPI.cpp.o
 .bss.SPI       0x20000ad8       0x4c e:\drone_parachute\build\libraries\SPI\SPI.cpp.o
                0x20000ad8                SPI
 .bss.Serial1   0x20000b24       0x18 e:\drone_parachute\build\core\board.cpp.o
                0x20000b24                Serial1
 .bss.Serial2   0x20000b3c       0x18 e:\drone_parachute\build\core\board.cpp.o
                0x20000b3c                Serial2
 .bss.Serial3   0x20000b54       0x18 e:\drone_parachute\build\core\board.cpp.o
                0x20000b54                Serial3
 .bss.Timer1    0x20000b6c        0x4 e:\drone_parachute\build\core\core.a(HardwareTimer.cpp.o)
                0x20000b6c                Timer1
 .bss.Timer2    0x20000b70        0x4 e:\drone_parachute\build\core\core.a(HardwareTimer.cpp.o)
                0x20000b70                Timer2
 .bss.Timer3    0x20000b74        0x4 e:\drone_parachute\build\core\core.a(HardwareTimer.cpp.o)
                0x20000b74                Timer3
 .bss.Timer4    0x20000b78        0x4 e:\drone_parachute\build\core\core.a(HardwareTimer.cpp.o)
                0x20000b78                Timer4
 .bss._ZL7this_id
                0x20000b7c        0x1 e:\drone_parachute\build\core\core.a(HardwareTimer.cpp.o)
 *fill*         0x20000b7d        0x3 
 .bss._ZL9this_devp
                0x20000b80        0x4 e:\drone_parachute\build\core\core.a(HardwareTimer.cpp.o)
 .bss.exti_channels
                0x20000b84       0x80 e:\drone_parachute\build\core\core.a(exti.c.o)
                0x20000b84                exti_channels
 .bss.systick_user_callback
                0x20000c04        0x4 e:\drone_parachute\build\core\core.a(systick.c.o)
 .bss.usart1_wb
                0x20000c08        0xc e:\drone_parachute\build\core\core.a(usart_f1.c.o)
 .bss.usart1_rb
                0x20000c14        0xc e:\drone_parachute\build\core\core.a(usart_f1.c.o)
 .bss.usart2_rb
                0x20000c20        0xc e:\drone_parachute\build\core\core.a(usart_f1.c.o)
 .bss.usart3_rb
                0x20000c2c        0xc e:\drone_parachute\build\core\core.a(usart_f1.c.o)
 .bss.usart2_wb
                0x20000c38        0xc e:\drone_parachute\build\core\core.a(usart_f1.c.o)
 .bss.usart3_wb
                0x20000c44        0xc e:\drone_parachute\build\core\core.a(usart_f1.c.o)
 .bss.line_dtr_rts
                0x20000c50        0x1 e:\drone_parachute\build\core\core.a(usb_cdcacm.c.o)
 *fill*         0x20000c51        0x3 
 .bss.tx_head   0x20000c54        0x4 e:\drone_parachute\build\core\core.a(usb_cdcacm.c.o)
 .bss.transmitting
                0x20000c58        0x1 e:\drone_parachute\build\core\core.a(usb_cdcacm.c.o)
 *fill*         0x20000c59        0x3 
 .bss.rx_tail   0x20000c5c        0x4 e:\drone_parachute\build\core\core.a(usb_cdcacm.c.o)
 .bss.iface_setup_hook
                0x20000c60        0x4 e:\drone_parachute\build\core\core.a(usb_cdcacm.c.o)
 .bss.rx_head   0x20000c64        0x4 e:\drone_parachute\build\core\core.a(usb_cdcacm.c.o)
 .bss.tx_tail   0x20000c68        0x4 e:\drone_parachute\build\core\core.a(usb_cdcacm.c.o)
 .bss.Data_Mul_MaxPacketSize
                0x20000c6c        0x1 e:\drone_parachute\build\core\core.a(usb_core.c.o)
                0x20000c6c                Data_Mul_MaxPacketSize
 *(COMMON)
 *fill*         0x20000c6d        0x3 
 COMMON         0x20000c70        0x4 e:\drone_parachute\build\core\core.a(systick.c.o)
                0x20000c70                systick_uptime_millis
 COMMON         0x20000c74        0x6 e:\drone_parachute\build\core\core.a(usb.c.o)
                0x20000c74                SaveRState
                0x20000c76                SaveTState
                0x20000c78                ResumeS
 COMMON         0x20000c7a        0x2 e:\drone_parachute\build\core\core.a(usb_core.c.o)
                0x20000c7a                StatusInfo
 COMMON         0x20000c7c       0x32 e:\drone_parachute\build\core\core.a(usb_init.c.o)
                0x20000c7c                SaveState
                0x20000c80                pProperty
                0x20000c84                EPindex
                0x20000c88                Device_Info
                0x20000ca4                pUser_Standard_Requests
                0x20000ca8                pInformation
                0x20000cac                wInterrupt_Mask
                0x20000cb0                . = ALIGN (0x8)
 *fill*         0x20000cae        0x2 
                0x20000cb0                __bss_end__ = .
                0x20000cb0                _end = __bss_end__

.stab
 *(.stab)

.stabstr
 *(.stabstr)

.debug
 *(.debug)

.line
 *(.line)

.debug_srcinfo
 *(.debug_srcinfo)

.debug_sfnames
 *(.debug_sfnames)

.debug_aranges  0x00000000     0x1668
 *(.debug_aranges)
 .debug_aranges
                0x00000000       0x98 e:\drone_parachute\build\sketch\main.ino.cpp.o
 .debug_aranges
                0x00000098      0x228 e:\drone_parachute\build\libraries\Bolder_Flight_Systems_MPU9250\MPU9250.cpp.o
 .debug_aranges
                0x000002c0       0xa0 e:\drone_parachute\build\libraries\Wire\SoftWire.cpp.o
 .debug_aranges
                0x00000360       0x68 e:\drone_parachute\build\libraries\Wire\Wire.cpp.o
 .debug_aranges
                0x000003c8       0x88 e:\drone_parachute\build\libraries\Wire\utility\WireBase.cpp.o
 .debug_aranges
                0x00000450      0x190 e:\drone_parachute\build\libraries\SPI\SPI.cpp.o
 .debug_aranges
                0x000005e0       0x58 e:\drone_parachute\build\libraries\Servo\Servo.cpp.o
 .debug_aranges
                0x00000638       0x28 e:\drone_parachute\build\core\board.cpp.o
 .debug_aranges
                0x00000660       0x40 e:\drone_parachute\build\core\wirish\boards.cpp.o
 .debug_aranges
                0x000006a0       0x40 e:\drone_parachute\build\core\wirish\boards_setup.cpp.o
 .debug_aranges
                0x000006e0       0x20 e:\drone_parachute\build\core\wirish\start.S.o
 .debug_aranges
                0x00000700       0x20 e:\drone_parachute\build\core\wirish\start_c.c.o
 .debug_aranges
                0x00000720       0x88 e:\drone_parachute\build\core\wirish\syscalls.c.o
 .debug_aranges
                0x000007a8       0x70 e:\drone_parachute\build\core\core.a(HardwareSerial.cpp.o)
 .debug_aranges
                0x00000818       0xc0 e:\drone_parachute\build\core\core.a(HardwareTimer.cpp.o)
 .debug_aranges
                0x000008d8      0x110 e:\drone_parachute\build\core\core.a(Print.cpp.o)
 .debug_aranges
                0x000009e8       0x28 e:\drone_parachute\build\core\core.a(cxxabi-compat.cpp.o)
 .debug_aranges
                0x00000a10       0x38 e:\drone_parachute\build\core\core.a(adc.c.o)
 .debug_aranges
                0x00000a48       0x58 e:\drone_parachute\build\core\core.a(adc_f1.c.o)
 .debug_aranges
                0x00000aa0       0x28 e:\drone_parachute\build\core\core.a(dma.c.o)
 .debug_aranges
                0x00000ac8       0xb0 e:\drone_parachute\build\core\core.a(dma_f1.c.o)
 .debug_aranges
                0x00000b78       0x20 e:\drone_parachute\build\core\core.a(exc.S.o)
 .debug_aranges
                0x00000b98       0x80 e:\drone_parachute\build\core\core.a(exti.c.o)
 .debug_aranges
                0x00000c18       0x20 e:\drone_parachute\build\core\core.a(exti_f1.c.o)
 .debug_aranges
                0x00000c38       0x20 e:\drone_parachute\build\core\core.a(flash.c.o)
 .debug_aranges
                0x00000c58       0x40 e:\drone_parachute\build\core\core.a(gpio_f1.c.o)
 .debug_aranges
                0x00000c98       0x88 e:\drone_parachute\build\core\core.a(i2c.c.o)
 .debug_aranges
                0x00000d20       0x50 e:\drone_parachute\build\core\core.a(i2c_f1.c.o)
 .debug_aranges
                0x00000d70       0x38 e:\drone_parachute\build\core\core.a(nvic.c.o)
 .debug_aranges
                0x00000da8       0x48 e:\drone_parachute\build\core\core.a(rcc.c.o)
 .debug_aranges
                0x00000df0       0x48 e:\drone_parachute\build\core\core.a(rcc_f1.c.o)
 .debug_aranges
                0x00000e38       0x78 e:\drone_parachute\build\core\core.a(spi.c.o)
 .debug_aranges
                0x00000eb0       0x28 e:\drone_parachute\build\core\core.a(spi_f1.c.o)
 .debug_aranges
                0x00000ed8       0x20 e:\drone_parachute\build\core\core.a(isrs.S.o)
 .debug_aranges
                0x00000ef8       0x40 e:\drone_parachute\build\core\core.a(systick.c.o)
 .debug_aranges
                0x00000f38       0xb0 e:\drone_parachute\build\core\core.a(timer.c.o)
 .debug_aranges
                0x00000fe8       0x48 e:\drone_parachute\build\core\core.a(usart.c.o)
 .debug_aranges
                0x00001030       0x50 e:\drone_parachute\build\core\core.a(usart_f1.c.o)
 .debug_aranges
                0x00001080       0x20 e:\drone_parachute\build\core\core.a(usart_private.c.o)
 .debug_aranges
                0x000010a0       0x38 e:\drone_parachute\build\core\core.a(usb.c.o)
 .debug_aranges
                0x000010d8      0x128 e:\drone_parachute\build\core\core.a(usb_cdcacm.c.o)
 .debug_aranges
                0x00001200       0x20 e:\drone_parachute\build\core\core.a(usb_reg_map.c.o)
 .debug_aranges
                0x00001220       0x98 e:\drone_parachute\build\core\core.a(usb_core.c.o)
 .debug_aranges
                0x000012b8       0x20 e:\drone_parachute\build\core\core.a(usb_init.c.o)
 .debug_aranges
                0x000012d8       0x28 e:\drone_parachute\build\core\core.a(usb_mem.c.o)
 .debug_aranges
                0x00001300      0x1f0 e:\drone_parachute\build\core\core.a(usb_regs.c.o)
 .debug_aranges
                0x000014f0       0x50 e:\drone_parachute\build\core\core.a(util.c.o)
 .debug_aranges
                0x00001540       0x28 e:\drone_parachute\build\core\core.a(main.cpp.o)
 .debug_aranges
                0x00001568       0x28 e:\drone_parachute\build\core\core.a(pwm.cpp.o)
 .debug_aranges
                0x00001590       0x20 e:\drone_parachute\build\core\core.a(wirish_digital_f1.cpp.o)
 .debug_aranges
                0x000015b0       0x20 e:\drone_parachute\build\core\core.a(wirish_analog.cpp.o)
 .debug_aranges
                0x000015d0       0x28 e:\drone_parachute\build\core\core.a(wirish_digital.cpp.o)
 .debug_aranges
                0x000015f8       0x30 e:\drone_parachute\build\core\core.a(wirish_time.cpp.o)
 .debug_aranges
                0x00001628       0x20 e:\drone_parachute\build\core\core.a(hooks.c.o)
 .debug_aranges
                0x00001648       0x20 e:\drone_parachute\build\core\core.a(gpio.c.o)

.debug_pubnames
 *(.debug_pubnames)

.debug_info     0x00000000    0x3105f
 *(.debug_info .gnu.linkonce.wi.*)
 .debug_info    0x00000000     0x3d9e e:\drone_parachute\build\sketch\main.ino.cpp.o
 .debug_info    0x00003d9e     0x4968 e:\drone_parachute\build\libraries\Bolder_Flight_Systems_MPU9250\MPU9250.cpp.o
 .debug_info    0x00008706     0x1980 e:\drone_parachute\build\libraries\Wire\SoftWire.cpp.o
 .debug_info    0x0000a086      0xd87 e:\drone_parachute\build\libraries\Wire\Wire.cpp.o
 .debug_info    0x0000ae0d      0xf2c e:\drone_parachute\build\libraries\Wire\utility\WireBase.cpp.o
 .debug_info    0x0000bd39     0x3533 e:\drone_parachute\build\libraries\SPI\SPI.cpp.o
 .debug_info    0x0000f26c     0x1362 e:\drone_parachute\build\libraries\Servo\Servo.cpp.o
 .debug_info    0x000105ce      0xf2e e:\drone_parachute\build\core\board.cpp.o
 .debug_info    0x000114fc     0x142d e:\drone_parachute\build\core\wirish\boards.cpp.o
 .debug_info    0x00012929      0x665 e:\drone_parachute\build\core\wirish\boards_setup.cpp.o
 .debug_info    0x00012f8e       0xf8 e:\drone_parachute\build\core\wirish\start.S.o
 .debug_info    0x00013086      0x14d e:\drone_parachute\build\core\wirish\start_c.c.o
 .debug_info    0x000131d3      0x5cd e:\drone_parachute\build\core\wirish\syscalls.c.o
 .debug_info    0x000137a0     0x29ea e:\drone_parachute\build\core\core.a(HardwareSerial.cpp.o)
 .debug_info    0x0001618a     0x1cbe e:\drone_parachute\build\core\core.a(HardwareTimer.cpp.o)
 .debug_info    0x00017e48     0x258c e:\drone_parachute\build\core\core.a(Print.cpp.o)
 .debug_info    0x0001a3d4      0x526 e:\drone_parachute\build\core\core.a(cxxabi-compat.cpp.o)
 .debug_info    0x0001a8fa      0x79a e:\drone_parachute\build\core\core.a(adc.c.o)
 .debug_info    0x0001b094      0xe4a e:\drone_parachute\build\core\core.a(adc_f1.c.o)
 .debug_info    0x0001bede      0x6f7 e:\drone_parachute\build\core\core.a(dma.c.o)
 .debug_info    0x0001c5d5     0x183f e:\drone_parachute\build\core\core.a(dma_f1.c.o)
 .debug_info    0x0001de14       0xe8 e:\drone_parachute\build\core\core.a(exc.S.o)
 .debug_info    0x0001defc      0xd3c e:\drone_parachute\build\core\core.a(exti.c.o)
 .debug_info    0x0001ec38      0x213 e:\drone_parachute\build\core\core.a(exti_f1.c.o)
 .debug_info    0x0001ee4b      0x128 e:\drone_parachute\build\core\core.a(flash.c.o)
 .debug_info    0x0001ef73      0x6d6 e:\drone_parachute\build\core\core.a(gpio_f1.c.o)
 .debug_info    0x0001f649     0x1ab8 e:\drone_parachute\build\core\core.a(i2c.c.o)
 .debug_info    0x00021101      0xc25 e:\drone_parachute\build\core\core.a(i2c_f1.c.o)
 .debug_info    0x00021d26      0x5a2 e:\drone_parachute\build\core\core.a(nvic.c.o)
 .debug_info    0x000222c8      0x556 e:\drone_parachute\build\core\core.a(rcc.c.o)
 .debug_info    0x0002281e      0xb64 e:\drone_parachute\build\core\core.a(rcc_f1.c.o)
 .debug_info    0x00023382      0xa88 e:\drone_parachute\build\core\core.a(spi.c.o)
 .debug_info    0x00023e0a      0x794 e:\drone_parachute\build\core\core.a(spi_f1.c.o)
 .debug_info    0x0002459e       0xfd e:\drone_parachute\build\core\core.a(isrs.S.o)
 .debug_info    0x0002469b      0x182 e:\drone_parachute\build\core\core.a(systick.c.o)
 .debug_info    0x0002481d     0x197d e:\drone_parachute\build\core\core.a(timer.c.o)
 .debug_info    0x0002619a      0xc32 e:\drone_parachute\build\core\core.a(usart.c.o)
 .debug_info    0x00026dcc      0xb89 e:\drone_parachute\build\core\core.a(usart_f1.c.o)
 .debug_info    0x00027955      0x595 e:\drone_parachute\build\core\core.a(usart_private.c.o)
 .debug_info    0x00027eea      0xd16 e:\drone_parachute\build\core\core.a(usb.c.o)
 .debug_info    0x00028c00     0x22d2 e:\drone_parachute\build\core\core.a(usb_cdcacm.c.o)
 .debug_info    0x0002aed2      0x26c e:\drone_parachute\build\core\core.a(usb_reg_map.c.o)
 .debug_info    0x0002b13e      0xddf e:\drone_parachute\build\core\core.a(usb_core.c.o)
 .debug_info    0x0002bf1d      0x3ed e:\drone_parachute\build\core\core.a(usb_init.c.o)
 .debug_info    0x0002c30a      0x183 e:\drone_parachute\build\core\core.a(usb_mem.c.o)
 .debug_info    0x0002c48d      0xc88 e:\drone_parachute\build\core\core.a(usb_regs.c.o)
 .debug_info    0x0002d115      0xad2 e:\drone_parachute\build\core\core.a(util.c.o)
 .debug_info    0x0002dbe7       0x99 e:\drone_parachute\build\core\core.a(main.cpp.o)
 .debug_info    0x0002dc80      0xbc0 e:\drone_parachute\build\core\core.a(pwm.cpp.o)
 .debug_info    0x0002e840      0xc8a e:\drone_parachute\build\core\core.a(wirish_digital_f1.cpp.o)
 .debug_info    0x0002f4ca      0xa7e e:\drone_parachute\build\core\core.a(wirish_analog.cpp.o)
 .debug_info    0x0002ff48      0xb0b e:\drone_parachute\build\core\core.a(wirish_digital.cpp.o)
 .debug_info    0x00030a53      0x2c6 e:\drone_parachute\build\core\core.a(wirish_time.cpp.o)
 .debug_info    0x00030d19       0x33 e:\drone_parachute\build\core\core.a(hooks.c.o)
 .debug_info    0x00030d4c      0x313 e:\drone_parachute\build\core\core.a(gpio.c.o)

.debug_abbrev   0x00000000     0x83e8
 *(.debug_abbrev)
 .debug_abbrev  0x00000000      0x577 e:\drone_parachute\build\sketch\main.ino.cpp.o
 .debug_abbrev  0x00000577      0x58f e:\drone_parachute\build\libraries\Bolder_Flight_Systems_MPU9250\MPU9250.cpp.o
 .debug_abbrev  0x00000b06      0x426 e:\drone_parachute\build\libraries\Wire\SoftWire.cpp.o
 .debug_abbrev  0x00000f2c      0x3ac e:\drone_parachute\build\libraries\Wire\Wire.cpp.o
 .debug_abbrev  0x000012d8      0x320 e:\drone_parachute\build\libraries\Wire\utility\WireBase.cpp.o
 .debug_abbrev  0x000015f8      0x690 e:\drone_parachute\build\libraries\SPI\SPI.cpp.o
 .debug_abbrev  0x00001c88      0x3c5 e:\drone_parachute\build\libraries\Servo\Servo.cpp.o
 .debug_abbrev  0x0000204d      0x1ea e:\drone_parachute\build\core\board.cpp.o
 .debug_abbrev  0x00002237      0x3dd e:\drone_parachute\build\core\wirish\boards.cpp.o
 .debug_abbrev  0x00002614      0x196 e:\drone_parachute\build\core\wirish\boards_setup.cpp.o
 .debug_abbrev  0x000027aa       0x14 e:\drone_parachute\build\core\wirish\start.S.o
 .debug_abbrev  0x000027be       0xfd e:\drone_parachute\build\core\wirish\start_c.c.o
 .debug_abbrev  0x000028bb      0x17e e:\drone_parachute\build\core\wirish\syscalls.c.o
 .debug_abbrev  0x00002a39      0x535 e:\drone_parachute\build\core\core.a(HardwareSerial.cpp.o)
 .debug_abbrev  0x00002f6e      0x454 e:\drone_parachute\build\core\core.a(HardwareTimer.cpp.o)
 .debug_abbrev  0x000033c2      0x414 e:\drone_parachute\build\core\core.a(Print.cpp.o)
 .debug_abbrev  0x000037d6      0x163 e:\drone_parachute\build\core\core.a(cxxabi-compat.cpp.o)
 .debug_abbrev  0x00003939      0x20b e:\drone_parachute\build\core\core.a(adc.c.o)
 .debug_abbrev  0x00003b44      0x2e6 e:\drone_parachute\build\core\core.a(adc_f1.c.o)
 .debug_abbrev  0x00003e2a      0x182 e:\drone_parachute\build\core\core.a(dma.c.o)
 .debug_abbrev  0x00003fac      0x3f8 e:\drone_parachute\build\core\core.a(dma_f1.c.o)
 .debug_abbrev  0x000043a4       0x14 e:\drone_parachute\build\core\core.a(exc.S.o)
 .debug_abbrev  0x000043b8      0x286 e:\drone_parachute\build\core\core.a(exti.c.o)
 .debug_abbrev  0x0000463e       0xdb e:\drone_parachute\build\core\core.a(exti_f1.c.o)
 .debug_abbrev  0x00004719       0x9f e:\drone_parachute\build\core\core.a(flash.c.o)
 .debug_abbrev  0x000047b8      0x191 e:\drone_parachute\build\core\core.a(gpio_f1.c.o)
 .debug_abbrev  0x00004949      0x42d e:\drone_parachute\build\core\core.a(i2c.c.o)
 .debug_abbrev  0x00004d76      0x20b e:\drone_parachute\build\core\core.a(i2c_f1.c.o)
 .debug_abbrev  0x00004f81      0x1ac e:\drone_parachute\build\core\core.a(nvic.c.o)
 .debug_abbrev  0x0000512d      0x17f e:\drone_parachute\build\core\core.a(rcc.c.o)
 .debug_abbrev  0x000052ac      0x28c e:\drone_parachute\build\core\core.a(rcc_f1.c.o)
 .debug_abbrev  0x00005538      0x2ad e:\drone_parachute\build\core\core.a(spi.c.o)
 .debug_abbrev  0x000057e5      0x152 e:\drone_parachute\build\core\core.a(spi_f1.c.o)
 .debug_abbrev  0x00005937       0x14 e:\drone_parachute\build\core\core.a(isrs.S.o)
 .debug_abbrev  0x0000594b      0x10f e:\drone_parachute\build\core\core.a(systick.c.o)
 .debug_abbrev  0x00005a5a      0x4c8 e:\drone_parachute\build\core\core.a(timer.c.o)
 .debug_abbrev  0x00005f22      0x2ff e:\drone_parachute\build\core\core.a(usart.c.o)
 .debug_abbrev  0x00006221      0x2ad e:\drone_parachute\build\core\core.a(usart_f1.c.o)
 .debug_abbrev  0x000064ce      0x144 e:\drone_parachute\build\core\core.a(usart_private.c.o)
 .debug_abbrev  0x00006612      0x352 e:\drone_parachute\build\core\core.a(usb.c.o)
 .debug_abbrev  0x00006964      0x47d e:\drone_parachute\build\core\core.a(usb_cdcacm.c.o)
 .debug_abbrev  0x00006de1      0x193 e:\drone_parachute\build\core\core.a(usb_reg_map.c.o)
 .debug_abbrev  0x00006f74      0x3a6 e:\drone_parachute\build\core\core.a(usb_core.c.o)
 .debug_abbrev  0x0000731a      0x101 e:\drone_parachute\build\core\core.a(usb_init.c.o)
 .debug_abbrev  0x0000741b       0xa6 e:\drone_parachute\build\core\core.a(usb_mem.c.o)
 .debug_abbrev  0x000074c1      0x1f3 e:\drone_parachute\build\core\core.a(usb_regs.c.o)
 .debug_abbrev  0x000076b4      0x2cb e:\drone_parachute\build\core\core.a(util.c.o)
 .debug_abbrev  0x0000797f       0x7b e:\drone_parachute\build\core\core.a(main.cpp.o)
 .debug_abbrev  0x000079fa      0x20f e:\drone_parachute\build\core\core.a(pwm.cpp.o)
 .debug_abbrev  0x00007c09      0x240 e:\drone_parachute\build\core\core.a(wirish_digital_f1.cpp.o)
 .debug_abbrev  0x00007e49      0x15f e:\drone_parachute\build\core\core.a(wirish_analog.cpp.o)
 .debug_abbrev  0x00007fa8      0x17e e:\drone_parachute\build\core\core.a(wirish_digital.cpp.o)
 .debug_abbrev  0x00008126      0x189 e:\drone_parachute\build\core\core.a(wirish_time.cpp.o)
 .debug_abbrev  0x000082af       0x26 e:\drone_parachute\build\core\core.a(hooks.c.o)
 .debug_abbrev  0x000082d5      0x113 e:\drone_parachute\build\core\core.a(gpio.c.o)

.debug_line     0x00000000     0xec96
 *(.debug_line)
 .debug_line    0x00000000      0x907 e:\drone_parachute\build\sketch\main.ino.cpp.o
 .debug_line    0x00000907      0xf7b e:\drone_parachute\build\libraries\Bolder_Flight_Systems_MPU9250\MPU9250.cpp.o
 .debug_line    0x00001882      0x6df e:\drone_parachute\build\libraries\Wire\SoftWire.cpp.o
 .debug_line    0x00001f61      0x509 e:\drone_parachute\build\libraries\Wire\Wire.cpp.o
 .debug_line    0x0000246a      0x5d2 e:\drone_parachute\build\libraries\Wire\utility\WireBase.cpp.o
 .debug_line    0x00002a3c      0xc9d e:\drone_parachute\build\libraries\SPI\SPI.cpp.o
 .debug_line    0x000036d9      0x520 e:\drone_parachute\build\libraries\Servo\Servo.cpp.o
 .debug_line    0x00003bf9      0x45d e:\drone_parachute\build\core\board.cpp.o
 .debug_line    0x00004056      0x4d3 e:\drone_parachute\build\core\wirish\boards.cpp.o
 .debug_line    0x00004529      0x3c2 e:\drone_parachute\build\core\wirish\boards_setup.cpp.o
 .debug_line    0x000048eb       0xb6 e:\drone_parachute\build\core\wirish\start.S.o
 .debug_line    0x000049a1       0xc4 e:\drone_parachute\build\core\wirish\start_c.c.o
 .debug_line    0x00004a65      0x30c e:\drone_parachute\build\core\wirish\syscalls.c.o
 .debug_line    0x00004d71      0x560 e:\drone_parachute\build\core\core.a(HardwareSerial.cpp.o)
 .debug_line    0x000052d1      0x598 e:\drone_parachute\build\core\core.a(HardwareTimer.cpp.o)
 .debug_line    0x00005869      0x5cc e:\drone_parachute\build\core\core.a(Print.cpp.o)
 .debug_line    0x00005e35      0x26e e:\drone_parachute\build\core\core.a(cxxabi-compat.cpp.o)
 .debug_line    0x000060a3      0x348 e:\drone_parachute\build\core\core.a(adc.c.o)
 .debug_line    0x000063eb      0x3f4 e:\drone_parachute\build\core\core.a(adc_f1.c.o)
 .debug_line    0x000067df      0x396 e:\drone_parachute\build\core\core.a(dma.c.o)
 .debug_line    0x00006b75      0x659 e:\drone_parachute\build\core\core.a(dma_f1.c.o)
 .debug_line    0x000071ce       0xb9 e:\drone_parachute\build\core\core.a(exc.S.o)
 .debug_line    0x00007287      0x421 e:\drone_parachute\build\core\core.a(exti.c.o)
 .debug_line    0x000076a8      0x34c e:\drone_parachute\build\core\core.a(exti_f1.c.o)
 .debug_line    0x000079f4      0x2ca e:\drone_parachute\build\core\core.a(flash.c.o)
 .debug_line    0x00007cbe      0x35f e:\drone_parachute\build\core\core.a(gpio_f1.c.o)
 .debug_line    0x0000801d      0x90e e:\drone_parachute\build\core\core.a(i2c.c.o)
 .debug_line    0x0000892b      0x459 e:\drone_parachute\build\core\core.a(i2c_f1.c.o)
 .debug_line    0x00008d84      0x332 e:\drone_parachute\build\core\core.a(nvic.c.o)
 .debug_line    0x000090b6      0x3cd e:\drone_parachute\build\core\core.a(rcc.c.o)
 .debug_line    0x00009483      0x41a e:\drone_parachute\build\core\core.a(rcc_f1.c.o)
 .debug_line    0x0000989d      0x403 e:\drone_parachute\build\core\core.a(spi.c.o)
 .debug_line    0x00009ca0      0x316 e:\drone_parachute\build\core\core.a(spi_f1.c.o)
 .debug_line    0x00009fb6       0xb6 e:\drone_parachute\build\core\core.a(isrs.S.o)
 .debug_line    0x0000a06c      0x29a e:\drone_parachute\build\core\core.a(systick.c.o)
 .debug_line    0x0000a306      0x62d e:\drone_parachute\build\core\core.a(timer.c.o)
 .debug_line    0x0000a933      0x460 e:\drone_parachute\build\core\core.a(usart.c.o)
 .debug_line    0x0000ad93      0x46a e:\drone_parachute\build\core\core.a(usart_f1.c.o)
 .debug_line    0x0000b1fd      0x306 e:\drone_parachute\build\core\core.a(usart_private.c.o)
 .debug_line    0x0000b503      0x542 e:\drone_parachute\build\core\core.a(usb.c.o)
 .debug_line    0x0000ba45      0x950 e:\drone_parachute\build\core\core.a(usb_cdcacm.c.o)
 .debug_line    0x0000c395      0x2fd e:\drone_parachute\build\core\core.a(usb_reg_map.c.o)
 .debug_line    0x0000c692      0x435 e:\drone_parachute\build\core\core.a(usb_core.c.o)
 .debug_line    0x0000cac7      0x14a e:\drone_parachute\build\core\core.a(usb_init.c.o)
 .debug_line    0x0000cc11      0x184 e:\drone_parachute\build\core\core.a(usb_mem.c.o)
 .debug_line    0x0000cd95      0x5ae e:\drone_parachute\build\core\core.a(usb_regs.c.o)
 .debug_line    0x0000d343      0x3ce e:\drone_parachute\build\core\core.a(util.c.o)
 .debug_line    0x0000d711       0xb1 e:\drone_parachute\build\core\core.a(main.cpp.o)
 .debug_line    0x0000d7c2      0x347 e:\drone_parachute\build\core\core.a(pwm.cpp.o)
 .debug_line    0x0000db09      0x3fa e:\drone_parachute\build\core\core.a(wirish_digital_f1.cpp.o)
 .debug_line    0x0000df03      0x32e e:\drone_parachute\build\core\core.a(wirish_analog.cpp.o)
 .debug_line    0x0000e231      0x37c e:\drone_parachute\build\core\core.a(wirish_digital.cpp.o)
 .debug_line    0x0000e5ad      0x360 e:\drone_parachute\build\core\core.a(wirish_time.cpp.o)
 .debug_line    0x0000e90d       0x9a e:\drone_parachute\build\core\core.a(hooks.c.o)
 .debug_line    0x0000e9a7      0x2ef e:\drone_parachute\build\core\core.a(gpio.c.o)

.debug_frame    0x00000000     0x34c8
 *(.debug_frame)
 .debug_frame   0x00000000      0x18c e:\drone_parachute\build\sketch\main.ino.cpp.o
 .debug_frame   0x0000018c      0x5e0 e:\drone_parachute\build\libraries\Bolder_Flight_Systems_MPU9250\MPU9250.cpp.o
 .debug_frame   0x0000076c      0x1a8 e:\drone_parachute\build\libraries\Wire\SoftWire.cpp.o
 .debug_frame   0x00000914       0xe4 e:\drone_parachute\build\libraries\Wire\Wire.cpp.o
 .debug_frame   0x000009f8      0x120 e:\drone_parachute\build\libraries\Wire\utility\WireBase.cpp.o
 .debug_frame   0x00000b18      0x458 e:\drone_parachute\build\libraries\SPI\SPI.cpp.o
 .debug_frame   0x00000f70       0xd8 e:\drone_parachute\build\libraries\Servo\Servo.cpp.o
 .debug_frame   0x00001048       0x38 e:\drone_parachute\build\core\board.cpp.o
 .debug_frame   0x00001080       0x84 e:\drone_parachute\build\core\wirish\boards.cpp.o
 .debug_frame   0x00001104       0x68 e:\drone_parachute\build\core\wirish\boards_setup.cpp.o
 .debug_frame   0x0000116c       0x28 e:\drone_parachute\build\core\wirish\start_c.c.o
 .debug_frame   0x00001194      0x130 e:\drone_parachute\build\core\wirish\syscalls.c.o
 .debug_frame   0x000012c4      0x10c e:\drone_parachute\build\core\core.a(HardwareSerial.cpp.o)
 .debug_frame   0x000013d0      0x17c e:\drone_parachute\build\core\core.a(HardwareTimer.cpp.o)
 .debug_frame   0x0000154c      0x378 e:\drone_parachute\build\core\core.a(Print.cpp.o)
 .debug_frame   0x000018c4       0x38 e:\drone_parachute\build\core\core.a(cxxabi-compat.cpp.o)
 .debug_frame   0x000018fc       0x64 e:\drone_parachute\build\core\core.a(adc.c.o)
 .debug_frame   0x00001960       0xb4 e:\drone_parachute\build\core\core.a(adc_f1.c.o)
 .debug_frame   0x00001a14       0x30 e:\drone_parachute\build\core\core.a(dma.c.o)
 .debug_frame   0x00001a44      0x180 e:\drone_parachute\build\core\core.a(dma_f1.c.o)
 .debug_frame   0x00001bc4      0x11c e:\drone_parachute\build\core\core.a(exti.c.o)
 .debug_frame   0x00001ce0       0x20 e:\drone_parachute\build\core\core.a(exti_f1.c.o)
 .debug_frame   0x00001d00       0x20 e:\drone_parachute\build\core\core.a(flash.c.o)
 .debug_frame   0x00001d20       0x7c e:\drone_parachute\build\core\core.a(gpio_f1.c.o)
 .debug_frame   0x00001d9c      0x14c e:\drone_parachute\build\core\core.a(i2c.c.o)
 .debug_frame   0x00001ee8       0x94 e:\drone_parachute\build\core\core.a(i2c_f1.c.o)
 .debug_frame   0x00001f7c       0x5c e:\drone_parachute\build\core\core.a(nvic.c.o)
 .debug_frame   0x00001fd8       0x70 e:\drone_parachute\build\core\core.a(rcc.c.o)
 .debug_frame   0x00002048       0x98 e:\drone_parachute\build\core\core.a(rcc_f1.c.o)
 .debug_frame   0x000020e0       0xec e:\drone_parachute\build\core\core.a(spi.c.o)
 .debug_frame   0x000021cc       0x48 e:\drone_parachute\build\core\core.a(spi_f1.c.o)
 .debug_frame   0x00002214       0x68 e:\drone_parachute\build\core\core.a(systick.c.o)
 .debug_frame   0x0000227c      0x1c0 e:\drone_parachute\build\core\core.a(timer.c.o)
 .debug_frame   0x0000243c       0xb4 e:\drone_parachute\build\core\core.a(usart.c.o)
 .debug_frame   0x000024f0       0xac e:\drone_parachute\build\core\core.a(usart_f1.c.o)
 .debug_frame   0x0000259c       0x28 e:\drone_parachute\build\core\core.a(usart_private.c.o)
 .debug_frame   0x000025c4       0x6c e:\drone_parachute\build\core\core.a(usb.c.o)
 .debug_frame   0x00002630      0x2cc e:\drone_parachute\build\core\core.a(usb_cdcacm.c.o)
 .debug_frame   0x000028fc       0x20 e:\drone_parachute\build\core\core.a(usb_reg_map.c.o)
 .debug_frame   0x0000291c      0x1ac e:\drone_parachute\build\core\core.a(usb_core.c.o)
 .debug_frame   0x00002ac8       0x28 e:\drone_parachute\build\core\core.a(usb_init.c.o)
 .debug_frame   0x00002af0       0x4c e:\drone_parachute\build\core\core.a(usb_mem.c.o)
 .debug_frame   0x00002b3c      0x3d0 e:\drone_parachute\build\core\core.a(usb_regs.c.o)
 .debug_frame   0x00002f0c       0xc8 e:\drone_parachute\build\core\core.a(util.c.o)
 .debug_frame   0x00002fd4       0x38 e:\drone_parachute\build\core\core.a(main.cpp.o)
 .debug_frame   0x0000300c       0x3c e:\drone_parachute\build\core\core.a(pwm.cpp.o)
 .debug_frame   0x00003048       0x2c e:\drone_parachute\build\core\core.a(wirish_digital_f1.cpp.o)
 .debug_frame   0x00003074       0x20 e:\drone_parachute\build\core\core.a(wirish_analog.cpp.o)
 .debug_frame   0x00003094       0x30 e:\drone_parachute\build\core\core.a(wirish_digital.cpp.o)
 .debug_frame   0x000030c4       0x4c e:\drone_parachute\build\core\core.a(wirish_time.cpp.o)
 .debug_frame   0x00003110       0x20 e:\drone_parachute\build\core\core.a(hooks.c.o)
 .debug_frame   0x00003130       0x28 e:\drone_parachute\build\core\core.a(gpio.c.o)
 .debug_frame   0x00003158       0x38 c:/users/param/appdata/local/arduino15/packages/arduino/tools/arm-none-eabi-gcc/4.8.3-2014q1/bin/../lib/gcc/arm-none-eabi/4.8.3/../../../../arm-none-eabi/lib/armv7-m\libm.a(lib_a-w_sqrt.o)
 .debug_frame   0x00003190       0x34 c:/users/param/appdata/local/arduino15/packages/arduino/tools/arm-none-eabi-gcc/4.8.3-2014q1/bin/../lib/gcc/arm-none-eabi/4.8.3/../../../../arm-none-eabi/lib/armv7-m\libm.a(lib_a-e_sqrt.o)
 .debug_frame   0x000031c4       0x28 c:/users/param/appdata/local/arduino15/packages/arduino/tools/arm-none-eabi-gcc/4.8.3-2014q1/bin/../lib/gcc/arm-none-eabi/4.8.3/../../../../arm-none-eabi/lib/armv7-m\libm.a(lib_a-s_fpclassify.o)
 .debug_frame   0x000031ec       0x20 c:/users/param/appdata/local/arduino15/packages/arduino/tools/arm-none-eabi-gcc/4.8.3-2014q1/bin/../lib/gcc/arm-none-eabi/4.8.3/../../../../arm-none-eabi/lib/armv7-m\libm.a(lib_a-s_matherr.o)
 .debug_frame   0x0000320c       0x2c c:/users/param/appdata/local/arduino15/packages/arduino/tools/arm-none-eabi-gcc/4.8.3-2014q1/bin/../lib/gcc/arm-none-eabi/4.8.3/armv7-m\libgcc.a(_fixdfdi.o)
 .debug_frame   0x00003238       0x2c c:/users/param/appdata/local/arduino15/packages/arduino/tools/arm-none-eabi-gcc/4.8.3-2014q1/bin/../lib/gcc/arm-none-eabi/4.8.3/armv7-m\libgcc.a(_fixunsdfdi.o)
 .debug_frame   0x00003264       0x58 c:/users/param/appdata/local/arduino15/packages/arduino/tools/arm-none-eabi-gcc/4.8.3-2014q1/bin/../lib/gcc/arm-none-eabi/4.8.3/armv7-m\libgcc.a(bpabi.o)
 .debug_frame   0x000032bc       0x34 c:/users/param/appdata/local/arduino15/packages/arduino/tools/arm-none-eabi-gcc/4.8.3-2014q1/bin/../lib/gcc/arm-none-eabi/4.8.3/armv7-m\libgcc.a(_divdi3.o)
 .debug_frame   0x000032f0       0x34 c:/users/param/appdata/local/arduino15/packages/arduino/tools/arm-none-eabi-gcc/4.8.3-2014q1/bin/../lib/gcc/arm-none-eabi/4.8.3/armv7-m\libgcc.a(_udivdi3.o)
 .debug_frame   0x00003324       0x20 c:/users/param/appdata/local/arduino15/packages/arduino/tools/arm-none-eabi-gcc/4.8.3-2014q1/bin/../lib/gcc/arm-none-eabi/4.8.3/../../../../arm-none-eabi/lib/armv7-m\libc.a(lib_a-errno.o)
 .debug_frame   0x00003344       0x28 c:/users/param/appdata/local/arduino15/packages/arduino/tools/arm-none-eabi-gcc/4.8.3-2014q1/bin/../lib/gcc/arm-none-eabi/4.8.3/../../../../arm-none-eabi/lib/armv7-m\libc.a(lib_a-exit.o)
 .debug_frame   0x0000336c       0x2c c:/users/param/appdata/local/arduino15/packages/arduino/tools/arm-none-eabi-gcc/4.8.3-2014q1/bin/../lib/gcc/arm-none-eabi/4.8.3/../../../../arm-none-eabi/lib/armv7-m\libc.a(lib_a-init.o)
 .debug_frame   0x00003398       0x2c c:/users/param/appdata/local/arduino15/packages/arduino/tools/arm-none-eabi-gcc/4.8.3-2014q1/bin/../lib/gcc/arm-none-eabi/4.8.3/../../../../arm-none-eabi/lib/armv7-m\libc.a(lib_a-memset.o)
 .debug_frame   0x000033c4       0x20 c:/users/param/appdata/local/arduino15/packages/arduino/tools/arm-none-eabi-gcc/4.8.3-2014q1/bin/../lib/gcc/arm-none-eabi/4.8.3/../../../../arm-none-eabi/lib/armv7-m\libc.a(lib_a-strcpy.o)
 .debug_frame   0x000033e4       0x20 c:/users/param/appdata/local/arduino15/packages/arduino/tools/arm-none-eabi-gcc/4.8.3-2014q1/bin/../lib/gcc/arm-none-eabi/4.8.3/../../../../arm-none-eabi/lib/armv7-m\libc.a(lib_a-strlen.o)
 .debug_frame   0x00003404       0x48 c:/users/param/appdata/local/arduino15/packages/arduino/tools/arm-none-eabi-gcc/4.8.3-2014q1/bin/../lib/gcc/arm-none-eabi/4.8.3/../../../../arm-none-eabi/lib/armv7-m\libc.a(lib_a-__call_atexit.o)
 .debug_frame   0x0000344c       0x20 c:/users/param/appdata/local/arduino15/packages/arduino/tools/arm-none-eabi-gcc/4.8.3-2014q1/bin/../lib/gcc/arm-none-eabi/4.8.3/../../../../arm-none-eabi/lib/armv7-m\libc.a(lib_a-atexit.o)
 .debug_frame   0x0000346c       0x2c c:/users/param/appdata/local/arduino15/packages/arduino/tools/arm-none-eabi-gcc/4.8.3-2014q1/bin/../lib/gcc/arm-none-eabi/4.8.3/../../../../arm-none-eabi/lib/armv7-m\libc.a(lib_a-fini.o)
 .debug_frame   0x00003498       0x30 c:/users/param/appdata/local/arduino15/packages/arduino/tools/arm-none-eabi-gcc/4.8.3-2014q1/bin/../lib/gcc/arm-none-eabi/4.8.3/../../../../arm-none-eabi/lib/armv7-m\libc.a(lib_a-__atexit.o)

.debug_str      0x00000000     0xb6fa
 *(.debug_str)
 .debug_str     0x00000000     0x37e6 e:\drone_parachute\build\sketch\main.ino.cpp.o
                               0x39ec (size before relaxing)
 .debug_str     0x000037e6      0x624 e:\drone_parachute\build\libraries\Bolder_Flight_Systems_MPU9250\MPU9250.cpp.o
                               0x2e68 (size before relaxing)
 .debug_str     0x00003e0a      0x3de e:\drone_parachute\build\libraries\Wire\SoftWire.cpp.o
                               0x1063 (size before relaxing)
 .debug_str     0x000041e8      0x188 e:\drone_parachute\build\libraries\Wire\Wire.cpp.o
                                0xd25 (size before relaxing)
 .debug_str     0x00004370      0x210 e:\drone_parachute\build\libraries\Wire\utility\WireBase.cpp.o
                                0xe0a (size before relaxing)
 .debug_str     0x00004580      0x5fc e:\drone_parachute\build\libraries\SPI\SPI.cpp.o
                               0x1c8f (size before relaxing)
 .debug_str     0x00004b7c      0x140 e:\drone_parachute\build\libraries\Servo\Servo.cpp.o
                                0xe42 (size before relaxing)
 .debug_str     0x00004cbc      0x1e3 e:\drone_parachute\build\core\board.cpp.o
                                0xd51 (size before relaxing)
 .debug_str     0x00004e9f      0x712 e:\drone_parachute\build\core\wirish\boards.cpp.o
                               0x1158 (size before relaxing)
 .debug_str     0x000055b1      0x468 e:\drone_parachute\build\core\wirish\boards_setup.cpp.o
                                0xb40 (size before relaxing)
 .debug_str     0x00005a19      0x1c5 e:\drone_parachute\build\core\wirish\start_c.c.o
                                0x1fe (size before relaxing)
 .debug_str     0x00005bde      0x1e1 e:\drone_parachute\build\core\wirish\syscalls.c.o
                                0x38f (size before relaxing)
 .debug_str     0x00005dbf      0xfc2 e:\drone_parachute\build\core\core.a(HardwareSerial.cpp.o)
                               0x1c2e (size before relaxing)
 .debug_str     0x00006d81      0x19d e:\drone_parachute\build\core\core.a(HardwareTimer.cpp.o)
                               0x176c (size before relaxing)
 .debug_str     0x00006f1e      0x3e6 e:\drone_parachute\build\core\core.a(Print.cpp.o)
                                0xffc (size before relaxing)
 .debug_str     0x00007304      0x175 e:\drone_parachute\build\core\core.a(cxxabi-compat.cpp.o)
                                0x3bb (size before relaxing)
 .debug_str     0x00007479      0x227 e:\drone_parachute\build\core\core.a(adc.c.o)
                                0xad7 (size before relaxing)
 .debug_str     0x000076a0      0x20f e:\drone_parachute\build\core\core.a(adc_f1.c.o)
                                0xdf2 (size before relaxing)
 .debug_str     0x000078af      0x186 e:\drone_parachute\build\core\core.a(dma.c.o)
                                0xa4f (size before relaxing)
 .debug_str     0x00007a35      0x85e e:\drone_parachute\build\core\core.a(dma_f1.c.o)
                               0x139a (size before relaxing)
 .debug_str     0x00008293      0x236 e:\drone_parachute\build\core\core.a(exti.c.o)
                                0x936 (size before relaxing)
 .debug_str     0x000084c9       0xb3 e:\drone_parachute\build\core\core.a(exti_f1.c.o)
                                0x2fc (size before relaxing)
 .debug_str     0x0000857c       0x80 e:\drone_parachute\build\core\core.a(flash.c.o)
                                0x21b (size before relaxing)
 .debug_str     0x000085fc      0x2ba e:\drone_parachute\build\core\core.a(gpio_f1.c.o)
                                0x7d3 (size before relaxing)
 .debug_str     0x000088b6      0x28e e:\drone_parachute\build\core\core.a(i2c.c.o)
                                0xfd0 (size before relaxing)
 .debug_str     0x00008b44       0xde e:\drone_parachute\build\core\core.a(i2c_f1.c.o)
                                0xdcd (size before relaxing)
 .debug_str     0x00008c22       0xef e:\drone_parachute\build\core\core.a(nvic.c.o)
                                0x724 (size before relaxing)
 .debug_str     0x00008d11       0xd8 e:\drone_parachute\build\core\core.a(rcc.c.o)
                                0x570 (size before relaxing)
 .debug_str     0x00008de9      0x107 e:\drone_parachute\build\core\core.a(rcc_f1.c.o)
                                0x811 (size before relaxing)
 .debug_str     0x00008ef0      0x11a e:\drone_parachute\build\core\core.a(spi.c.o)
                                0xba3 (size before relaxing)
 .debug_str     0x0000900a       0xbe e:\drone_parachute\build\core\core.a(spi_f1.c.o)
                                0x9c9 (size before relaxing)
 .debug_str     0x000090c8       0xec e:\drone_parachute\build\core\core.a(systick.c.o)
                                0x281 (size before relaxing)
 .debug_str     0x000091b4      0x2ee e:\drone_parachute\build\core\core.a(timer.c.o)
                                0xeca (size before relaxing)
 .debug_str     0x000094a2       0xeb e:\drone_parachute\build\core\core.a(usart.c.o)
                                0x9e7 (size before relaxing)
 .debug_str     0x0000958d      0x14f e:\drone_parachute\build\core\core.a(usart_f1.c.o)
                                0xadb (size before relaxing)
 .debug_str     0x000096dc       0x7c e:\drone_parachute\build\core\core.a(usart_private.c.o)
                                0x8a6 (size before relaxing)
 .debug_str     0x00009758      0x61e e:\drone_parachute\build\core\core.a(usb.c.o)
                                0xa7e (size before relaxing)
 .debug_str     0x00009d76      0x99b e:\drone_parachute\build\core\core.a(usb_cdcacm.c.o)
                               0x184f (size before relaxing)
 .debug_str     0x0000a711       0xa9 e:\drone_parachute\build\core\core.a(usb_reg_map.c.o)
                                0x2a4 (size before relaxing)
 .debug_str     0x0000a7ba      0x4a9 e:\drone_parachute\build\core\core.a(usb_core.c.o)
                                0xadc (size before relaxing)
 .debug_str     0x0000ac63       0xae e:\drone_parachute\build\core\core.a(usb_init.c.o)
                                0x540 (size before relaxing)
 .debug_str     0x0000ad11       0xba e:\drone_parachute\build\core\core.a(usb_mem.c.o)
                                0x1fe (size before relaxing)
 .debug_str     0x0000adcb      0x3f3 e:\drone_parachute\build\core\core.a(usb_regs.c.o)
                                0x57e (size before relaxing)
 .debug_str     0x0000b1be       0xfa e:\drone_parachute\build\core\core.a(util.c.o)
                                0xa53 (size before relaxing)
 .debug_str     0x0000b2b8       0x80 e:\drone_parachute\build\core\core.a(main.cpp.o)
                                0x1c4 (size before relaxing)
 .debug_str     0x0000b338       0xa0 e:\drone_parachute\build\core\core.a(pwm.cpp.o)
                                0xb7e (size before relaxing)
 .debug_str     0x0000b3d8       0x8c e:\drone_parachute\build\core\core.a(wirish_digital_f1.cpp.o)
                                0xc73 (size before relaxing)
 .debug_str     0x0000b464       0x75 e:\drone_parachute\build\core\core.a(wirish_analog.cpp.o)
                                0xa9e (size before relaxing)
 .debug_str     0x0000b4d9       0x76 e:\drone_parachute\build\core\core.a(wirish_digital.cpp.o)
                                0xae4 (size before relaxing)
 .debug_str     0x0000b54f       0xc5 e:\drone_parachute\build\core\core.a(wirish_time.cpp.o)
                                0x37a (size before relaxing)
 .debug_str     0x0000b614       0x73 e:\drone_parachute\build\core\core.a(hooks.c.o)
                                0x13d (size before relaxing)
 .debug_str     0x0000b687       0x73 e:\drone_parachute\build\core\core.a(gpio.c.o)
                                0x45f (size before relaxing)

.debug_loc      0x00000000     0xcc31
 *(.debug_loc)
 .debug_loc     0x00000000      0x104 e:\drone_parachute\build\sketch\main.ino.cpp.o
 .debug_loc     0x00000104     0x1560 e:\drone_parachute\build\libraries\Bolder_Flight_Systems_MPU9250\MPU9250.cpp.o
 .debug_loc     0x00001664      0x50c e:\drone_parachute\build\libraries\Wire\SoftWire.cpp.o
 .debug_loc     0x00001b70      0x219 e:\drone_parachute\build\libraries\Wire\Wire.cpp.o
 .debug_loc     0x00001d89      0x488 e:\drone_parachute\build\libraries\Wire\utility\WireBase.cpp.o
 .debug_loc     0x00002211     0x11fb e:\drone_parachute\build\libraries\SPI\SPI.cpp.o
 .debug_loc     0x0000340c      0x6d0 e:\drone_parachute\build\libraries\Servo\Servo.cpp.o
 .debug_loc     0x00003adc      0x246 e:\drone_parachute\build\core\wirish\boards.cpp.o
 .debug_loc     0x00003d22       0x87 e:\drone_parachute\build\core\wirish\start_c.c.o
 .debug_loc     0x00003da9      0x38a e:\drone_parachute\build\core\wirish\syscalls.c.o
 .debug_loc     0x00004133      0x39a e:\drone_parachute\build\core\core.a(HardwareSerial.cpp.o)
 .debug_loc     0x000044cd      0x757 e:\drone_parachute\build\core\core.a(HardwareTimer.cpp.o)
 .debug_loc     0x00004c24     0x10a7 e:\drone_parachute\build\core\core.a(Print.cpp.o)
 .debug_loc     0x00005ccb       0x81 e:\drone_parachute\build\core\core.a(cxxabi-compat.cpp.o)
 .debug_loc     0x00005d4c      0x145 e:\drone_parachute\build\core\core.a(adc.c.o)
 .debug_loc     0x00005e91      0x2c7 e:\drone_parachute\build\core\core.a(adc_f1.c.o)
 .debug_loc     0x00006158       0x42 e:\drone_parachute\build\core\core.a(dma.c.o)
 .debug_loc     0x0000619a      0xa5a e:\drone_parachute\build\core\core.a(dma_f1.c.o)
 .debug_loc     0x00006bf4      0x5ee e:\drone_parachute\build\core\core.a(exti.c.o)
 .debug_loc     0x000071e2       0x42 e:\drone_parachute\build\core\core.a(exti_f1.c.o)
 .debug_loc     0x00007224       0x3f e:\drone_parachute\build\core\core.a(flash.c.o)
 .debug_loc     0x00007263      0x267 e:\drone_parachute\build\core\core.a(gpio_f1.c.o)
 .debug_loc     0x000074ca      0xc90 e:\drone_parachute\build\core\core.a(i2c.c.o)
 .debug_loc     0x0000815a      0x1b9 e:\drone_parachute\build\core\core.a(i2c_f1.c.o)
 .debug_loc     0x00008313      0x121 e:\drone_parachute\build\core\core.a(nvic.c.o)
 .debug_loc     0x00008434      0x131 e:\drone_parachute\build\core\core.a(rcc.c.o)
 .debug_loc     0x00008565      0x352 e:\drone_parachute\build\core\core.a(rcc_f1.c.o)
 .debug_loc     0x000088b7      0x387 e:\drone_parachute\build\core\core.a(spi.c.o)
 .debug_loc     0x00008c3e      0x19f e:\drone_parachute\build\core\core.a(spi_f1.c.o)
 .debug_loc     0x00008ddd      0xb8c e:\drone_parachute\build\core\core.a(timer.c.o)
 .debug_loc     0x00009969      0x3af e:\drone_parachute\build\core\core.a(usart.c.o)
 .debug_loc     0x00009d18      0x2d2 e:\drone_parachute\build\core\core.a(usart_f1.c.o)
 .debug_loc     0x00009fea       0x3f e:\drone_parachute\build\core\core.a(usart_private.c.o)
 .debug_loc     0x0000a029      0x4c8 e:\drone_parachute\build\core\core.a(usb.c.o)
 .debug_loc     0x0000a4f1      0xaab e:\drone_parachute\build\core\core.a(usb_cdcacm.c.o)
 .debug_loc     0x0000af9c      0x119 e:\drone_parachute\build\core\core.a(usb_reg_map.c.o)
 .debug_loc     0x0000b0b5      0x7a1 e:\drone_parachute\build\core\core.a(usb_core.c.o)
 .debug_loc     0x0000b856      0x260 e:\drone_parachute\build\core\core.a(usb_mem.c.o)
 .debug_loc     0x0000bab6      0xbab e:\drone_parachute\build\core\core.a(usb_regs.c.o)
 .debug_loc     0x0000c661      0x27f e:\drone_parachute\build\core\core.a(util.c.o)
 .debug_loc     0x0000c8e0       0xb1 e:\drone_parachute\build\core\core.a(pwm.cpp.o)
 .debug_loc     0x0000c991      0x137 e:\drone_parachute\build\core\core.a(wirish_digital_f1.cpp.o)
 .debug_loc     0x0000cac8       0x3f e:\drone_parachute\build\core\core.a(wirish_analog.cpp.o)
 .debug_loc     0x0000cb07       0x7c e:\drone_parachute\build\core\core.a(wirish_digital.cpp.o)
 .debug_loc     0x0000cb83       0x82 e:\drone_parachute\build\core\core.a(wirish_time.cpp.o)
 .debug_loc     0x0000cc05       0x2c e:\drone_parachute\build\core\core.a(gpio.c.o)

.debug_macinfo
 *(.debug_macinfo)

.debug_weaknames
 *(.debug_weaknames)

.debug_funcnames
 *(.debug_funcnames)

.debug_typenames
 *(.debug_typenames)

.debug_varnames
 *(.debug_varnames)

.note.gnu.arm.ident
 *(.note.gnu.arm.ident)

.ARM.attributes
                0x00000000       0x29
 *(.ARM.attributes)
 .ARM.attributes
                0x00000000       0x1d c:/users/param/appdata/local/arduino15/packages/arduino/tools/arm-none-eabi-gcc/4.8.3-2014q1/bin/../lib/gcc/arm-none-eabi/4.8.3/armv7-m/crti.o
 .ARM.attributes
                0x0000001d       0x2d c:/users/param/appdata/local/arduino15/packages/arduino/tools/arm-none-eabi-gcc/4.8.3-2014q1/bin/../lib/gcc/arm-none-eabi/4.8.3/armv7-m/crtbegin.o
 .ARM.attributes
                0x0000004a       0x1b c:/users/param/appdata/local/arduino15/packages/arduino/tools/arm-none-eabi-gcc/4.8.3-2014q1/bin/../lib/gcc/arm-none-eabi/4.8.3/../../../../arm-none-eabi/lib/armv7-m/crt0.o
 .ARM.attributes
                0x00000065       0x33 e:\drone_parachute\build\sketch\main.ino.cpp.o
 .ARM.attributes
                0x00000098       0x33 e:\drone_parachute\build\libraries\Bolder_Flight_Systems_MPU9250\MPU9250.cpp.o
 .ARM.attributes
                0x000000cb       0x33 e:\drone_parachute\build\libraries\Wire\SoftWire.cpp.o
 .ARM.attributes
                0x000000fe       0x33 e:\drone_parachute\build\libraries\Wire\Wire.cpp.o
 .ARM.attributes
                0x00000131       0x33 e:\drone_parachute\build\libraries\Wire\utility\WireBase.cpp.o
 .ARM.attributes
                0x00000164       0x33 e:\drone_parachute\build\libraries\SPI\SPI.cpp.o
 .ARM.attributes
                0x00000197       0x33 e:\drone_parachute\build\libraries\Servo\Servo.cpp.o
 .ARM.attributes
                0x000001ca       0x33 e:\drone_parachute\build\core\board.cpp.o
 .ARM.attributes
                0x000001fd       0x33 e:\drone_parachute\build\core\wirish\boards.cpp.o
 .ARM.attributes
                0x00000230       0x33 e:\drone_parachute\build\core\wirish\boards_setup.cpp.o
 .ARM.attributes
                0x00000263       0x1b e:\drone_parachute\build\core\wirish\start.S.o
 .ARM.attributes
                0x0000027e       0x33 e:\drone_parachute\build\core\wirish\start_c.c.o
 .ARM.attributes
                0x000002b1       0x33 e:\drone_parachute\build\core\wirish\syscalls.c.o
 .ARM.attributes
                0x000002e4       0x33 e:\drone_parachute\build\core\core.a(HardwareSerial.cpp.o)
 .ARM.attributes
                0x00000317       0x33 e:\drone_parachute\build\core\core.a(HardwareTimer.cpp.o)
 .ARM.attributes
                0x0000034a       0x33 e:\drone_parachute\build\core\core.a(Print.cpp.o)
 .ARM.attributes
                0x0000037d       0x33 e:\drone_parachute\build\core\core.a(cxxabi-compat.cpp.o)
 .ARM.attributes
                0x000003b0       0x33 e:\drone_parachute\build\core\core.a(adc.c.o)
 .ARM.attributes
                0x000003e3       0x33 e:\drone_parachute\build\core\core.a(adc_f1.c.o)
 .ARM.attributes
                0x00000416       0x33 e:\drone_parachute\build\core\core.a(dma.c.o)
 .ARM.attributes
                0x00000449       0x33 e:\drone_parachute\build\core\core.a(dma_f1.c.o)
 .ARM.attributes
                0x0000047c       0x1b e:\drone_parachute\build\core\core.a(exc.S.o)
 .ARM.attributes
                0x00000497       0x33 e:\drone_parachute\build\core\core.a(exti.c.o)
 .ARM.attributes
                0x000004ca       0x33 e:\drone_parachute\build\core\core.a(exti_f1.c.o)
 .ARM.attributes
                0x000004fd       0x33 e:\drone_parachute\build\core\core.a(flash.c.o)
 .ARM.attributes
                0x00000530       0x33 e:\drone_parachute\build\core\core.a(gpio_f1.c.o)
 .ARM.attributes
                0x00000563       0x33 e:\drone_parachute\build\core\core.a(i2c.c.o)
 .ARM.attributes
                0x00000596       0x33 e:\drone_parachute\build\core\core.a(i2c_f1.c.o)
 .ARM.attributes
                0x000005c9       0x33 e:\drone_parachute\build\core\core.a(nvic.c.o)
 .ARM.attributes
                0x000005fc       0x33 e:\drone_parachute\build\core\core.a(rcc.c.o)
 .ARM.attributes
                0x0000062f       0x33 e:\drone_parachute\build\core\core.a(rcc_f1.c.o)
 .ARM.attributes
                0x00000662       0x33 e:\drone_parachute\build\core\core.a(spi.c.o)
 .ARM.attributes
                0x00000695       0x33 e:\drone_parachute\build\core\core.a(spi_f1.c.o)
 .ARM.attributes
                0x000006c8       0x1b e:\drone_parachute\build\core\core.a(isrs.S.o)
 .ARM.attributes
                0x000006e3       0x1b e:\drone_parachute\build\core\core.a(vector_table.S.o)
 .ARM.attributes
                0x000006fe       0x33 e:\drone_parachute\build\core\core.a(systick.c.o)
 .ARM.attributes
                0x00000731       0x33 e:\drone_parachute\build\core\core.a(timer.c.o)
 .ARM.attributes
                0x00000764       0x33 e:\drone_parachute\build\core\core.a(usart.c.o)
 .ARM.attributes
                0x00000797       0x33 e:\drone_parachute\build\core\core.a(usart_f1.c.o)
 .ARM.attributes
                0x000007ca       0x33 e:\drone_parachute\build\core\core.a(usart_private.c.o)
 .ARM.attributes
                0x000007fd       0x33 e:\drone_parachute\build\core\core.a(usb.c.o)
 .ARM.attributes
                0x00000830       0x33 e:\drone_parachute\build\core\core.a(usb_cdcacm.c.o)
 .ARM.attributes
                0x00000863       0x33 e:\drone_parachute\build\core\core.a(usb_reg_map.c.o)
 .ARM.attributes
                0x00000896       0x33 e:\drone_parachute\build\core\core.a(usb_core.c.o)
 .ARM.attributes
                0x000008c9       0x33 e:\drone_parachute\build\core\core.a(usb_init.c.o)
 .ARM.attributes
                0x000008fc       0x33 e:\drone_parachute\build\core\core.a(usb_mem.c.o)
 .ARM.attributes
                0x0000092f       0x33 e:\drone_parachute\build\core\core.a(usb_regs.c.o)
 .ARM.attributes
                0x00000962       0x33 e:\drone_parachute\build\core\core.a(util.c.o)
 .ARM.attributes
                0x00000995       0x33 e:\drone_parachute\build\core\core.a(main.cpp.o)
 .ARM.attributes
                0x000009c8       0x33 e:\drone_parachute\build\core\core.a(pwm.cpp.o)
 .ARM.attributes
                0x000009fb       0x33 e:\drone_parachute\build\core\core.a(wirish_digital_f1.cpp.o)
 .ARM.attributes
                0x00000a2e       0x33 e:\drone_parachute\build\core\core.a(wirish_analog.cpp.o)
 .ARM.attributes
                0x00000a61       0x33 e:\drone_parachute\build\core\core.a(wirish_digital.cpp.o)
 .ARM.attributes
                0x00000a94       0x33 e:\drone_parachute\build\core\core.a(wirish_time.cpp.o)
 .ARM.attributes
                0x00000ac7       0x33 e:\drone_parachute\build\core\core.a(hooks.c.o)
 .ARM.attributes
                0x00000afa       0x33 e:\drone_parachute\build\core\core.a(gpio.c.o)
 .ARM.attributes
                0x00000b2d       0x2d c:/users/param/appdata/local/arduino15/packages/arduino/tools/arm-none-eabi-gcc/4.8.3-2014q1/bin/../lib/gcc/arm-none-eabi/4.8.3/../../../../arm-none-eabi/lib/armv7-m\libm.a(lib_a-w_sqrt.o)
 .ARM.attributes
                0x00000b5a       0x2d c:/users/param/appdata/local/arduino15/packages/arduino/tools/arm-none-eabi-gcc/4.8.3-2014q1/bin/../lib/gcc/arm-none-eabi/4.8.3/../../../../arm-none-eabi/lib/armv7-m\libm.a(lib_a-e_sqrt.o)
 .ARM.attributes
                0x00000b87       0x2d c:/users/param/appdata/local/arduino15/packages/arduino/tools/arm-none-eabi-gcc/4.8.3-2014q1/bin/../lib/gcc/arm-none-eabi/4.8.3/../../../../arm-none-eabi/lib/armv7-m\libm.a(lib_a-s_fpclassify.o)
 .ARM.attributes
                0x00000bb4       0x2d c:/users/param/appdata/local/arduino15/packages/arduino/tools/arm-none-eabi-gcc/4.8.3-2014q1/bin/../lib/gcc/arm-none-eabi/4.8.3/../../../../arm-none-eabi/lib/armv7-m\libm.a(lib_a-s_lib_ver.o)
 .ARM.attributes
                0x00000be1       0x2d c:/users/param/appdata/local/arduino15/packages/arduino/tools/arm-none-eabi-gcc/4.8.3-2014q1/bin/../lib/gcc/arm-none-eabi/4.8.3/../../../../arm-none-eabi/lib/armv7-m\libm.a(lib_a-s_matherr.o)
 .ARM.attributes
                0x00000c0e       0x1d c:/users/param/appdata/local/arduino15/packages/arduino/tools/arm-none-eabi-gcc/4.8.3-2014q1/bin/../lib/gcc/arm-none-eabi/4.8.3/armv7-m\libgcc.a(_arm_addsubdf3.o)
 .ARM.attributes
                0x00000c2b       0x1d c:/users/param/appdata/local/arduino15/packages/arduino/tools/arm-none-eabi-gcc/4.8.3-2014q1/bin/../lib/gcc/arm-none-eabi/4.8.3/armv7-m\libgcc.a(_arm_muldivdf3.o)
 .ARM.attributes
                0x00000c48       0x1d c:/users/param/appdata/local/arduino15/packages/arduino/tools/arm-none-eabi-gcc/4.8.3-2014q1/bin/../lib/gcc/arm-none-eabi/4.8.3/armv7-m\libgcc.a(_arm_cmpdf2.o)
 .ARM.attributes
                0x00000c65       0x1d c:/users/param/appdata/local/arduino15/packages/arduino/tools/arm-none-eabi-gcc/4.8.3-2014q1/bin/../lib/gcc/arm-none-eabi/4.8.3/armv7-m\libgcc.a(_arm_fixdfsi.o)
 .ARM.attributes
                0x00000c82       0x1d c:/users/param/appdata/local/arduino15/packages/arduino/tools/arm-none-eabi-gcc/4.8.3-2014q1/bin/../lib/gcc/arm-none-eabi/4.8.3/armv7-m\libgcc.a(_arm_truncdfsf2.o)
 .ARM.attributes
                0x00000c9f       0x1d c:/users/param/appdata/local/arduino15/packages/arduino/tools/arm-none-eabi-gcc/4.8.3-2014q1/bin/../lib/gcc/arm-none-eabi/4.8.3/armv7-m\libgcc.a(_arm_addsubsf3.o)
 .ARM.attributes
                0x00000cbc       0x1d c:/users/param/appdata/local/arduino15/packages/arduino/tools/arm-none-eabi-gcc/4.8.3-2014q1/bin/../lib/gcc/arm-none-eabi/4.8.3/armv7-m\libgcc.a(_arm_muldivsf3.o)
 .ARM.attributes
                0x00000cd9       0x1d c:/users/param/appdata/local/arduino15/packages/arduino/tools/arm-none-eabi-gcc/4.8.3-2014q1/bin/../lib/gcc/arm-none-eabi/4.8.3/armv7-m\libgcc.a(_arm_cmpsf2.o)
 .ARM.attributes
                0x00000cf6       0x1d c:/users/param/appdata/local/arduino15/packages/arduino/tools/arm-none-eabi-gcc/4.8.3-2014q1/bin/../lib/gcc/arm-none-eabi/4.8.3/armv7-m\libgcc.a(_arm_fixsfsi.o)
 .ARM.attributes
                0x00000d13       0x1d c:/users/param/appdata/local/arduino15/packages/arduino/tools/arm-none-eabi-gcc/4.8.3-2014q1/bin/../lib/gcc/arm-none-eabi/4.8.3/armv7-m\libgcc.a(_aeabi_ldivmod.o)
 .ARM.attributes
                0x00000d30       0x1d c:/users/param/appdata/local/arduino15/packages/arduino/tools/arm-none-eabi-gcc/4.8.3-2014q1/bin/../lib/gcc/arm-none-eabi/4.8.3/armv7-m\libgcc.a(_aeabi_uldivmod.o)
 .ARM.attributes
                0x00000d4d       0x2d c:/users/param/appdata/local/arduino15/packages/arduino/tools/arm-none-eabi-gcc/4.8.3-2014q1/bin/../lib/gcc/arm-none-eabi/4.8.3/armv7-m\libgcc.a(_fixdfdi.o)
 .ARM.attributes
                0x00000d7a       0x2d c:/users/param/appdata/local/arduino15/packages/arduino/tools/arm-none-eabi-gcc/4.8.3-2014q1/bin/../lib/gcc/arm-none-eabi/4.8.3/armv7-m\libgcc.a(_fixunsdfdi.o)
 .ARM.attributes
                0x00000da7       0x2d c:/users/param/appdata/local/arduino15/packages/arduino/tools/arm-none-eabi-gcc/4.8.3-2014q1/bin/../lib/gcc/arm-none-eabi/4.8.3/armv7-m\libgcc.a(bpabi.o)
 .ARM.attributes
                0x00000dd4       0x1d c:/users/param/appdata/local/arduino15/packages/arduino/tools/arm-none-eabi-gcc/4.8.3-2014q1/bin/../lib/gcc/arm-none-eabi/4.8.3/armv7-m\libgcc.a(_dvmd_tls.o)
 .ARM.attributes
                0x00000df1       0x1d c:/users/param/appdata/local/arduino15/packages/arduino/tools/arm-none-eabi-gcc/4.8.3-2014q1/bin/../lib/gcc/arm-none-eabi/4.8.3/armv7-m\libgcc.a(_arm_fixunsdfsi.o)
 .ARM.attributes
                0x00000e0e       0x2d c:/users/param/appdata/local/arduino15/packages/arduino/tools/arm-none-eabi-gcc/4.8.3-2014q1/bin/../lib/gcc/arm-none-eabi/4.8.3/armv7-m\libgcc.a(_divdi3.o)
 .ARM.attributes
                0x00000e3b       0x2d c:/users/param/appdata/local/arduino15/packages/arduino/tools/arm-none-eabi-gcc/4.8.3-2014q1/bin/../lib/gcc/arm-none-eabi/4.8.3/armv7-m\libgcc.a(_udivdi3.o)
 .ARM.attributes
                0x00000e68       0x2d c:/users/param/appdata/local/arduino15/packages/arduino/tools/arm-none-eabi-gcc/4.8.3-2014q1/bin/../lib/gcc/arm-none-eabi/4.8.3/../../../../arm-none-eabi/lib/armv7-m\libc.a(lib_a-errno.o)
 .ARM.attributes
                0x00000e95       0x2d c:/users/param/appdata/local/arduino15/packages/arduino/tools/arm-none-eabi-gcc/4.8.3-2014q1/bin/../lib/gcc/arm-none-eabi/4.8.3/../../../../arm-none-eabi/lib/armv7-m\libc.a(lib_a-exit.o)
 .ARM.attributes
                0x00000ec2       0x2d c:/users/param/appdata/local/arduino15/packages/arduino/tools/arm-none-eabi-gcc/4.8.3-2014q1/bin/../lib/gcc/arm-none-eabi/4.8.3/../../../../arm-none-eabi/lib/armv7-m\libc.a(lib_a-impure.o)
 .ARM.attributes
                0x00000eef       0x2d c:/users/param/appdata/local/arduino15/packages/arduino/tools/arm-none-eabi-gcc/4.8.3-2014q1/bin/../lib/gcc/arm-none-eabi/4.8.3/../../../../arm-none-eabi/lib/armv7-m\libc.a(lib_a-init.o)
 .ARM.attributes
                0x00000f1c       0x1b c:/users/param/appdata/local/arduino15/packages/arduino/tools/arm-none-eabi-gcc/4.8.3-2014q1/bin/../lib/gcc/arm-none-eabi/4.8.3/../../../../arm-none-eabi/lib/armv7-m\libc.a(lib_a-memcpy.o)
 .ARM.attributes
                0x00000f37       0x2d c:/users/param/appdata/local/arduino15/packages/arduino/tools/arm-none-eabi-gcc/4.8.3-2014q1/bin/../lib/gcc/arm-none-eabi/4.8.3/../../../../arm-none-eabi/lib/armv7-m\libc.a(lib_a-memset.o)
 .ARM.attributes
                0x00000f64       0x2d c:/users/param/appdata/local/arduino15/packages/arduino/tools/arm-none-eabi-gcc/4.8.3-2014q1/bin/../lib/gcc/arm-none-eabi/4.8.3/../../../../arm-none-eabi/lib/armv7-m\libc.a(lib_a-strcpy.o)
 .ARM.attributes
                0x00000f91       0x2d c:/users/param/appdata/local/arduino15/packages/arduino/tools/arm-none-eabi-gcc/4.8.3-2014q1/bin/../lib/gcc/arm-none-eabi/4.8.3/../../../../arm-none-eabi/lib/armv7-m\libc.a(lib_a-strlen.o)
 .ARM.attributes
                0x00000fbe       0x2d c:/users/param/appdata/local/arduino15/packages/arduino/tools/arm-none-eabi-gcc/4.8.3-2014q1/bin/../lib/gcc/arm-none-eabi/4.8.3/../../../../arm-none-eabi/lib/armv7-m\libc.a(lib_a-__call_atexit.o)
 .ARM.attributes
                0x00000feb       0x2d c:/users/param/appdata/local/arduino15/packages/arduino/tools/arm-none-eabi-gcc/4.8.3-2014q1/bin/../lib/gcc/arm-none-eabi/4.8.3/../../../../arm-none-eabi/lib/armv7-m\libc.a(lib_a-atexit.o)
 .ARM.attributes
                0x00001018       0x2d c:/users/param/appdata/local/arduino15/packages/arduino/tools/arm-none-eabi-gcc/4.8.3-2014q1/bin/../lib/gcc/arm-none-eabi/4.8.3/../../../../arm-none-eabi/lib/armv7-m\libc.a(lib_a-fini.o)
 .ARM.attributes
                0x00001045       0x2d c:/users/param/appdata/local/arduino15/packages/arduino/tools/arm-none-eabi-gcc/4.8.3-2014q1/bin/../lib/gcc/arm-none-eabi/4.8.3/../../../../arm-none-eabi/lib/armv7-m\libc.a(lib_a-__atexit.o)
 .ARM.attributes
                0x00001072       0x2d c:/users/param/appdata/local/arduino15/packages/arduino/tools/arm-none-eabi-gcc/4.8.3-2014q1/bin/../lib/gcc/arm-none-eabi/4.8.3/armv7-m/crtend.o
 .ARM.attributes
                0x0000109f       0x1d c:/users/param/appdata/local/arduino15/packages/arduino/tools/arm-none-eabi-gcc/4.8.3-2014q1/bin/../lib/gcc/arm-none-eabi/4.8.3/armv7-m/crtn.o

/DISCARD/
 *(.note.GNU-stack)
OUTPUT(e:\drone_parachute\build/main.ino.elf elf32-littlearm)

.debug_ranges   0x00000000     0x26b0
 .debug_ranges  0x00000000       0xa0 e:\drone_parachute\build\sketch\main.ino.cpp.o
 .debug_ranges  0x000000a0      0x278 e:\drone_parachute\build\libraries\Bolder_Flight_Systems_MPU9250\MPU9250.cpp.o
 .debug_ranges  0x00000318      0x140 e:\drone_parachute\build\libraries\Wire\SoftWire.cpp.o
 .debug_ranges  0x00000458       0x70 e:\drone_parachute\build\libraries\Wire\Wire.cpp.o
 .debug_ranges  0x000004c8       0x90 e:\drone_parachute\build\libraries\Wire\utility\WireBase.cpp.o
 .debug_ranges  0x00000558      0x538 e:\drone_parachute\build\libraries\SPI\SPI.cpp.o
 .debug_ranges  0x00000a90       0xd8 e:\drone_parachute\build\libraries\Servo\Servo.cpp.o
 .debug_ranges  0x00000b68       0x38 e:\drone_parachute\build\core\board.cpp.o
 .debug_ranges  0x00000ba0      0x160 e:\drone_parachute\build\core\wirish\boards.cpp.o
 .debug_ranges  0x00000d00       0x30 e:\drone_parachute\build\core\wirish\boards_setup.cpp.o
 .debug_ranges  0x00000d30       0x10 e:\drone_parachute\build\core\wirish\start_c.c.o
 .debug_ranges  0x00000d40       0x78 e:\drone_parachute\build\core\wirish\syscalls.c.o
 .debug_ranges  0x00000db8       0x90 e:\drone_parachute\build\core\core.a(HardwareSerial.cpp.o)
 .debug_ranges  0x00000e48      0x188 e:\drone_parachute\build\core\core.a(HardwareTimer.cpp.o)
 .debug_ranges  0x00000fd0      0x230 e:\drone_parachute\build\core\core.a(Print.cpp.o)
 .debug_ranges  0x00001200       0x18 e:\drone_parachute\build\core\core.a(cxxabi-compat.cpp.o)
 .debug_ranges  0x00001218       0x28 e:\drone_parachute\build\core\core.a(adc.c.o)
 .debug_ranges  0x00001240       0xb8 e:\drone_parachute\build\core\core.a(adc_f1.c.o)
 .debug_ranges  0x000012f8       0x18 e:\drone_parachute\build\core\core.a(dma.c.o)
 .debug_ranges  0x00001310      0x1c0 e:\drone_parachute\build\core\core.a(dma_f1.c.o)
 .debug_ranges  0x000014d0       0xb8 e:\drone_parachute\build\core\core.a(exti.c.o)
 .debug_ranges  0x00001588       0x10 e:\drone_parachute\build\core\core.a(exti_f1.c.o)
 .debug_ranges  0x00001598       0x10 e:\drone_parachute\build\core\core.a(flash.c.o)
 .debug_ranges  0x000015a8       0x30 e:\drone_parachute\build\core\core.a(gpio_f1.c.o)
 .debug_ranges  0x000015d8      0x328 e:\drone_parachute\build\core\core.a(i2c.c.o)
 .debug_ranges  0x00001900       0x90 e:\drone_parachute\build\core\core.a(i2c_f1.c.o)
 .debug_ranges  0x00001990       0x40 e:\drone_parachute\build\core\core.a(nvic.c.o)
 .debug_ranges  0x000019d0       0x98 e:\drone_parachute\build\core\core.a(rcc.c.o)
 .debug_ranges  0x00001a68       0xc8 e:\drone_parachute\build\core\core.a(rcc_f1.c.o)
 .debug_ranges  0x00001b30       0x80 e:\drone_parachute\build\core\core.a(spi.c.o)
 .debug_ranges  0x00001bb0       0x18 e:\drone_parachute\build\core\core.a(spi_f1.c.o)
 .debug_ranges  0x00001bc8       0x48 e:\drone_parachute\build\core\core.a(systick.c.o)
 .debug_ranges  0x00001c10       0xe8 e:\drone_parachute\build\core\core.a(timer.c.o)
 .debug_ranges  0x00001cf8       0xd0 e:\drone_parachute\build\core\core.a(usart.c.o)
 .debug_ranges  0x00001dc8       0x90 e:\drone_parachute\build\core\core.a(usart_f1.c.o)
 .debug_ranges  0x00001e58       0x10 e:\drone_parachute\build\core\core.a(usart_private.c.o)
 .debug_ranges  0x00001e68       0xa8 e:\drone_parachute\build\core\core.a(usb.c.o)
 .debug_ranges  0x00001f10      0x238 e:\drone_parachute\build\core\core.a(usb_cdcacm.c.o)
 .debug_ranges  0x00002148       0x60 e:\drone_parachute\build\core\core.a(usb_reg_map.c.o)
 .debug_ranges  0x000021a8       0xc0 e:\drone_parachute\build\core\core.a(usb_core.c.o)
 .debug_ranges  0x00002268       0x10 e:\drone_parachute\build\core\core.a(usb_init.c.o)
 .debug_ranges  0x00002278       0x38 e:\drone_parachute\build\core\core.a(usb_mem.c.o)
 .debug_ranges  0x000022b0      0x290 e:\drone_parachute\build\core\core.a(usb_regs.c.o)
 .debug_ranges  0x00002540       0x58 e:\drone_parachute\build\core\core.a(util.c.o)
 .debug_ranges  0x00002598       0x18 e:\drone_parachute\build\core\core.a(main.cpp.o)
 .debug_ranges  0x000025b0       0x30 e:\drone_parachute\build\core\core.a(pwm.cpp.o)
 .debug_ranges  0x000025e0       0x30 e:\drone_parachute\build\core\core.a(wirish_digital_f1.cpp.o)
 .debug_ranges  0x00002610       0x10 e:\drone_parachute\build\core\core.a(wirish_analog.cpp.o)
 .debug_ranges  0x00002620       0x50 e:\drone_parachute\build\core\core.a(wirish_digital.cpp.o)
 .debug_ranges  0x00002670       0x20 e:\drone_parachute\build\core\core.a(wirish_time.cpp.o)
 .debug_ranges  0x00002690       0x10 e:\drone_parachute\build\core\core.a(hooks.c.o)
 .debug_ranges  0x000026a0       0x10 e:\drone_parachute\build\core\core.a(gpio.c.o)

.comment        0x00000000       0x70
 .comment       0x00000000       0x70 e:\drone_parachute\build\sketch\main.ino.cpp.o
                                 0x71 (size before relaxing)
 .comment       0x00000000       0x71 e:\drone_parachute\build\libraries\Bolder_Flight_Systems_MPU9250\MPU9250.cpp.o
 .comment       0x00000000       0x71 e:\drone_parachute\build\libraries\Wire\SoftWire.cpp.o
 .comment       0x00000000       0x71 e:\drone_parachute\build\libraries\Wire\Wire.cpp.o
 .comment       0x00000000       0x71 e:\drone_parachute\build\libraries\Wire\utility\WireBase.cpp.o
 .comment       0x00000000       0x71 e:\drone_parachute\build\libraries\SPI\SPI.cpp.o
 .comment       0x00000000       0x71 e:\drone_parachute\build\libraries\Servo\Servo.cpp.o
 .comment       0x00000000       0x71 e:\drone_parachute\build\core\board.cpp.o
 .comment       0x00000000       0x71 e:\drone_parachute\build\core\wirish\boards.cpp.o
 .comment       0x00000000       0x71 e:\drone_parachute\build\core\wirish\boards_setup.cpp.o
 .comment       0x00000000       0x71 e:\drone_parachute\build\core\wirish\start_c.c.o
 .comment       0x00000000       0x71 e:\drone_parachute\build\core\wirish\syscalls.c.o
 .comment       0x00000000       0x71 e:\drone_parachute\build\core\core.a(HardwareSerial.cpp.o)
 .comment       0x00000000       0x71 e:\drone_parachute\build\core\core.a(HardwareTimer.cpp.o)
 .comment       0x00000000       0x71 e:\drone_parachute\build\core\core.a(Print.cpp.o)
 .comment       0x00000000       0x71 e:\drone_parachute\build\core\core.a(cxxabi-compat.cpp.o)
 .comment       0x00000000       0x71 e:\drone_parachute\build\core\core.a(adc.c.o)
 .comment       0x00000000       0x71 e:\drone_parachute\build\core\core.a(adc_f1.c.o)
 .comment       0x00000000       0x71 e:\drone_parachute\build\core\core.a(dma.c.o)
 .comment       0x00000000       0x71 e:\drone_parachute\build\core\core.a(dma_f1.c.o)
 .comment       0x00000000       0x71 e:\drone_parachute\build\core\core.a(exti.c.o)
 .comment       0x00000000       0x71 e:\drone_parachute\build\core\core.a(exti_f1.c.o)
 .comment       0x00000000       0x71 e:\drone_parachute\build\core\core.a(flash.c.o)
 .comment       0x00000000       0x71 e:\drone_parachute\build\core\core.a(gpio_f1.c.o)
 .comment       0x00000000       0x71 e:\drone_parachute\build\core\core.a(i2c.c.o)
 .comment       0x00000000       0x71 e:\drone_parachute\build\core\core.a(i2c_f1.c.o)
 .comment       0x00000000       0x71 e:\drone_parachute\build\core\core.a(nvic.c.o)
 .comment       0x00000000       0x71 e:\drone_parachute\build\core\core.a(rcc.c.o)
 .comment       0x00000000       0x71 e:\drone_parachute\build\core\core.a(rcc_f1.c.o)
 .comment       0x00000000       0x71 e:\drone_parachute\build\core\core.a(spi.c.o)
 .comment       0x00000000       0x71 e:\drone_parachute\build\core\core.a(spi_f1.c.o)
 .comment       0x00000000       0x71 e:\drone_parachute\build\core\core.a(systick.c.o)
 .comment       0x00000000       0x71 e:\drone_parachute\build\core\core.a(timer.c.o)
 .comment       0x00000000       0x71 e:\drone_parachute\build\core\core.a(usart.c.o)
 .comment       0x00000000       0x71 e:\drone_parachute\build\core\core.a(usart_f1.c.o)
 .comment       0x00000000       0x71 e:\drone_parachute\build\core\core.a(usart_private.c.o)
 .comment       0x00000000       0x71 e:\drone_parachute\build\core\core.a(usb.c.o)
 .comment       0x00000000       0x71 e:\drone_parachute\build\core\core.a(usb_cdcacm.c.o)
 .comment       0x00000000       0x71 e:\drone_parachute\build\core\core.a(usb_reg_map.c.o)
 .comment       0x00000000       0x71 e:\drone_parachute\build\core\core.a(usb_core.c.o)
 .comment       0x00000000       0x71 e:\drone_parachute\build\core\core.a(usb_init.c.o)
 .comment       0x00000000       0x71 e:\drone_parachute\build\core\core.a(usb_mem.c.o)
 .comment       0x00000000       0x71 e:\drone_parachute\build\core\core.a(usb_regs.c.o)
 .comment       0x00000000       0x71 e:\drone_parachute\build\core\core.a(util.c.o)
 .comment       0x00000000       0x71 e:\drone_parachute\build\core\core.a(main.cpp.o)
 .comment       0x00000000       0x71 e:\drone_parachute\build\core\core.a(pwm.cpp.o)
 .comment       0x00000000       0x71 e:\drone_parachute\build\core\core.a(wirish_digital_f1.cpp.o)
 .comment       0x00000000       0x71 e:\drone_parachute\build\core\core.a(wirish_analog.cpp.o)
 .comment       0x00000000       0x71 e:\drone_parachute\build\core\core.a(wirish_digital.cpp.o)
 .comment       0x00000000       0x71 e:\drone_parachute\build\core\core.a(wirish_time.cpp.o)
 .comment       0x00000000       0x71 e:\drone_parachute\build\core\core.a(hooks.c.o)
 .comment       0x00000000       0x71 e:\drone_parachute\build\core\core.a(gpio.c.o)

Cross Reference Table

Symbol                                            File
ADC1                                              e:\drone_parachute\build\core\core.a(adc_f1.c.o)
ADC2                                              e:\drone_parachute\build\core\core.a(adc_f1.c.o)
BATTERY_MAYDAY                                    e:\drone_parachute\build\sketch\main.ino.cpp.o
ByteSwap                                          e:\drone_parachute\build\core\core.a(usb_regs.c.o)
ClearDTOG_RX                                      e:\drone_parachute\build\core\core.a(usb_regs.c.o)
                                                  e:\drone_parachute\build\core\core.a(usb_core.c.o)
ClearDTOG_TX                                      e:\drone_parachute\build\core\core.a(usb_regs.c.o)
                                                  e:\drone_parachute\build\core\core.a(usb_core.c.o)
ClearEPDoubleBuff                                 e:\drone_parachute\build\core\core.a(usb_regs.c.o)
ClearEP_CTR_RX                                    e:\drone_parachute\build\core\core.a(usb_regs.c.o)
ClearEP_CTR_TX                                    e:\drone_parachute\build\core\core.a(usb_regs.c.o)
ClearEP_KIND                                      e:\drone_parachute\build\core\core.a(usb_regs.c.o)
Clear_Status_Out                                  e:\drone_parachute\build\core\core.a(usb_regs.c.o)
DMA1                                              e:\drone_parachute\build\core\core.a(dma_f1.c.o)
                                                  e:\drone_parachute\build\libraries\SPI\SPI.cpp.o
Data_Mul_MaxPacketSize                            e:\drone_parachute\build\core\core.a(usb_core.c.o)
Device_Info                                       e:\drone_parachute\build\core\core.a(usb_init.c.o)
                                                  e:\drone_parachute\build\core\core.a(usb.c.o)
Device_Property                                   e:\drone_parachute\build\core\core.a(usb_cdcacm.c.o)
                                                  e:\drone_parachute\build\core\core.a(usb_init.c.o)
                                                  e:\drone_parachute\build\core\core.a(usb_core.c.o)
                                                  e:\drone_parachute\build\core\core.a(usb.c.o)
Device_Table                                      e:\drone_parachute\build\core\core.a(usb_cdcacm.c.o)
                                                  e:\drone_parachute\build\core\core.a(usb_core.c.o)
EPindex                                           e:\drone_parachute\build\core\core.a(usb_init.c.o)
FREEFALL_MAYDAY                                   e:\drone_parachute\build\sketch\main.ino.cpp.o
FreeUserBuffer                                    e:\drone_parachute\build\core\core.a(usb_regs.c.o)
GPIOA                                             e:\drone_parachute\build\core\core.a(gpio_f1.c.o)
GPIOB                                             e:\drone_parachute\build\core\core.a(gpio_f1.c.o)
GPIOC                                             e:\drone_parachute\build\core\core.a(gpio_f1.c.o)
                                                  e:\drone_parachute\build\core\core.a(util.c.o)
GPIOD                                             e:\drone_parachute\build\core\core.a(gpio_f1.c.o)
GetBTABLE                                         e:\drone_parachute\build\core\core.a(usb_regs.c.o)
GetCNTR                                           e:\drone_parachute\build\core\core.a(usb_regs.c.o)
GetDADDR                                          e:\drone_parachute\build\core\core.a(usb_regs.c.o)
GetENDPOINT                                       e:\drone_parachute\build\core\core.a(usb_regs.c.o)
GetEPAddress                                      e:\drone_parachute\build\core\core.a(usb_regs.c.o)
GetEPDblBuf0Addr                                  e:\drone_parachute\build\core\core.a(usb_regs.c.o)
GetEPDblBuf0Count                                 e:\drone_parachute\build\core\core.a(usb_regs.c.o)
GetEPDblBuf1Addr                                  e:\drone_parachute\build\core\core.a(usb_regs.c.o)
GetEPDblBuf1Count                                 e:\drone_parachute\build\core\core.a(usb_regs.c.o)
GetEPDblBufDir                                    e:\drone_parachute\build\core\core.a(usb_regs.c.o)
GetEPRxAddr                                       e:\drone_parachute\build\core\core.a(usb_regs.c.o)
                                                  e:\drone_parachute\build\core\core.a(usb_core.c.o)
GetEPRxCount                                      e:\drone_parachute\build\core\core.a(usb_regs.c.o)
GetEPRxStatus                                     e:\drone_parachute\build\core\core.a(usb_regs.c.o)
GetEPTxAddr                                       e:\drone_parachute\build\core\core.a(usb_regs.c.o)
                                                  e:\drone_parachute\build\core\core.a(usb_core.c.o)
GetEPTxCount                                      e:\drone_parachute\build\core\core.a(usb_regs.c.o)
GetEPTxStatus                                     e:\drone_parachute\build\core\core.a(usb_regs.c.o)
GetEPType                                         e:\drone_parachute\build\core\core.a(usb_regs.c.o)
GetFNR                                            e:\drone_parachute\build\core\core.a(usb_regs.c.o)
GetISTR                                           e:\drone_parachute\build\core\core.a(usb_regs.c.o)
GetRxStallStatus                                  e:\drone_parachute\build\core\core.a(usb_regs.c.o)
GetTxStallStatus                                  e:\drone_parachute\build\core\core.a(usb_regs.c.o)
HardwareSerial::HardwareSerial(usart_dev*, unsigned char, unsigned char) e:\drone_parachute\build\core\core.a(HardwareSerial.cpp.o)
                                                  e:\drone_parachute\build\core\board.cpp.o
HardwareSerial::HardwareSerial(usart_dev*, unsigned char, unsigned char) e:\drone_parachute\build\core\core.a(HardwareSerial.cpp.o)
HardwareSerial::available()                       e:\drone_parachute\build\core\core.a(HardwareSerial.cpp.o)
HardwareSerial::availableForWrite()               e:\drone_parachute\build\core\core.a(HardwareSerial.cpp.o)
HardwareSerial::begin(unsigned long)              e:\drone_parachute\build\core\core.a(HardwareSerial.cpp.o)
                                                  e:\drone_parachute\build\sketch\main.ino.cpp.o
HardwareSerial::begin(unsigned long, unsigned char) e:\drone_parachute\build\core\core.a(HardwareSerial.cpp.o)
HardwareSerial::end()                             e:\drone_parachute\build\core\core.a(HardwareSerial.cpp.o)
HardwareSerial::flush()                           e:\drone_parachute\build\core\core.a(HardwareSerial.cpp.o)
HardwareSerial::peek()                            e:\drone_parachute\build\core\core.a(HardwareSerial.cpp.o)
HardwareSerial::read()                            e:\drone_parachute\build\core\core.a(HardwareSerial.cpp.o)
HardwareSerial::write(unsigned char)              e:\drone_parachute\build\core\core.a(HardwareSerial.cpp.o)
HardwareTimer::HardwareTimer(unsigned char)       e:\drone_parachute\build\core\core.a(HardwareTimer.cpp.o)
                                                  e:\drone_parachute\build\sketch\main.ino.cpp.o
HardwareTimer::HardwareTimer(unsigned char)       e:\drone_parachute\build\core\core.a(HardwareTimer.cpp.o)
HardwareTimer::attachInterrupt(int, void (*)())   e:\drone_parachute\build\core\core.a(HardwareTimer.cpp.o)
                                                  e:\drone_parachute\build\sketch\main.ino.cpp.o
HardwareTimer::detachInterrupt(int)               e:\drone_parachute\build\core\core.a(HardwareTimer.cpp.o)
HardwareTimer::disableDMA(int)                    e:\drone_parachute\build\core\core.a(HardwareTimer.cpp.o)
HardwareTimer::enableDMA(int)                     e:\drone_parachute\build\core\core.a(HardwareTimer.cpp.o)
HardwareTimer::getCompare(int)                    e:\drone_parachute\build\core\core.a(HardwareTimer.cpp.o)
HardwareTimer::getCount()                         e:\drone_parachute\build\core\core.a(HardwareTimer.cpp.o)
HardwareTimer::getOverflow()                      e:\drone_parachute\build\core\core.a(HardwareTimer.cpp.o)
HardwareTimer::getPrescaleFactor()                e:\drone_parachute\build\core\core.a(HardwareTimer.cpp.o)
HardwareTimer::pause()                            e:\drone_parachute\build\core\core.a(HardwareTimer.cpp.o)
                                                  e:\drone_parachute\build\sketch\main.ino.cpp.o
HardwareTimer::refresh()                          e:\drone_parachute\build\core\core.a(HardwareTimer.cpp.o)
                                                  e:\drone_parachute\build\sketch\main.ino.cpp.o
HardwareTimer::resume()                           e:\drone_parachute\build\core\core.a(HardwareTimer.cpp.o)
                                                  e:\drone_parachute\build\sketch\main.ino.cpp.o
HardwareTimer::setCompare(int, unsigned short)    e:\drone_parachute\build\core\core.a(HardwareTimer.cpp.o)
                                                  e:\drone_parachute\build\sketch\main.ino.cpp.o
HardwareTimer::setCount(unsigned short)           e:\drone_parachute\build\core\core.a(HardwareTimer.cpp.o)
HardwareTimer::setMasterModeTrGo(unsigned long)   e:\drone_parachute\build\core\core.a(HardwareTimer.cpp.o)
HardwareTimer::setMode(int, timer_mode)           e:\drone_parachute\build\core\core.a(HardwareTimer.cpp.o)
                                                  e:\drone_parachute\build\sketch\main.ino.cpp.o
HardwareTimer::setOverflow(unsigned short)        e:\drone_parachute\build\core\core.a(HardwareTimer.cpp.o)
HardwareTimer::setPeriod(unsigned long)           e:\drone_parachute\build\core\core.a(HardwareTimer.cpp.o)
                                                  e:\drone_parachute\build\sketch\main.ino.cpp.o
HardwareTimer::setPrescaleFactor(unsigned long)   e:\drone_parachute\build\core\core.a(HardwareTimer.cpp.o)
I2C1                                              e:\drone_parachute\build\core\core.a(i2c_f1.c.o)
                                                  e:\drone_parachute\build\core\core.a(i2c.c.o)
                                                  e:\drone_parachute\build\libraries\Wire\Wire.cpp.o
I2C2                                              e:\drone_parachute\build\core\core.a(i2c_f1.c.o)
                                                  e:\drone_parachute\build\libraries\Wire\Wire.cpp.o
In0_Process                                       e:\drone_parachute\build\core\core.a(usb_core.c.o)
                                                  e:\drone_parachute\build\core\core.a(usb.c.o)
MPU9250::MPU9250(SPIClass&, unsigned char)        e:\drone_parachute\build\libraries\Bolder_Flight_Systems_MPU9250\MPU9250.cpp.o
MPU9250::MPU9250(SPIClass&, unsigned char)        e:\drone_parachute\build\libraries\Bolder_Flight_Systems_MPU9250\MPU9250.cpp.o
MPU9250::MPU9250(TwoWire&, unsigned char)         e:\drone_parachute\build\libraries\Bolder_Flight_Systems_MPU9250\MPU9250.cpp.o
MPU9250::MPU9250(TwoWire&, unsigned char)         e:\drone_parachute\build\libraries\Bolder_Flight_Systems_MPU9250\MPU9250.cpp.o
                                                  e:\drone_parachute\build\sketch\main.ino.cpp.o
MPU9250::begin()                                  e:\drone_parachute\build\libraries\Bolder_Flight_Systems_MPU9250\MPU9250.cpp.o
                                                  e:\drone_parachute\build\sketch\main.ino.cpp.o
MPU9250::calibrateAccel()                         e:\drone_parachute\build\libraries\Bolder_Flight_Systems_MPU9250\MPU9250.cpp.o
MPU9250::calibrateGyro()                          e:\drone_parachute\build\libraries\Bolder_Flight_Systems_MPU9250\MPU9250.cpp.o
MPU9250::calibrateMag()                           e:\drone_parachute\build\libraries\Bolder_Flight_Systems_MPU9250\MPU9250.cpp.o
MPU9250::disableDataReadyInterrupt()              e:\drone_parachute\build\libraries\Bolder_Flight_Systems_MPU9250\MPU9250.cpp.o
MPU9250::enableDataReadyInterrupt()               e:\drone_parachute\build\libraries\Bolder_Flight_Systems_MPU9250\MPU9250.cpp.o
MPU9250::enableWakeOnMotion(float, MPU9250::LpAccelOdr) e:\drone_parachute\build\libraries\Bolder_Flight_Systems_MPU9250\MPU9250.cpp.o
MPU9250::getAccelBiasX_mss()                      e:\drone_parachute\build\libraries\Bolder_Flight_Systems_MPU9250\MPU9250.cpp.o
MPU9250::getAccelBiasY_mss()                      e:\drone_parachute\build\libraries\Bolder_Flight_Systems_MPU9250\MPU9250.cpp.o
MPU9250::getAccelBiasZ_mss()                      e:\drone_parachute\build\libraries\Bolder_Flight_Systems_MPU9250\MPU9250.cpp.o
MPU9250::getAccelScaleFactorX()                   e:\drone_parachute\build\libraries\Bolder_Flight_Systems_MPU9250\MPU9250.cpp.o
MPU9250::getAccelScaleFactorY()                   e:\drone_parachute\build\libraries\Bolder_Flight_Systems_MPU9250\MPU9250.cpp.o
MPU9250::getAccelScaleFactorZ()                   e:\drone_parachute\build\libraries\Bolder_Flight_Systems_MPU9250\MPU9250.cpp.o
MPU9250::getAccelX_mss()                          e:\drone_parachute\build\libraries\Bolder_Flight_Systems_MPU9250\MPU9250.cpp.o
                                                  e:\drone_parachute\build\sketch\main.ino.cpp.o
MPU9250::getAccelY_mss()                          e:\drone_parachute\build\libraries\Bolder_Flight_Systems_MPU9250\MPU9250.cpp.o
                                                  e:\drone_parachute\build\sketch\main.ino.cpp.o
MPU9250::getAccelZ_mss()                          e:\drone_parachute\build\libraries\Bolder_Flight_Systems_MPU9250\MPU9250.cpp.o
                                                  e:\drone_parachute\build\sketch\main.ino.cpp.o
MPU9250::getGyroBiasX_rads()                      e:\drone_parachute\build\libraries\Bolder_Flight_Systems_MPU9250\MPU9250.cpp.o
MPU9250::getGyroBiasY_rads()                      e:\drone_parachute\build\libraries\Bolder_Flight_Systems_MPU9250\MPU9250.cpp.o
MPU9250::getGyroBiasZ_rads()                      e:\drone_parachute\build\libraries\Bolder_Flight_Systems_MPU9250\MPU9250.cpp.o
MPU9250::getGyroX_rads()                          e:\drone_parachute\build\libraries\Bolder_Flight_Systems_MPU9250\MPU9250.cpp.o
                                                  e:\drone_parachute\build\sketch\main.ino.cpp.o
MPU9250::getGyroY_rads()                          e:\drone_parachute\build\libraries\Bolder_Flight_Systems_MPU9250\MPU9250.cpp.o
                                                  e:\drone_parachute\build\sketch\main.ino.cpp.o
MPU9250::getGyroZ_rads()                          e:\drone_parachute\build\libraries\Bolder_Flight_Systems_MPU9250\MPU9250.cpp.o
                                                  e:\drone_parachute\build\sketch\main.ino.cpp.o
MPU9250::getMagBiasX_uT()                         e:\drone_parachute\build\libraries\Bolder_Flight_Systems_MPU9250\MPU9250.cpp.o
MPU9250::getMagBiasY_uT()                         e:\drone_parachute\build\libraries\Bolder_Flight_Systems_MPU9250\MPU9250.cpp.o
MPU9250::getMagBiasZ_uT()                         e:\drone_parachute\build\libraries\Bolder_Flight_Systems_MPU9250\MPU9250.cpp.o
MPU9250::getMagScaleFactorX()                     e:\drone_parachute\build\libraries\Bolder_Flight_Systems_MPU9250\MPU9250.cpp.o
MPU9250::getMagScaleFactorY()                     e:\drone_parachute\build\libraries\Bolder_Flight_Systems_MPU9250\MPU9250.cpp.o
MPU9250::getMagScaleFactorZ()                     e:\drone_parachute\build\libraries\Bolder_Flight_Systems_MPU9250\MPU9250.cpp.o
MPU9250::getMagX_uT()                             e:\drone_parachute\build\libraries\Bolder_Flight_Systems_MPU9250\MPU9250.cpp.o
                                                  e:\drone_parachute\build\sketch\main.ino.cpp.o
MPU9250::getMagY_uT()                             e:\drone_parachute\build\libraries\Bolder_Flight_Systems_MPU9250\MPU9250.cpp.o
                                                  e:\drone_parachute\build\sketch\main.ino.cpp.o
MPU9250::getMagZ_uT()                             e:\drone_parachute\build\libraries\Bolder_Flight_Systems_MPU9250\MPU9250.cpp.o
                                                  e:\drone_parachute\build\sketch\main.ino.cpp.o
MPU9250::getTemperature_C()                       e:\drone_parachute\build\libraries\Bolder_Flight_Systems_MPU9250\MPU9250.cpp.o
                                                  e:\drone_parachute\build\sketch\main.ino.cpp.o
MPU9250::readAK8963Registers(unsigned char, unsigned char, unsigned char*) e:\drone_parachute\build\libraries\Bolder_Flight_Systems_MPU9250\MPU9250.cpp.o
MPU9250::readRegisters(unsigned char, unsigned char, unsigned char*) e:\drone_parachute\build\libraries\Bolder_Flight_Systems_MPU9250\MPU9250.cpp.o
MPU9250::readSensor()                             e:\drone_parachute\build\libraries\Bolder_Flight_Systems_MPU9250\MPU9250.cpp.o
                                                  e:\drone_parachute\build\sketch\main.ino.cpp.o
MPU9250::setAccelCalX(float, float)               e:\drone_parachute\build\libraries\Bolder_Flight_Systems_MPU9250\MPU9250.cpp.o
MPU9250::setAccelCalY(float, float)               e:\drone_parachute\build\libraries\Bolder_Flight_Systems_MPU9250\MPU9250.cpp.o
MPU9250::setAccelCalZ(float, float)               e:\drone_parachute\build\libraries\Bolder_Flight_Systems_MPU9250\MPU9250.cpp.o
MPU9250::setAccelRange(MPU9250::AccelRange)       e:\drone_parachute\build\libraries\Bolder_Flight_Systems_MPU9250\MPU9250.cpp.o
                                                  e:\drone_parachute\build\sketch\main.ino.cpp.o
MPU9250::setDlpfBandwidth(MPU9250::DlpfBandwidth) e:\drone_parachute\build\libraries\Bolder_Flight_Systems_MPU9250\MPU9250.cpp.o
                                                  e:\drone_parachute\build\sketch\main.ino.cpp.o
MPU9250::setGyroBiasX_rads(float)                 e:\drone_parachute\build\libraries\Bolder_Flight_Systems_MPU9250\MPU9250.cpp.o
MPU9250::setGyroBiasY_rads(float)                 e:\drone_parachute\build\libraries\Bolder_Flight_Systems_MPU9250\MPU9250.cpp.o
MPU9250::setGyroBiasZ_rads(float)                 e:\drone_parachute\build\libraries\Bolder_Flight_Systems_MPU9250\MPU9250.cpp.o
MPU9250::setGyroRange(MPU9250::GyroRange)         e:\drone_parachute\build\libraries\Bolder_Flight_Systems_MPU9250\MPU9250.cpp.o
                                                  e:\drone_parachute\build\sketch\main.ino.cpp.o
MPU9250::setMagCalX(float, float)                 e:\drone_parachute\build\libraries\Bolder_Flight_Systems_MPU9250\MPU9250.cpp.o
MPU9250::setMagCalY(float, float)                 e:\drone_parachute\build\libraries\Bolder_Flight_Systems_MPU9250\MPU9250.cpp.o
MPU9250::setMagCalZ(float, float)                 e:\drone_parachute\build\libraries\Bolder_Flight_Systems_MPU9250\MPU9250.cpp.o
MPU9250::setSrd(unsigned char)                    e:\drone_parachute\build\libraries\Bolder_Flight_Systems_MPU9250\MPU9250.cpp.o
                                                  e:\drone_parachute\build\sketch\main.ino.cpp.o
MPU9250::whoAmI()                                 e:\drone_parachute\build\libraries\Bolder_Flight_Systems_MPU9250\MPU9250.cpp.o
MPU9250::whoAmIAK8963()                           e:\drone_parachute\build\libraries\Bolder_Flight_Systems_MPU9250\MPU9250.cpp.o
MPU9250::writeAK8963Register(unsigned char, unsigned char) e:\drone_parachute\build\libraries\Bolder_Flight_Systems_MPU9250\MPU9250.cpp.o
MPU9250::writeRegister(unsigned char, unsigned char) e:\drone_parachute\build\libraries\Bolder_Flight_Systems_MPU9250\MPU9250.cpp.o
MPU9250FIFO::enableFifo(bool, bool, bool, bool)   e:\drone_parachute\build\libraries\Bolder_Flight_Systems_MPU9250\MPU9250.cpp.o
MPU9250FIFO::getFifoAccelX_mss(unsigned int*, float*) e:\drone_parachute\build\libraries\Bolder_Flight_Systems_MPU9250\MPU9250.cpp.o
MPU9250FIFO::getFifoAccelY_mss(unsigned int*, float*) e:\drone_parachute\build\libraries\Bolder_Flight_Systems_MPU9250\MPU9250.cpp.o
MPU9250FIFO::getFifoAccelZ_mss(unsigned int*, float*) e:\drone_parachute\build\libraries\Bolder_Flight_Systems_MPU9250\MPU9250.cpp.o
MPU9250FIFO::getFifoGyroX_rads(unsigned int*, float*) e:\drone_parachute\build\libraries\Bolder_Flight_Systems_MPU9250\MPU9250.cpp.o
MPU9250FIFO::getFifoGyroY_rads(unsigned int*, float*) e:\drone_parachute\build\libraries\Bolder_Flight_Systems_MPU9250\MPU9250.cpp.o
MPU9250FIFO::getFifoGyroZ_rads(unsigned int*, float*) e:\drone_parachute\build\libraries\Bolder_Flight_Systems_MPU9250\MPU9250.cpp.o
MPU9250FIFO::getFifoMagX_uT(unsigned int*, float*) e:\drone_parachute\build\libraries\Bolder_Flight_Systems_MPU9250\MPU9250.cpp.o
MPU9250FIFO::getFifoMagY_uT(unsigned int*, float*) e:\drone_parachute\build\libraries\Bolder_Flight_Systems_MPU9250\MPU9250.cpp.o
MPU9250FIFO::getFifoMagZ_uT(unsigned int*, float*) e:\drone_parachute\build\libraries\Bolder_Flight_Systems_MPU9250\MPU9250.cpp.o
MPU9250FIFO::getFifoTemperature_C(unsigned int*, float*) e:\drone_parachute\build\libraries\Bolder_Flight_Systems_MPU9250\MPU9250.cpp.o
MPU9250FIFO::readFifo()                           e:\drone_parachute\build\libraries\Bolder_Flight_Systems_MPU9250\MPU9250.cpp.o
NOP_Process                                       e:\drone_parachute\build\core\core.a(usb_core.c.o)
                                                  e:\drone_parachute\build\core\core.a(usb_cdcacm.c.o)
Out0_Process                                      e:\drone_parachute\build\core\core.a(usb_core.c.o)
                                                  e:\drone_parachute\build\core\core.a(usb.c.o)
PIN_MAP                                           e:\drone_parachute\build\core\board.cpp.o
                                                  e:\drone_parachute\build\core\core.a(wirish_digital.cpp.o)
                                                  e:\drone_parachute\build\core\core.a(wirish_analog.cpp.o)
                                                  e:\drone_parachute\build\core\core.a(wirish_digital_f1.cpp.o)
                                                  e:\drone_parachute\build\core\core.a(pwm.cpp.o)
                                                  e:\drone_parachute\build\core\core.a(HardwareSerial.cpp.o)
                                                  e:\drone_parachute\build\libraries\Servo\Servo.cpp.o
                                                  e:\drone_parachute\build\libraries\SPI\SPI.cpp.o
                                                  e:\drone_parachute\build\libraries\Wire\SoftWire.cpp.o
PMAToUserBufferCopy                               e:\drone_parachute\build\core\core.a(usb_mem.c.o)
                                                  e:\drone_parachute\build\core\core.a(usb_core.c.o)
Post0_Process                                     e:\drone_parachute\build\core\core.a(usb_core.c.o)
Print::print(Printable const&)                    e:\drone_parachute\build\core\core.a(Print.cpp.o)
Print::print(String const&)                       e:\drone_parachute\build\core\core.a(Print.cpp.o)
Print::print(__FlashStringHelper const*)          e:\drone_parachute\build\core\core.a(Print.cpp.o)
Print::print(char const*)                         e:\drone_parachute\build\core\core.a(Print.cpp.o)
                                                  e:\drone_parachute\build\sketch\main.ino.cpp.o
Print::print(char)                                e:\drone_parachute\build\core\core.a(Print.cpp.o)
Print::print(double, int)                         e:\drone_parachute\build\core\core.a(Print.cpp.o)
                                                  e:\drone_parachute\build\sketch\main.ino.cpp.o
Print::print(int, int)                            e:\drone_parachute\build\core\core.a(Print.cpp.o)
Print::print(long long, int)                      e:\drone_parachute\build\core\core.a(Print.cpp.o)
Print::print(long, int)                           e:\drone_parachute\build\core\core.a(Print.cpp.o)
Print::print(unsigned char, int)                  e:\drone_parachute\build\core\core.a(Print.cpp.o)
Print::print(unsigned int, int)                   e:\drone_parachute\build\core\core.a(Print.cpp.o)
Print::print(unsigned long long, int)             e:\drone_parachute\build\core\core.a(Print.cpp.o)
Print::print(unsigned long, int)                  e:\drone_parachute\build\core\core.a(Print.cpp.o)
Print::printFloat(double, unsigned char)          e:\drone_parachute\build\core\core.a(Print.cpp.o)
Print::printNumber(unsigned long long, unsigned char) e:\drone_parachute\build\core\core.a(Print.cpp.o)
Print::println()                                  e:\drone_parachute\build\core\core.a(Print.cpp.o)
Print::println(Printable const&)                  e:\drone_parachute\build\core\core.a(Print.cpp.o)
Print::println(String const&)                     e:\drone_parachute\build\core\core.a(Print.cpp.o)
Print::println(__FlashStringHelper const*)        e:\drone_parachute\build\core\core.a(Print.cpp.o)
Print::println(char const*)                       e:\drone_parachute\build\core\core.a(Print.cpp.o)
Print::println(char)                              e:\drone_parachute\build\core\core.a(Print.cpp.o)
Print::println(double, int)                       e:\drone_parachute\build\core\core.a(Print.cpp.o)
                                                  e:\drone_parachute\build\sketch\main.ino.cpp.o
Print::println(int, int)                          e:\drone_parachute\build\core\core.a(Print.cpp.o)
Print::println(long long, int)                    e:\drone_parachute\build\core\core.a(Print.cpp.o)
Print::println(long, int)                         e:\drone_parachute\build\core\core.a(Print.cpp.o)
Print::println(unsigned char, int)                e:\drone_parachute\build\core\core.a(Print.cpp.o)
Print::println(unsigned int, int)                 e:\drone_parachute\build\core\core.a(Print.cpp.o)
Print::println(unsigned long long, int)           e:\drone_parachute\build\core\core.a(Print.cpp.o)
Print::println(unsigned long, int)                e:\drone_parachute\build\core\core.a(Print.cpp.o)
Print::write(char const*)                         e:\drone_parachute\build\core\core.a(Print.cpp.o)
                                                  e:\drone_parachute\build\core\core.a(HardwareSerial.cpp.o)
Print::write(void const*, unsigned long)          e:\drone_parachute\build\core\core.a(Print.cpp.o)
                                                  e:\drone_parachute\build\core\core.a(HardwareSerial.cpp.o)
ResumeS                                           e:\drone_parachute\build\core\core.a(usb.c.o)
SPI                                               e:\drone_parachute\build\libraries\SPI\SPI.cpp.o
SPI1                                              e:\drone_parachute\build\core\core.a(spi_f1.c.o)
                                                  e:\drone_parachute\build\libraries\SPI\SPI.cpp.o
SPI2                                              e:\drone_parachute\build\core\core.a(spi_f1.c.o)
                                                  e:\drone_parachute\build\libraries\SPI\SPI.cpp.o
SPIClass::EventCallback()                         e:\drone_parachute\build\libraries\SPI\SPI.cpp.o
SPIClass::SPIClass(unsigned long)                 e:\drone_parachute\build\libraries\SPI\SPI.cpp.o
SPIClass::SPIClass(unsigned long)                 e:\drone_parachute\build\libraries\SPI\SPI.cpp.o
SPIClass::_spi1EventCallback()                    e:\drone_parachute\build\libraries\SPI\SPI.cpp.o
SPIClass::_spi2EventCallback()                    e:\drone_parachute\build\libraries\SPI\SPI.cpp.o
SPIClass::attachInterrupt()                       e:\drone_parachute\build\libraries\SPI\SPI.cpp.o
SPIClass::begin()                                 e:\drone_parachute\build\libraries\SPI\SPI.cpp.o
                                                  e:\drone_parachute\build\libraries\Bolder_Flight_Systems_MPU9250\MPU9250.cpp.o
SPIClass::beginSlave()                            e:\drone_parachute\build\libraries\SPI\SPI.cpp.o
SPIClass::beginTransaction(unsigned char, SPISettings) e:\drone_parachute\build\libraries\SPI\SPI.cpp.o
                                                  e:\drone_parachute\build\libraries\Bolder_Flight_Systems_MPU9250\MPU9250.cpp.o
SPIClass::beginTransactionSlave(SPISettings)      e:\drone_parachute\build\libraries\SPI\SPI.cpp.o
SPIClass::detachInterrupt()                       e:\drone_parachute\build\libraries\SPI\SPI.cpp.o
SPIClass::dmaSend(void const*, unsigned short, bool) e:\drone_parachute\build\libraries\SPI\SPI.cpp.o
SPIClass::dmaSendAsync(void const*, unsigned short, bool) e:\drone_parachute\build\libraries\SPI\SPI.cpp.o
SPIClass::dmaSendRepeat(unsigned short)           e:\drone_parachute\build\libraries\SPI\SPI.cpp.o
SPIClass::dmaSendSet(void const*, bool)           e:\drone_parachute\build\libraries\SPI\SPI.cpp.o
SPIClass::dmaTransfer(void const*, void*, unsigned short) e:\drone_parachute\build\libraries\SPI\SPI.cpp.o
SPIClass::dmaTransferRepeat(unsigned short)       e:\drone_parachute\build\libraries\SPI\SPI.cpp.o
SPIClass::dmaTransferSet(void const*, void*)      e:\drone_parachute\build\libraries\SPI\SPI.cpp.o
SPIClass::end()                                   e:\drone_parachute\build\libraries\SPI\SPI.cpp.o
SPIClass::endTransaction()                        e:\drone_parachute\build\libraries\SPI\SPI.cpp.o
                                                  e:\drone_parachute\build\libraries\Bolder_Flight_Systems_MPU9250\MPU9250.cpp.o
SPIClass::misoPin()                               e:\drone_parachute\build\libraries\SPI\SPI.cpp.o
SPIClass::mosiPin()                               e:\drone_parachute\build\libraries\SPI\SPI.cpp.o
SPIClass::nssPin()                                e:\drone_parachute\build\libraries\SPI\SPI.cpp.o
SPIClass::onReceive(void (*)())                   e:\drone_parachute\build\libraries\SPI\SPI.cpp.o
SPIClass::onTransmit(void (*)())                  e:\drone_parachute\build\libraries\SPI\SPI.cpp.o
SPIClass::read()                                  e:\drone_parachute\build\libraries\SPI\SPI.cpp.o
SPIClass::read(unsigned char*, unsigned long)     e:\drone_parachute\build\libraries\SPI\SPI.cpp.o
SPIClass::recv()                                  e:\drone_parachute\build\libraries\SPI\SPI.cpp.o
SPIClass::sckPin()                                e:\drone_parachute\build\libraries\SPI\SPI.cpp.o
SPIClass::send(unsigned char)                     e:\drone_parachute\build\libraries\SPI\SPI.cpp.o
SPIClass::send(unsigned char*, unsigned long)     e:\drone_parachute\build\libraries\SPI\SPI.cpp.o
SPIClass::setBitOrder(BitOrder)                   e:\drone_parachute\build\libraries\SPI\SPI.cpp.o
SPIClass::setClockDivider(unsigned long)          e:\drone_parachute\build\libraries\SPI\SPI.cpp.o
SPIClass::setDataMode(unsigned char)              e:\drone_parachute\build\libraries\SPI\SPI.cpp.o
SPIClass::setDataSize(unsigned long)              e:\drone_parachute\build\libraries\SPI\SPI.cpp.o
SPIClass::transfer(unsigned char) const           e:\drone_parachute\build\libraries\SPI\SPI.cpp.o
                                                  e:\drone_parachute\build\libraries\Bolder_Flight_Systems_MPU9250\MPU9250.cpp.o
SPIClass::transfer16(unsigned short) const        e:\drone_parachute\build\libraries\SPI\SPI.cpp.o
SPIClass::updateSettings()                        e:\drone_parachute\build\libraries\SPI\SPI.cpp.o
SPIClass::write(unsigned short)                   e:\drone_parachute\build\libraries\SPI\SPI.cpp.o
SPIClass::write(unsigned short, unsigned long)    e:\drone_parachute\build\libraries\SPI\SPI.cpp.o
SPIClass::write(void const*, unsigned long)       e:\drone_parachute\build\libraries\SPI\SPI.cpp.o
SPIClass::write16(unsigned short)                 e:\drone_parachute\build\libraries\SPI\SPI.cpp.o
SaveRState                                        e:\drone_parachute\build\core\core.a(usb_core.c.o)
                                                  e:\drone_parachute\build\core\core.a(usb.c.o)
SaveState                                         e:\drone_parachute\build\core\core.a(usb_init.c.o)
SaveTState                                        e:\drone_parachute\build\core\core.a(usb_core.c.o)
                                                  e:\drone_parachute\build\core\core.a(usb.c.o)
Serial1                                           e:\drone_parachute\build\core\board.cpp.o
                                                  e:\drone_parachute\build\sketch\main.ino.cpp.o
Serial2                                           e:\drone_parachute\build\core\board.cpp.o
Serial3                                           e:\drone_parachute\build\core\board.cpp.o
Servo::Servo()                                    e:\drone_parachute\build\libraries\Servo\Servo.cpp.o
Servo::Servo()                                    e:\drone_parachute\build\libraries\Servo\Servo.cpp.o
                                                  e:\drone_parachute\build\sketch\main.ino.cpp.o
Servo::attach(unsigned char, unsigned short, unsigned short, short, short) e:\drone_parachute\build\libraries\Servo\Servo.cpp.o
                                                  e:\drone_parachute\build\sketch\main.ino.cpp.o
Servo::detach()                                   e:\drone_parachute\build\libraries\Servo\Servo.cpp.o
Servo::read() const                               e:\drone_parachute\build\libraries\Servo\Servo.cpp.o
Servo::readMicroseconds() const                   e:\drone_parachute\build\libraries\Servo\Servo.cpp.o
Servo::resetFields()                              e:\drone_parachute\build\libraries\Servo\Servo.cpp.o
Servo::write(int)                                 e:\drone_parachute\build\libraries\Servo\Servo.cpp.o
                                                  e:\drone_parachute\build\sketch\main.ino.cpp.o
Servo::writeMicroseconds(unsigned short)          e:\drone_parachute\build\libraries\Servo\Servo.cpp.o
SetBTABLE                                         e:\drone_parachute\build\core\core.a(usb_regs.c.o)
SetCNTR                                           e:\drone_parachute\build\core\core.a(usb_regs.c.o)
SetDADDR                                          e:\drone_parachute\build\core\core.a(usb_regs.c.o)
SetDeviceAddress                                  e:\drone_parachute\build\core\core.a(usb_core.c.o)
                                                  e:\drone_parachute\build\core\core.a(usb_cdcacm.c.o)
SetDouBleBuffEPStall                              e:\drone_parachute\build\core\core.a(usb_regs.c.o)
SetENDPOINT                                       e:\drone_parachute\build\core\core.a(usb_regs.c.o)
SetEPAddress                                      e:\drone_parachute\build\core\core.a(usb_regs.c.o)
SetEPCountRxReg                                   e:\drone_parachute\build\core\core.a(usb_regs.c.o)
SetEPDblBuf0Addr                                  e:\drone_parachute\build\core\core.a(usb_regs.c.o)
SetEPDblBuf0Count                                 e:\drone_parachute\build\core\core.a(usb_regs.c.o)
SetEPDblBuf1Addr                                  e:\drone_parachute\build\core\core.a(usb_regs.c.o)
SetEPDblBuf1Count                                 e:\drone_parachute\build\core\core.a(usb_regs.c.o)
SetEPDblBuffAddr                                  e:\drone_parachute\build\core\core.a(usb_regs.c.o)
SetEPDblBuffCount                                 e:\drone_parachute\build\core\core.a(usb_regs.c.o)
SetEPDoubleBuff                                   e:\drone_parachute\build\core\core.a(usb_regs.c.o)
SetEPRxAddr                                       e:\drone_parachute\build\core\core.a(usb_regs.c.o)
SetEPRxCount                                      e:\drone_parachute\build\core\core.a(usb_regs.c.o)
                                                  e:\drone_parachute\build\core\core.a(usb_core.c.o)
SetEPRxStatus                                     e:\drone_parachute\build\core\core.a(usb_regs.c.o)
SetEPRxValid                                      e:\drone_parachute\build\core\core.a(usb_regs.c.o)
SetEPTxAddr                                       e:\drone_parachute\build\core\core.a(usb_regs.c.o)
SetEPTxCount                                      e:\drone_parachute\build\core\core.a(usb_regs.c.o)
                                                  e:\drone_parachute\build\core\core.a(usb_core.c.o)
SetEPTxStatus                                     e:\drone_parachute\build\core\core.a(usb_regs.c.o)
                                                  e:\drone_parachute\build\core\core.a(usb_core.c.o)
SetEPTxValid                                      e:\drone_parachute\build\core\core.a(usb_regs.c.o)
SetEPType                                         e:\drone_parachute\build\core\core.a(usb_regs.c.o)
SetEP_KIND                                        e:\drone_parachute\build\core\core.a(usb_regs.c.o)
SetISTR                                           e:\drone_parachute\build\core\core.a(usb_regs.c.o)
Set_Status_Out                                    e:\drone_parachute\build\core\core.a(usb_regs.c.o)
Setup0_Process                                    e:\drone_parachute\build\core\core.a(usb_core.c.o)
                                                  e:\drone_parachute\build\core\core.a(usb.c.o)
SoftWire::SoftWire(unsigned char, unsigned char, unsigned char) e:\drone_parachute\build\libraries\Wire\SoftWire.cpp.o
SoftWire::SoftWire(unsigned char, unsigned char, unsigned char) e:\drone_parachute\build\libraries\Wire\SoftWire.cpp.o
SoftWire::begin(unsigned char)                    e:\drone_parachute\build\libraries\Wire\SoftWire.cpp.o
SoftWire::end()                                   e:\drone_parachute\build\libraries\Wire\SoftWire.cpp.o
SoftWire::i2c_get_ack()                           e:\drone_parachute\build\libraries\Wire\SoftWire.cpp.o
SoftWire::i2c_repeated_start()                    e:\drone_parachute\build\libraries\Wire\SoftWire.cpp.o
SoftWire::i2c_send_ack()                          e:\drone_parachute\build\libraries\Wire\SoftWire.cpp.o
SoftWire::i2c_send_nack()                         e:\drone_parachute\build\libraries\Wire\SoftWire.cpp.o
SoftWire::i2c_shift_in()                          e:\drone_parachute\build\libraries\Wire\SoftWire.cpp.o
SoftWire::i2c_shift_out(unsigned char)            e:\drone_parachute\build\libraries\Wire\SoftWire.cpp.o
SoftWire::i2c_start()                             e:\drone_parachute\build\libraries\Wire\SoftWire.cpp.o
SoftWire::i2c_stop()                              e:\drone_parachute\build\libraries\Wire\SoftWire.cpp.o
SoftWire::process()                               e:\drone_parachute\build\libraries\Wire\SoftWire.cpp.o
SoftWire::process(unsigned char)                  e:\drone_parachute\build\libraries\Wire\SoftWire.cpp.o
SoftWire::setClock(unsigned long)                 e:\drone_parachute\build\libraries\Wire\SoftWire.cpp.o
SoftWire::set_scl(bool)                           e:\drone_parachute\build\libraries\Wire\SoftWire.cpp.o
SoftWire::set_sda(bool)                           e:\drone_parachute\build\libraries\Wire\SoftWire.cpp.o
SoftWire::~SoftWire()                             e:\drone_parachute\build\libraries\Wire\SoftWire.cpp.o
SoftWire::~SoftWire()                             e:\drone_parachute\build\libraries\Wire\SoftWire.cpp.o
Standard_ClearFeature                             e:\drone_parachute\build\core\core.a(usb_core.c.o)
Standard_GetConfiguration                         e:\drone_parachute\build\core\core.a(usb_core.c.o)
Standard_GetDescriptorData                        e:\drone_parachute\build\core\core.a(usb_core.c.o)
                                                  e:\drone_parachute\build\core\core.a(usb_cdcacm.c.o)
Standard_GetInterface                             e:\drone_parachute\build\core\core.a(usb_core.c.o)
Standard_GetStatus                                e:\drone_parachute\build\core\core.a(usb_core.c.o)
Standard_SetConfiguration                         e:\drone_parachute\build\core\core.a(usb_core.c.o)
Standard_SetDeviceFeature                         e:\drone_parachute\build\core\core.a(usb_core.c.o)
Standard_SetEndPointFeature                       e:\drone_parachute\build\core\core.a(usb_core.c.o)
Standard_SetInterface                             e:\drone_parachute\build\core\core.a(usb_core.c.o)
StatusInfo                                        e:\drone_parachute\build\core\core.a(usb_core.c.o)
TIMER1                                            e:\drone_parachute\build\core\core.a(timer.c.o)
TIMER2                                            e:\drone_parachute\build\core\core.a(timer.c.o)
TIMER3                                            e:\drone_parachute\build\core\core.a(timer.c.o)
TIMER4                                            e:\drone_parachute\build\core\core.a(timer.c.o)
Timer1                                            e:\drone_parachute\build\core\core.a(HardwareTimer.cpp.o)
Timer2                                            e:\drone_parachute\build\core\core.a(HardwareTimer.cpp.o)
Timer3                                            e:\drone_parachute\build\core\core.a(HardwareTimer.cpp.o)
Timer4                                            e:\drone_parachute\build\core\core.a(HardwareTimer.cpp.o)
ToWord                                            e:\drone_parachute\build\core\core.a(usb_regs.c.o)
ToggleDTOG_RX                                     e:\drone_parachute\build\core\core.a(usb_regs.c.o)
ToggleDTOG_TX                                     e:\drone_parachute\build\core\core.a(usb_regs.c.o)
TwoWire::TwoWire(unsigned char, unsigned char, unsigned long) e:\drone_parachute\build\libraries\Wire\Wire.cpp.o
TwoWire::TwoWire(unsigned char, unsigned char, unsigned long) e:\drone_parachute\build\libraries\Wire\Wire.cpp.o
TwoWire::begin(unsigned char)                     e:\drone_parachute\build\libraries\Wire\Wire.cpp.o
TwoWire::end()                                    e:\drone_parachute\build\libraries\Wire\Wire.cpp.o
TwoWire::process()                                e:\drone_parachute\build\libraries\Wire\Wire.cpp.o
TwoWire::process(unsigned char)                   e:\drone_parachute\build\libraries\Wire\Wire.cpp.o
TwoWire::setClock(unsigned long)                  e:\drone_parachute\build\libraries\Wire\Wire.cpp.o
                                                  e:\drone_parachute\build\libraries\Bolder_Flight_Systems_MPU9250\MPU9250.cpp.o
TwoWire::~TwoWire()                               e:\drone_parachute\build\libraries\Wire\Wire.cpp.o
TwoWire::~TwoWire()                               e:\drone_parachute\build\libraries\Wire\Wire.cpp.o
USART1                                            e:\drone_parachute\build\core\core.a(usart_f1.c.o)
                                                  e:\drone_parachute\build\core\board.cpp.o
USART2                                            e:\drone_parachute\build\core\core.a(usart_f1.c.o)
                                                  e:\drone_parachute\build\core\board.cpp.o
USART3                                            e:\drone_parachute\build\core\core.a(usart_f1.c.o)
                                                  e:\drone_parachute\build\core\board.cpp.o
USBLIB                                            e:\drone_parachute\build\core\core.a(usb.c.o)
                                                  e:\drone_parachute\build\core\core.a(usb_cdcacm.c.o)
USB_Init                                          e:\drone_parachute\build\core\core.a(usb_init.c.o)
UserToPMABufferCopy                               e:\drone_parachute\build\core\core.a(usb_mem.c.o)
                                                  e:\drone_parachute\build\core\core.a(usb_core.c.o)
User_Standard_Requests                            e:\drone_parachute\build\core\core.a(usb_cdcacm.c.o)
                                                  e:\drone_parachute\build\core\core.a(usb_init.c.o)
                                                  e:\drone_parachute\build\core\core.a(usb.c.o)
Wire                                              e:\drone_parachute\build\libraries\Wire\Wire.cpp.o
                                                  e:\drone_parachute\build\sketch\main.ino.cpp.o
WireBase::available()                             e:\drone_parachute\build\libraries\Wire\utility\WireBase.cpp.o
WireBase::begin(unsigned char)                    e:\drone_parachute\build\libraries\Wire\utility\WireBase.cpp.o
WireBase::beginTransmission(int)                  e:\drone_parachute\build\libraries\Wire\utility\WireBase.cpp.o
WireBase::beginTransmission(unsigned char)        e:\drone_parachute\build\libraries\Wire\utility\WireBase.cpp.o
                                                  e:\drone_parachute\build\libraries\Bolder_Flight_Systems_MPU9250\MPU9250.cpp.o
WireBase::end()                                   e:\drone_parachute\build\libraries\Wire\utility\WireBase.cpp.o
WireBase::endTransmission()                       e:\drone_parachute\build\libraries\Wire\utility\WireBase.cpp.o
                                                  e:\drone_parachute\build\libraries\Bolder_Flight_Systems_MPU9250\MPU9250.cpp.o
WireBase::endTransmission(bool)                   e:\drone_parachute\build\libraries\Wire\utility\WireBase.cpp.o
                                                  e:\drone_parachute\build\libraries\Bolder_Flight_Systems_MPU9250\MPU9250.cpp.o
WireBase::read()                                  e:\drone_parachute\build\libraries\Wire\utility\WireBase.cpp.o
                                                  e:\drone_parachute\build\libraries\Bolder_Flight_Systems_MPU9250\MPU9250.cpp.o
WireBase::requestFrom(int, int, bool)             e:\drone_parachute\build\libraries\Wire\utility\WireBase.cpp.o
WireBase::requestFrom(unsigned char, int, bool)   e:\drone_parachute\build\libraries\Wire\utility\WireBase.cpp.o
                                                  e:\drone_parachute\build\libraries\Bolder_Flight_Systems_MPU9250\MPU9250.cpp.o
WireBase::write(char*)                            e:\drone_parachute\build\libraries\Wire\utility\WireBase.cpp.o
WireBase::write(int)                              e:\drone_parachute\build\libraries\Wire\utility\WireBase.cpp.o
WireBase::write(int*, int)                        e:\drone_parachute\build\libraries\Wire\utility\WireBase.cpp.o
WireBase::write(unsigned char)                    e:\drone_parachute\build\libraries\Wire\utility\WireBase.cpp.o
                                                  e:\drone_parachute\build\libraries\Bolder_Flight_Systems_MPU9250\MPU9250.cpp.o
WireBase::write(unsigned char*, int)              e:\drone_parachute\build\libraries\Wire\utility\WireBase.cpp.o
_Jv_RegisterClasses                               c:/users/param/appdata/local/arduino15/packages/arduino/tools/arm-none-eabi-gcc/4.8.3-2014q1/bin/../lib/gcc/arm-none-eabi/4.8.3/armv7-m/crtbegin.o
__adddf3                                          c:/users/param/appdata/local/arduino15/packages/arduino/tools/arm-none-eabi-gcc/4.8.3-2014q1/bin/../lib/gcc/arm-none-eabi/4.8.3/armv7-m\libgcc.a(_arm_addsubdf3.o)
__addsf3                                          c:/users/param/appdata/local/arduino15/packages/arduino/tools/arm-none-eabi-gcc/4.8.3-2014q1/bin/../lib/gcc/arm-none-eabi/4.8.3/armv7-m\libgcc.a(_arm_addsubsf3.o)
__aeabi_cdcmpeq                                   c:/users/param/appdata/local/arduino15/packages/arduino/tools/arm-none-eabi-gcc/4.8.3-2014q1/bin/../lib/gcc/arm-none-eabi/4.8.3/armv7-m\libgcc.a(_arm_cmpdf2.o)
__aeabi_cdcmple                                   c:/users/param/appdata/local/arduino15/packages/arduino/tools/arm-none-eabi-gcc/4.8.3-2014q1/bin/../lib/gcc/arm-none-eabi/4.8.3/armv7-m\libgcc.a(_arm_cmpdf2.o)
__aeabi_cdrcmple                                  c:/users/param/appdata/local/arduino15/packages/arduino/tools/arm-none-eabi-gcc/4.8.3-2014q1/bin/../lib/gcc/arm-none-eabi/4.8.3/armv7-m\libgcc.a(_arm_cmpdf2.o)
__aeabi_cfcmpeq                                   c:/users/param/appdata/local/arduino15/packages/arduino/tools/arm-none-eabi-gcc/4.8.3-2014q1/bin/../lib/gcc/arm-none-eabi/4.8.3/armv7-m\libgcc.a(_arm_cmpsf2.o)
__aeabi_cfcmple                                   c:/users/param/appdata/local/arduino15/packages/arduino/tools/arm-none-eabi-gcc/4.8.3-2014q1/bin/../lib/gcc/arm-none-eabi/4.8.3/armv7-m\libgcc.a(_arm_cmpsf2.o)
__aeabi_cfrcmple                                  c:/users/param/appdata/local/arduino15/packages/arduino/tools/arm-none-eabi-gcc/4.8.3-2014q1/bin/../lib/gcc/arm-none-eabi/4.8.3/armv7-m\libgcc.a(_arm_cmpsf2.o)
__aeabi_d2f                                       c:/users/param/appdata/local/arduino15/packages/arduino/tools/arm-none-eabi-gcc/4.8.3-2014q1/bin/../lib/gcc/arm-none-eabi/4.8.3/armv7-m\libgcc.a(_arm_truncdfsf2.o)
                                                  e:\drone_parachute\build\libraries\Bolder_Flight_Systems_MPU9250\MPU9250.cpp.o
                                                  e:\drone_parachute\build\sketch\main.ino.cpp.o
__aeabi_d2iz                                      c:/users/param/appdata/local/arduino15/packages/arduino/tools/arm-none-eabi-gcc/4.8.3-2014q1/bin/../lib/gcc/arm-none-eabi/4.8.3/armv7-m\libgcc.a(_arm_fixdfsi.o)
                                                  e:\drone_parachute\build\core\core.a(Print.cpp.o)
__aeabi_d2lz                                      c:/users/param/appdata/local/arduino15/packages/arduino/tools/arm-none-eabi-gcc/4.8.3-2014q1/bin/../lib/gcc/arm-none-eabi/4.8.3/armv7-m\libgcc.a(_fixdfdi.o)
                                                  e:\drone_parachute\build\core\core.a(Print.cpp.o)
__aeabi_d2uiz                                     c:/users/param/appdata/local/arduino15/packages/arduino/tools/arm-none-eabi-gcc/4.8.3-2014q1/bin/../lib/gcc/arm-none-eabi/4.8.3/armv7-m\libgcc.a(_arm_fixunsdfsi.o)
                                                  c:/users/param/appdata/local/arduino15/packages/arduino/tools/arm-none-eabi-gcc/4.8.3-2014q1/bin/../lib/gcc/arm-none-eabi/4.8.3/armv7-m\libgcc.a(_fixunsdfdi.o)
__aeabi_d2ulz                                     c:/users/param/appdata/local/arduino15/packages/arduino/tools/arm-none-eabi-gcc/4.8.3-2014q1/bin/../lib/gcc/arm-none-eabi/4.8.3/armv7-m\libgcc.a(_fixunsdfdi.o)
                                                  c:/users/param/appdata/local/arduino15/packages/arduino/tools/arm-none-eabi-gcc/4.8.3-2014q1/bin/../lib/gcc/arm-none-eabi/4.8.3/armv7-m\libgcc.a(_fixdfdi.o)
__aeabi_dadd                                      c:/users/param/appdata/local/arduino15/packages/arduino/tools/arm-none-eabi-gcc/4.8.3-2014q1/bin/../lib/gcc/arm-none-eabi/4.8.3/armv7-m\libgcc.a(_arm_addsubdf3.o)
                                                  c:/users/param/appdata/local/arduino15/packages/arduino/tools/arm-none-eabi-gcc/4.8.3-2014q1/bin/../lib/gcc/arm-none-eabi/4.8.3/../../../../arm-none-eabi/lib/armv7-m\libm.a(lib_a-e_sqrt.o)
                                                  e:\drone_parachute\build\core\core.a(Print.cpp.o)
                                                  e:\drone_parachute\build\libraries\Bolder_Flight_Systems_MPU9250\MPU9250.cpp.o
__aeabi_dcmpeq                                    c:/users/param/appdata/local/arduino15/packages/arduino/tools/arm-none-eabi-gcc/4.8.3-2014q1/bin/../lib/gcc/arm-none-eabi/4.8.3/armv7-m\libgcc.a(_arm_cmpdf2.o)
__aeabi_dcmpge                                    c:/users/param/appdata/local/arduino15/packages/arduino/tools/arm-none-eabi-gcc/4.8.3-2014q1/bin/../lib/gcc/arm-none-eabi/4.8.3/armv7-m\libgcc.a(_arm_cmpdf2.o)
                                                  e:\drone_parachute\build\core\core.a(Print.cpp.o)
__aeabi_dcmpgt                                    c:/users/param/appdata/local/arduino15/packages/arduino/tools/arm-none-eabi-gcc/4.8.3-2014q1/bin/../lib/gcc/arm-none-eabi/4.8.3/armv7-m\libgcc.a(_arm_cmpdf2.o)
                                                  e:\drone_parachute\build\core\core.a(Print.cpp.o)
                                                  e:\drone_parachute\build\libraries\Bolder_Flight_Systems_MPU9250\MPU9250.cpp.o
__aeabi_dcmple                                    c:/users/param/appdata/local/arduino15/packages/arduino/tools/arm-none-eabi-gcc/4.8.3-2014q1/bin/../lib/gcc/arm-none-eabi/4.8.3/armv7-m\libgcc.a(_arm_cmpdf2.o)
                                                  e:\drone_parachute\build\core\core.a(Print.cpp.o)
                                                  e:\drone_parachute\build\sketch\main.ino.cpp.o
__aeabi_dcmplt                                    c:/users/param/appdata/local/arduino15/packages/arduino/tools/arm-none-eabi-gcc/4.8.3-2014q1/bin/../lib/gcc/arm-none-eabi/4.8.3/armv7-m\libgcc.a(_arm_cmpdf2.o)
                                                  c:/users/param/appdata/local/arduino15/packages/arduino/tools/arm-none-eabi-gcc/4.8.3-2014q1/bin/../lib/gcc/arm-none-eabi/4.8.3/armv7-m\libgcc.a(_fixdfdi.o)
                                                  c:/users/param/appdata/local/arduino15/packages/arduino/tools/arm-none-eabi-gcc/4.8.3-2014q1/bin/../lib/gcc/arm-none-eabi/4.8.3/../../../../arm-none-eabi/lib/armv7-m\libm.a(lib_a-w_sqrt.o)
                                                  e:\drone_parachute\build\core\core.a(Print.cpp.o)
                                                  e:\drone_parachute\build\libraries\Bolder_Flight_Systems_MPU9250\MPU9250.cpp.o
__aeabi_ddiv                                      c:/users/param/appdata/local/arduino15/packages/arduino/tools/arm-none-eabi-gcc/4.8.3-2014q1/bin/../lib/gcc/arm-none-eabi/4.8.3/armv7-m\libgcc.a(_arm_muldivdf3.o)
                                                  c:/users/param/appdata/local/arduino15/packages/arduino/tools/arm-none-eabi-gcc/4.8.3-2014q1/bin/../lib/gcc/arm-none-eabi/4.8.3/../../../../arm-none-eabi/lib/armv7-m\libm.a(lib_a-e_sqrt.o)
                                                  c:/users/param/appdata/local/arduino15/packages/arduino/tools/arm-none-eabi-gcc/4.8.3-2014q1/bin/../lib/gcc/arm-none-eabi/4.8.3/../../../../arm-none-eabi/lib/armv7-m\libm.a(lib_a-w_sqrt.o)
                                                  e:\drone_parachute\build\core\core.a(Print.cpp.o)
                                                  e:\drone_parachute\build\libraries\Bolder_Flight_Systems_MPU9250\MPU9250.cpp.o
__aeabi_dmul                                      c:/users/param/appdata/local/arduino15/packages/arduino/tools/arm-none-eabi-gcc/4.8.3-2014q1/bin/../lib/gcc/arm-none-eabi/4.8.3/armv7-m\libgcc.a(_arm_muldivdf3.o)
                                                  c:/users/param/appdata/local/arduino15/packages/arduino/tools/arm-none-eabi-gcc/4.8.3-2014q1/bin/../lib/gcc/arm-none-eabi/4.8.3/armv7-m\libgcc.a(_fixunsdfdi.o)
                                                  c:/users/param/appdata/local/arduino15/packages/arduino/tools/arm-none-eabi-gcc/4.8.3-2014q1/bin/../lib/gcc/arm-none-eabi/4.8.3/../../../../arm-none-eabi/lib/armv7-m\libm.a(lib_a-e_sqrt.o)
                                                  e:\drone_parachute\build\core\core.a(Print.cpp.o)
__aeabi_drsub                                     c:/users/param/appdata/local/arduino15/packages/arduino/tools/arm-none-eabi-gcc/4.8.3-2014q1/bin/../lib/gcc/arm-none-eabi/4.8.3/armv7-m\libgcc.a(_arm_addsubdf3.o)
__aeabi_dsub                                      c:/users/param/appdata/local/arduino15/packages/arduino/tools/arm-none-eabi-gcc/4.8.3-2014q1/bin/../lib/gcc/arm-none-eabi/4.8.3/armv7-m\libgcc.a(_arm_addsubdf3.o)
                                                  c:/users/param/appdata/local/arduino15/packages/arduino/tools/arm-none-eabi-gcc/4.8.3-2014q1/bin/../lib/gcc/arm-none-eabi/4.8.3/armv7-m\libgcc.a(_fixunsdfdi.o)
                                                  c:/users/param/appdata/local/arduino15/packages/arduino/tools/arm-none-eabi-gcc/4.8.3-2014q1/bin/../lib/gcc/arm-none-eabi/4.8.3/../../../../arm-none-eabi/lib/armv7-m\libm.a(lib_a-e_sqrt.o)
                                                  e:\drone_parachute\build\core\core.a(Print.cpp.o)
__aeabi_f2d                                       c:/users/param/appdata/local/arduino15/packages/arduino/tools/arm-none-eabi-gcc/4.8.3-2014q1/bin/../lib/gcc/arm-none-eabi/4.8.3/armv7-m\libgcc.a(_arm_addsubdf3.o)
                                                  e:\drone_parachute\build\libraries\Bolder_Flight_Systems_MPU9250\MPU9250.cpp.o
                                                  e:\drone_parachute\build\sketch\main.ino.cpp.o
__aeabi_f2iz                                      c:/users/param/appdata/local/arduino15/packages/arduino/tools/arm-none-eabi-gcc/4.8.3-2014q1/bin/../lib/gcc/arm-none-eabi/4.8.3/armv7-m\libgcc.a(_arm_fixsfsi.o)
                                                  e:\drone_parachute\build\libraries\Bolder_Flight_Systems_MPU9250\MPU9250.cpp.o
__aeabi_fadd                                      c:/users/param/appdata/local/arduino15/packages/arduino/tools/arm-none-eabi-gcc/4.8.3-2014q1/bin/../lib/gcc/arm-none-eabi/4.8.3/armv7-m\libgcc.a(_arm_addsubsf3.o)
                                                  e:\drone_parachute\build\libraries\Bolder_Flight_Systems_MPU9250\MPU9250.cpp.o
                                                  e:\drone_parachute\build\sketch\main.ino.cpp.o
__aeabi_fcmpeq                                    c:/users/param/appdata/local/arduino15/packages/arduino/tools/arm-none-eabi-gcc/4.8.3-2014q1/bin/../lib/gcc/arm-none-eabi/4.8.3/armv7-m\libgcc.a(_arm_cmpsf2.o)
__aeabi_fcmpge                                    c:/users/param/appdata/local/arduino15/packages/arduino/tools/arm-none-eabi-gcc/4.8.3-2014q1/bin/../lib/gcc/arm-none-eabi/4.8.3/armv7-m\libgcc.a(_arm_cmpsf2.o)
                                                  e:\drone_parachute\build\sketch\main.ino.cpp.o
__aeabi_fcmpgt                                    c:/users/param/appdata/local/arduino15/packages/arduino/tools/arm-none-eabi-gcc/4.8.3-2014q1/bin/../lib/gcc/arm-none-eabi/4.8.3/armv7-m\libgcc.a(_arm_cmpsf2.o)
                                                  e:\drone_parachute\build\libraries\Bolder_Flight_Systems_MPU9250\MPU9250.cpp.o
                                                  e:\drone_parachute\build\sketch\main.ino.cpp.o
__aeabi_fcmple                                    c:/users/param/appdata/local/arduino15/packages/arduino/tools/arm-none-eabi-gcc/4.8.3-2014q1/bin/../lib/gcc/arm-none-eabi/4.8.3/armv7-m\libgcc.a(_arm_cmpsf2.o)
                                                  e:\drone_parachute\build\sketch\main.ino.cpp.o
__aeabi_fcmplt                                    c:/users/param/appdata/local/arduino15/packages/arduino/tools/arm-none-eabi-gcc/4.8.3-2014q1/bin/../lib/gcc/arm-none-eabi/4.8.3/armv7-m\libgcc.a(_arm_cmpsf2.o)
                                                  e:\drone_parachute\build\libraries\Bolder_Flight_Systems_MPU9250\MPU9250.cpp.o
                                                  e:\drone_parachute\build\sketch\main.ino.cpp.o
__aeabi_fdiv                                      c:/users/param/appdata/local/arduino15/packages/arduino/tools/arm-none-eabi-gcc/4.8.3-2014q1/bin/../lib/gcc/arm-none-eabi/4.8.3/armv7-m\libgcc.a(_arm_muldivsf3.o)
                                                  e:\drone_parachute\build\libraries\Bolder_Flight_Systems_MPU9250\MPU9250.cpp.o
__aeabi_fmul                                      c:/users/param/appdata/local/arduino15/packages/arduino/tools/arm-none-eabi-gcc/4.8.3-2014q1/bin/../lib/gcc/arm-none-eabi/4.8.3/armv7-m\libgcc.a(_arm_muldivsf3.o)
                                                  e:\drone_parachute\build\libraries\Bolder_Flight_Systems_MPU9250\MPU9250.cpp.o
                                                  e:\drone_parachute\build\sketch\main.ino.cpp.o
__aeabi_frsub                                     c:/users/param/appdata/local/arduino15/packages/arduino/tools/arm-none-eabi-gcc/4.8.3-2014q1/bin/../lib/gcc/arm-none-eabi/4.8.3/armv7-m\libgcc.a(_arm_addsubsf3.o)
__aeabi_fsub                                      c:/users/param/appdata/local/arduino15/packages/arduino/tools/arm-none-eabi-gcc/4.8.3-2014q1/bin/../lib/gcc/arm-none-eabi/4.8.3/armv7-m\libgcc.a(_arm_addsubsf3.o)
                                                  e:\drone_parachute\build\libraries\Bolder_Flight_Systems_MPU9250\MPU9250.cpp.o
__aeabi_i2d                                       c:/users/param/appdata/local/arduino15/packages/arduino/tools/arm-none-eabi-gcc/4.8.3-2014q1/bin/../lib/gcc/arm-none-eabi/4.8.3/armv7-m\libgcc.a(_arm_addsubdf3.o)
                                                  e:\drone_parachute\build\core\core.a(Print.cpp.o)
__aeabi_i2f                                       c:/users/param/appdata/local/arduino15/packages/arduino/tools/arm-none-eabi-gcc/4.8.3-2014q1/bin/../lib/gcc/arm-none-eabi/4.8.3/armv7-m\libgcc.a(_arm_addsubsf3.o)
                                                  e:\drone_parachute\build\libraries\Bolder_Flight_Systems_MPU9250\MPU9250.cpp.o
__aeabi_idiv0                                     c:/users/param/appdata/local/arduino15/packages/arduino/tools/arm-none-eabi-gcc/4.8.3-2014q1/bin/../lib/gcc/arm-none-eabi/4.8.3/armv7-m\libgcc.a(_dvmd_tls.o)
__aeabi_l2d                                       c:/users/param/appdata/local/arduino15/packages/arduino/tools/arm-none-eabi-gcc/4.8.3-2014q1/bin/../lib/gcc/arm-none-eabi/4.8.3/armv7-m\libgcc.a(_arm_addsubdf3.o)
                                                  e:\drone_parachute\build\core\core.a(Print.cpp.o)
__aeabi_l2f                                       c:/users/param/appdata/local/arduino15/packages/arduino/tools/arm-none-eabi-gcc/4.8.3-2014q1/bin/../lib/gcc/arm-none-eabi/4.8.3/armv7-m\libgcc.a(_arm_addsubsf3.o)
__aeabi_ldiv0                                     c:/users/param/appdata/local/arduino15/packages/arduino/tools/arm-none-eabi-gcc/4.8.3-2014q1/bin/../lib/gcc/arm-none-eabi/4.8.3/armv7-m\libgcc.a(_dvmd_tls.o)
                                                  c:/users/param/appdata/local/arduino15/packages/arduino/tools/arm-none-eabi-gcc/4.8.3-2014q1/bin/../lib/gcc/arm-none-eabi/4.8.3/armv7-m\libgcc.a(_aeabi_uldivmod.o)
                                                  c:/users/param/appdata/local/arduino15/packages/arduino/tools/arm-none-eabi-gcc/4.8.3-2014q1/bin/../lib/gcc/arm-none-eabi/4.8.3/armv7-m\libgcc.a(_aeabi_ldivmod.o)
__aeabi_ldivmod                                   c:/users/param/appdata/local/arduino15/packages/arduino/tools/arm-none-eabi-gcc/4.8.3-2014q1/bin/../lib/gcc/arm-none-eabi/4.8.3/armv7-m\libgcc.a(_aeabi_ldivmod.o)
                                                  e:\drone_parachute\build\libraries\Servo\Servo.cpp.o
                                                  e:\drone_parachute\build\libraries\Bolder_Flight_Systems_MPU9250\MPU9250.cpp.o
__aeabi_ui2d                                      c:/users/param/appdata/local/arduino15/packages/arduino/tools/arm-none-eabi-gcc/4.8.3-2014q1/bin/../lib/gcc/arm-none-eabi/4.8.3/armv7-m\libgcc.a(_arm_addsubdf3.o)
                                                  c:/users/param/appdata/local/arduino15/packages/arduino/tools/arm-none-eabi-gcc/4.8.3-2014q1/bin/../lib/gcc/arm-none-eabi/4.8.3/armv7-m\libgcc.a(_fixunsdfdi.o)
                                                  e:\drone_parachute\build\libraries\Bolder_Flight_Systems_MPU9250\MPU9250.cpp.o
__aeabi_ui2f                                      c:/users/param/appdata/local/arduino15/packages/arduino/tools/arm-none-eabi-gcc/4.8.3-2014q1/bin/../lib/gcc/arm-none-eabi/4.8.3/armv7-m\libgcc.a(_arm_addsubsf3.o)
                                                  e:\drone_parachute\build\libraries\Bolder_Flight_Systems_MPU9250\MPU9250.cpp.o
                                                  e:\drone_parachute\build\sketch\main.ino.cpp.o
__aeabi_ul2d                                      c:/users/param/appdata/local/arduino15/packages/arduino/tools/arm-none-eabi-gcc/4.8.3-2014q1/bin/../lib/gcc/arm-none-eabi/4.8.3/armv7-m\libgcc.a(_arm_addsubdf3.o)
__aeabi_ul2f                                      c:/users/param/appdata/local/arduino15/packages/arduino/tools/arm-none-eabi-gcc/4.8.3-2014q1/bin/../lib/gcc/arm-none-eabi/4.8.3/armv7-m\libgcc.a(_arm_addsubsf3.o)
__aeabi_uldivmod                                  c:/users/param/appdata/local/arduino15/packages/arduino/tools/arm-none-eabi-gcc/4.8.3-2014q1/bin/../lib/gcc/arm-none-eabi/4.8.3/armv7-m\libgcc.a(_aeabi_uldivmod.o)
                                                  e:\drone_parachute\build\core\core.a(Print.cpp.o)
__assert_func                                     e:\drone_parachute\build\core\core.a(util.c.o)
__bss_end__                                       e:\drone_parachute\build\core\wirish\start_c.c.o
                                                  c:/users/param/appdata/local/arduino15/packages/arduino/tools/arm-none-eabi-gcc/4.8.3-2014q1/bin/../lib/gcc/arm-none-eabi/4.8.3/../../../../arm-none-eabi/lib/armv7-m/crt0.o
__bss_start__                                     e:\drone_parachute\build\core\wirish\start_c.c.o
                                                  c:/users/param/appdata/local/arduino15/packages/arduino/tools/arm-none-eabi-gcc/4.8.3-2014q1/bin/../lib/gcc/arm-none-eabi/4.8.3/../../../../arm-none-eabi/lib/armv7-m/crt0.o
__call_exitprocs                                  c:/users/param/appdata/local/arduino15/packages/arduino/tools/arm-none-eabi-gcc/4.8.3-2014q1/bin/../lib/gcc/arm-none-eabi/4.8.3/../../../../arm-none-eabi/lib/armv7-m\libc.a(lib_a-__call_atexit.o)
                                                  c:/users/param/appdata/local/arduino15/packages/arduino/tools/arm-none-eabi-gcc/4.8.3-2014q1/bin/../lib/gcc/arm-none-eabi/4.8.3/../../../../arm-none-eabi/lib/armv7-m\libc.a(lib_a-exit.o)
__cmpdf2                                          c:/users/param/appdata/local/arduino15/packages/arduino/tools/arm-none-eabi-gcc/4.8.3-2014q1/bin/../lib/gcc/arm-none-eabi/4.8.3/armv7-m\libgcc.a(_arm_cmpdf2.o)
__cmpsf2                                          c:/users/param/appdata/local/arduino15/packages/arduino/tools/arm-none-eabi-gcc/4.8.3-2014q1/bin/../lib/gcc/arm-none-eabi/4.8.3/armv7-m\libgcc.a(_arm_cmpsf2.o)
__cxa_demangle                                    e:\drone_parachute\build\core\core.a(cxxabi-compat.cpp.o)
__cxa_pure_virtual                                e:\drone_parachute\build\core\core.a(cxxabi-compat.cpp.o)
                                                  e:\drone_parachute\build\core\core.a(Print.cpp.o)
                                                  e:\drone_parachute\build\core\core.a(HardwareSerial.cpp.o)
                                                  e:\drone_parachute\build\libraries\Wire\utility\WireBase.cpp.o
__data_end__                                      e:\drone_parachute\build\core\wirish\start_c.c.o
__data_start__                                    e:\drone_parachute\build\core\wirish\start_c.c.o
__default_handler                                 e:\drone_parachute\build\core\core.a(isrs.S.o)
__deregister_frame_info                           c:/users/param/appdata/local/arduino15/packages/arduino/tools/arm-none-eabi-gcc/4.8.3-2014q1/bin/../lib/gcc/arm-none-eabi/4.8.3/armv7-m/crtbegin.o
__divdf3                                          c:/users/param/appdata/local/arduino15/packages/arduino/tools/arm-none-eabi-gcc/4.8.3-2014q1/bin/../lib/gcc/arm-none-eabi/4.8.3/armv7-m\libgcc.a(_arm_muldivdf3.o)
__divdi3                                          c:/users/param/appdata/local/arduino15/packages/arduino/tools/arm-none-eabi-gcc/4.8.3-2014q1/bin/../lib/gcc/arm-none-eabi/4.8.3/armv7-m\libgcc.a(_divdi3.o)
                                                  c:/users/param/appdata/local/arduino15/packages/arduino/tools/arm-none-eabi-gcc/4.8.3-2014q1/bin/../lib/gcc/arm-none-eabi/4.8.3/armv7-m\libgcc.a(bpabi.o)
__divsf3                                          c:/users/param/appdata/local/arduino15/packages/arduino/tools/arm-none-eabi-gcc/4.8.3-2014q1/bin/../lib/gcc/arm-none-eabi/4.8.3/armv7-m\libgcc.a(_arm_muldivsf3.o)
__dso_handle                                      c:/users/param/appdata/local/arduino15/packages/arduino/tools/arm-none-eabi-gcc/4.8.3-2014q1/bin/../lib/gcc/arm-none-eabi/4.8.3/armv7-m/crtbegin.o
__eqdf2                                           c:/users/param/appdata/local/arduino15/packages/arduino/tools/arm-none-eabi-gcc/4.8.3-2014q1/bin/../lib/gcc/arm-none-eabi/4.8.3/armv7-m\libgcc.a(_arm_cmpdf2.o)
__eqsf2                                           c:/users/param/appdata/local/arduino15/packages/arduino/tools/arm-none-eabi-gcc/4.8.3-2014q1/bin/../lib/gcc/arm-none-eabi/4.8.3/armv7-m\libgcc.a(_arm_cmpsf2.o)
__errno                                           c:/users/param/appdata/local/arduino15/packages/arduino/tools/arm-none-eabi-gcc/4.8.3-2014q1/bin/../lib/gcc/arm-none-eabi/4.8.3/../../../../arm-none-eabi/lib/armv7-m\libc.a(lib_a-errno.o)
                                                  c:/users/param/appdata/local/arduino15/packages/arduino/tools/arm-none-eabi-gcc/4.8.3-2014q1/bin/../lib/gcc/arm-none-eabi/4.8.3/../../../../arm-none-eabi/lib/armv7-m\libm.a(lib_a-w_sqrt.o)
                                                  e:\drone_parachute\build\core\wirish\syscalls.c.o
__error                                           e:\drone_parachute\build\core\core.a(util.c.o)
                                                  e:\drone_parachute\build\core\core.a(exc.S.o)
__exc_busfault                                    e:\drone_parachute\build\core\core.a(exc.S.o)
                                                  e:\drone_parachute\build\core\core.a(vector_table.S.o)
__exc_debug_monitor                               e:\drone_parachute\build\core\core.a(isrs.S.o)
                                                  e:\drone_parachute\build\core\core.a(vector_table.S.o)
__exc_hardfault                                   e:\drone_parachute\build\core\core.a(exc.S.o)
                                                  e:\drone_parachute\build\core\core.a(vector_table.S.o)
__exc_memmanage                                   e:\drone_parachute\build\core\core.a(exc.S.o)
                                                  e:\drone_parachute\build\core\core.a(vector_table.S.o)
__exc_nmi                                         e:\drone_parachute\build\core\core.a(exc.S.o)
                                                  e:\drone_parachute\build\core\core.a(vector_table.S.o)
__exc_pendsv                                      e:\drone_parachute\build\core\core.a(isrs.S.o)
                                                  e:\drone_parachute\build\core\core.a(vector_table.S.o)
__exc_reset                                       e:\drone_parachute\build\core\core.a(vector_table.S.o)
__exc_svc                                         e:\drone_parachute\build\core\core.a(isrs.S.o)
                                                  e:\drone_parachute\build\core\core.a(vector_table.S.o)
__exc_systick                                     e:\drone_parachute\build\core\core.a(systick.c.o)
                                                  e:\drone_parachute\build\core\core.a(vector_table.S.o)
__exc_usagefault                                  e:\drone_parachute\build\core\core.a(exc.S.o)
                                                  e:\drone_parachute\build\core\core.a(vector_table.S.o)
__extendsfdf2                                     c:/users/param/appdata/local/arduino15/packages/arduino/tools/arm-none-eabi-gcc/4.8.3-2014q1/bin/../lib/gcc/arm-none-eabi/4.8.3/armv7-m\libgcc.a(_arm_addsubdf3.o)
__fdlib_version                                   c:/users/param/appdata/local/arduino15/packages/arduino/tools/arm-none-eabi-gcc/4.8.3-2014q1/bin/../lib/gcc/arm-none-eabi/4.8.3/../../../../arm-none-eabi/lib/armv7-m\libm.a(lib_a-s_lib_ver.o)
                                                  c:/users/param/appdata/local/arduino15/packages/arduino/tools/arm-none-eabi-gcc/4.8.3-2014q1/bin/../lib/gcc/arm-none-eabi/4.8.3/../../../../arm-none-eabi/lib/armv7-m\libm.a(lib_a-w_sqrt.o)
__fini_array_end                                  c:/users/param/appdata/local/arduino15/packages/arduino/tools/arm-none-eabi-gcc/4.8.3-2014q1/bin/../lib/gcc/arm-none-eabi/4.8.3/../../../../arm-none-eabi/lib/armv7-m\libc.a(lib_a-fini.o)
__fini_array_start                                c:/users/param/appdata/local/arduino15/packages/arduino/tools/arm-none-eabi-gcc/4.8.3-2014q1/bin/../lib/gcc/arm-none-eabi/4.8.3/../../../../arm-none-eabi/lib/armv7-m\libc.a(lib_a-fini.o)
__fixdfdi                                         c:/users/param/appdata/local/arduino15/packages/arduino/tools/arm-none-eabi-gcc/4.8.3-2014q1/bin/../lib/gcc/arm-none-eabi/4.8.3/armv7-m\libgcc.a(_fixdfdi.o)
__fixdfsi                                         c:/users/param/appdata/local/arduino15/packages/arduino/tools/arm-none-eabi-gcc/4.8.3-2014q1/bin/../lib/gcc/arm-none-eabi/4.8.3/armv7-m\libgcc.a(_arm_fixdfsi.o)
__fixsfsi                                         c:/users/param/appdata/local/arduino15/packages/arduino/tools/arm-none-eabi-gcc/4.8.3-2014q1/bin/../lib/gcc/arm-none-eabi/4.8.3/armv7-m\libgcc.a(_arm_fixsfsi.o)
__fixunsdfdi                                      c:/users/param/appdata/local/arduino15/packages/arduino/tools/arm-none-eabi-gcc/4.8.3-2014q1/bin/../lib/gcc/arm-none-eabi/4.8.3/armv7-m\libgcc.a(_fixunsdfdi.o)
__fixunsdfsi                                      c:/users/param/appdata/local/arduino15/packages/arduino/tools/arm-none-eabi-gcc/4.8.3-2014q1/bin/../lib/gcc/arm-none-eabi/4.8.3/armv7-m\libgcc.a(_arm_fixunsdfsi.o)
__floatdidf                                       c:/users/param/appdata/local/arduino15/packages/arduino/tools/arm-none-eabi-gcc/4.8.3-2014q1/bin/../lib/gcc/arm-none-eabi/4.8.3/armv7-m\libgcc.a(_arm_addsubdf3.o)
__floatdisf                                       c:/users/param/appdata/local/arduino15/packages/arduino/tools/arm-none-eabi-gcc/4.8.3-2014q1/bin/../lib/gcc/arm-none-eabi/4.8.3/armv7-m\libgcc.a(_arm_addsubsf3.o)
__floatsidf                                       c:/users/param/appdata/local/arduino15/packages/arduino/tools/arm-none-eabi-gcc/4.8.3-2014q1/bin/../lib/gcc/arm-none-eabi/4.8.3/armv7-m\libgcc.a(_arm_addsubdf3.o)
__floatsisf                                       c:/users/param/appdata/local/arduino15/packages/arduino/tools/arm-none-eabi-gcc/4.8.3-2014q1/bin/../lib/gcc/arm-none-eabi/4.8.3/armv7-m\libgcc.a(_arm_addsubsf3.o)
__floatundidf                                     c:/users/param/appdata/local/arduino15/packages/arduino/tools/arm-none-eabi-gcc/4.8.3-2014q1/bin/../lib/gcc/arm-none-eabi/4.8.3/armv7-m\libgcc.a(_arm_addsubdf3.o)
__floatundisf                                     c:/users/param/appdata/local/arduino15/packages/arduino/tools/arm-none-eabi-gcc/4.8.3-2014q1/bin/../lib/gcc/arm-none-eabi/4.8.3/armv7-m\libgcc.a(_arm_addsubsf3.o)
__floatunsidf                                     c:/users/param/appdata/local/arduino15/packages/arduino/tools/arm-none-eabi-gcc/4.8.3-2014q1/bin/../lib/gcc/arm-none-eabi/4.8.3/armv7-m\libgcc.a(_arm_addsubdf3.o)
__floatunsisf                                     c:/users/param/appdata/local/arduino15/packages/arduino/tools/arm-none-eabi-gcc/4.8.3-2014q1/bin/../lib/gcc/arm-none-eabi/4.8.3/armv7-m\libgcc.a(_arm_addsubsf3.o)
__fpclassifyd                                     c:/users/param/appdata/local/arduino15/packages/arduino/tools/arm-none-eabi-gcc/4.8.3-2014q1/bin/../lib/gcc/arm-none-eabi/4.8.3/../../../../arm-none-eabi/lib/armv7-m\libm.a(lib_a-s_fpclassify.o)
                                                  c:/users/param/appdata/local/arduino15/packages/arduino/tools/arm-none-eabi-gcc/4.8.3-2014q1/bin/../lib/gcc/arm-none-eabi/4.8.3/../../../../arm-none-eabi/lib/armv7-m\libm.a(lib_a-w_sqrt.o)
__gedf2                                           c:/users/param/appdata/local/arduino15/packages/arduino/tools/arm-none-eabi-gcc/4.8.3-2014q1/bin/../lib/gcc/arm-none-eabi/4.8.3/armv7-m\libgcc.a(_arm_cmpdf2.o)
__gesf2                                           c:/users/param/appdata/local/arduino15/packages/arduino/tools/arm-none-eabi-gcc/4.8.3-2014q1/bin/../lib/gcc/arm-none-eabi/4.8.3/armv7-m\libgcc.a(_arm_cmpsf2.o)
__gnu_ldivmod_helper                              c:/users/param/appdata/local/arduino15/packages/arduino/tools/arm-none-eabi-gcc/4.8.3-2014q1/bin/../lib/gcc/arm-none-eabi/4.8.3/armv7-m\libgcc.a(bpabi.o)
                                                  c:/users/param/appdata/local/arduino15/packages/arduino/tools/arm-none-eabi-gcc/4.8.3-2014q1/bin/../lib/gcc/arm-none-eabi/4.8.3/armv7-m\libgcc.a(_aeabi_ldivmod.o)
__gnu_uldivmod_helper                             c:/users/param/appdata/local/arduino15/packages/arduino/tools/arm-none-eabi-gcc/4.8.3-2014q1/bin/../lib/gcc/arm-none-eabi/4.8.3/armv7-m\libgcc.a(bpabi.o)
                                                  c:/users/param/appdata/local/arduino15/packages/arduino/tools/arm-none-eabi-gcc/4.8.3-2014q1/bin/../lib/gcc/arm-none-eabi/4.8.3/armv7-m\libgcc.a(_aeabi_uldivmod.o)
__gtdf2                                           c:/users/param/appdata/local/arduino15/packages/arduino/tools/arm-none-eabi-gcc/4.8.3-2014q1/bin/../lib/gcc/arm-none-eabi/4.8.3/armv7-m\libgcc.a(_arm_cmpdf2.o)
__gtsf2                                           c:/users/param/appdata/local/arduino15/packages/arduino/tools/arm-none-eabi-gcc/4.8.3-2014q1/bin/../lib/gcc/arm-none-eabi/4.8.3/armv7-m\libgcc.a(_arm_cmpsf2.o)
__ieee754_sqrt                                    c:/users/param/appdata/local/arduino15/packages/arduino/tools/arm-none-eabi-gcc/4.8.3-2014q1/bin/../lib/gcc/arm-none-eabi/4.8.3/../../../../arm-none-eabi/lib/armv7-m\libm.a(lib_a-e_sqrt.o)
                                                  c:/users/param/appdata/local/arduino15/packages/arduino/tools/arm-none-eabi-gcc/4.8.3-2014q1/bin/../lib/gcc/arm-none-eabi/4.8.3/../../../../arm-none-eabi/lib/armv7-m\libm.a(lib_a-w_sqrt.o)
__init_array_end                                  c:/users/param/appdata/local/arduino15/packages/arduino/tools/arm-none-eabi-gcc/4.8.3-2014q1/bin/../lib/gcc/arm-none-eabi/4.8.3/../../../../arm-none-eabi/lib/armv7-m\libc.a(lib_a-init.o)
__init_array_start                                c:/users/param/appdata/local/arduino15/packages/arduino/tools/arm-none-eabi-gcc/4.8.3-2014q1/bin/../lib/gcc/arm-none-eabi/4.8.3/../../../../arm-none-eabi/lib/armv7-m\libc.a(lib_a-init.o)
__irq_adc                                         e:\drone_parachute\build\core\core.a(adc_f1.c.o)
                                                  e:\drone_parachute\build\core\core.a(vector_table.S.o)
__irq_can_rx1                                     e:\drone_parachute\build\core\core.a(isrs.S.o)
                                                  e:\drone_parachute\build\core\core.a(vector_table.S.o)
__irq_can_sce                                     e:\drone_parachute\build\core\core.a(isrs.S.o)
                                                  e:\drone_parachute\build\core\core.a(vector_table.S.o)
__irq_dma1_channel1                               e:\drone_parachute\build\core\core.a(dma_f1.c.o)
                                                  e:\drone_parachute\build\core\core.a(vector_table.S.o)
__irq_dma1_channel2                               e:\drone_parachute\build\core\core.a(dma_f1.c.o)
                                                  e:\drone_parachute\build\core\core.a(vector_table.S.o)
__irq_dma1_channel3                               e:\drone_parachute\build\core\core.a(dma_f1.c.o)
                                                  e:\drone_parachute\build\core\core.a(vector_table.S.o)
__irq_dma1_channel4                               e:\drone_parachute\build\core\core.a(dma_f1.c.o)
                                                  e:\drone_parachute\build\core\core.a(vector_table.S.o)
__irq_dma1_channel5                               e:\drone_parachute\build\core\core.a(dma_f1.c.o)
                                                  e:\drone_parachute\build\core\core.a(vector_table.S.o)
__irq_dma1_channel6                               e:\drone_parachute\build\core\core.a(dma_f1.c.o)
                                                  e:\drone_parachute\build\core\core.a(vector_table.S.o)
__irq_dma1_channel7                               e:\drone_parachute\build\core\core.a(dma_f1.c.o)
                                                  e:\drone_parachute\build\core\core.a(vector_table.S.o)
__irq_exti0                                       e:\drone_parachute\build\core\core.a(exti.c.o)
                                                  e:\drone_parachute\build\core\core.a(vector_table.S.o)
__irq_exti1                                       e:\drone_parachute\build\core\core.a(exti.c.o)
                                                  e:\drone_parachute\build\core\core.a(vector_table.S.o)
__irq_exti15_10                                   e:\drone_parachute\build\core\core.a(exti.c.o)
                                                  e:\drone_parachute\build\core\core.a(vector_table.S.o)
__irq_exti2                                       e:\drone_parachute\build\core\core.a(exti.c.o)
                                                  e:\drone_parachute\build\core\core.a(vector_table.S.o)
__irq_exti3                                       e:\drone_parachute\build\core\core.a(exti.c.o)
                                                  e:\drone_parachute\build\core\core.a(vector_table.S.o)
__irq_exti4                                       e:\drone_parachute\build\core\core.a(exti.c.o)
                                                  e:\drone_parachute\build\core\core.a(vector_table.S.o)
__irq_exti9_5                                     e:\drone_parachute\build\core\core.a(exti.c.o)
                                                  e:\drone_parachute\build\core\core.a(vector_table.S.o)
__irq_flash                                       e:\drone_parachute\build\core\core.a(isrs.S.o)
                                                  e:\drone_parachute\build\core\core.a(vector_table.S.o)
__irq_i2c1_er                                     e:\drone_parachute\build\core\core.a(i2c_f1.c.o)
                                                  e:\drone_parachute\build\core\core.a(vector_table.S.o)
__irq_i2c1_ev                                     e:\drone_parachute\build\core\core.a(i2c_f1.c.o)
                                                  e:\drone_parachute\build\core\core.a(vector_table.S.o)
__irq_i2c2_er                                     e:\drone_parachute\build\core\core.a(i2c_f1.c.o)
                                                  e:\drone_parachute\build\core\core.a(vector_table.S.o)
__irq_i2c2_ev                                     e:\drone_parachute\build\core\core.a(i2c_f1.c.o)
                                                  e:\drone_parachute\build\core\core.a(vector_table.S.o)
__irq_pvd                                         e:\drone_parachute\build\core\core.a(isrs.S.o)
                                                  e:\drone_parachute\build\core\core.a(vector_table.S.o)
__irq_rcc                                         e:\drone_parachute\build\core\core.a(isrs.S.o)
                                                  e:\drone_parachute\build\core\core.a(vector_table.S.o)
__irq_rtc                                         e:\drone_parachute\build\core\core.a(isrs.S.o)
                                                  e:\drone_parachute\build\core\core.a(vector_table.S.o)
__irq_rtcalarm                                    e:\drone_parachute\build\core\core.a(isrs.S.o)
                                                  e:\drone_parachute\build\core\core.a(vector_table.S.o)
__irq_spi1                                        e:\drone_parachute\build\core\core.a(isrs.S.o)
                                                  e:\drone_parachute\build\core\core.a(vector_table.S.o)
__irq_spi2                                        e:\drone_parachute\build\core\core.a(isrs.S.o)
                                                  e:\drone_parachute\build\core\core.a(vector_table.S.o)
__irq_tamper                                      e:\drone_parachute\build\core\core.a(isrs.S.o)
                                                  e:\drone_parachute\build\core\core.a(vector_table.S.o)
__irq_tim1_brk                                    e:\drone_parachute\build\core\core.a(timer.c.o)
                                                  e:\drone_parachute\build\core\core.a(vector_table.S.o)
__irq_tim1_cc                                     e:\drone_parachute\build\core\core.a(timer.c.o)
                                                  e:\drone_parachute\build\core\core.a(vector_table.S.o)
__irq_tim1_trg_com                                e:\drone_parachute\build\core\core.a(timer.c.o)
                                                  e:\drone_parachute\build\core\core.a(vector_table.S.o)
__irq_tim1_up                                     e:\drone_parachute\build\core\core.a(timer.c.o)
                                                  e:\drone_parachute\build\core\core.a(vector_table.S.o)
__irq_tim2                                        e:\drone_parachute\build\core\core.a(timer.c.o)
                                                  e:\drone_parachute\build\core\core.a(vector_table.S.o)
__irq_tim3                                        e:\drone_parachute\build\core\core.a(timer.c.o)
                                                  e:\drone_parachute\build\core\core.a(vector_table.S.o)
__irq_tim4                                        e:\drone_parachute\build\core\core.a(timer.c.o)
                                                  e:\drone_parachute\build\core\core.a(vector_table.S.o)
__irq_usart1                                      e:\drone_parachute\build\core\core.a(usart_f1.c.o)
                                                  e:\drone_parachute\build\core\core.a(vector_table.S.o)
__irq_usart2                                      e:\drone_parachute\build\core\core.a(usart_f1.c.o)
                                                  e:\drone_parachute\build\core\core.a(vector_table.S.o)
__irq_usart3                                      e:\drone_parachute\build\core\core.a(usart_f1.c.o)
                                                  e:\drone_parachute\build\core\core.a(vector_table.S.o)
__irq_usb_hp_can_tx                               e:\drone_parachute\build\core\core.a(isrs.S.o)
                                                  e:\drone_parachute\build\core\core.a(vector_table.S.o)
__irq_usb_lp_can_rx0                              e:\drone_parachute\build\core\core.a(usb.c.o)
                                                  e:\drone_parachute\build\core\core.a(vector_table.S.o)
__irq_usbwakeup                                   e:\drone_parachute\build\core\core.a(isrs.S.o)
                                                  e:\drone_parachute\build\core\core.a(vector_table.S.o)
__irq_wwdg                                        e:\drone_parachute\build\core\core.a(isrs.S.o)
                                                  e:\drone_parachute\build\core\core.a(vector_table.S.o)
__ledf2                                           c:/users/param/appdata/local/arduino15/packages/arduino/tools/arm-none-eabi-gcc/4.8.3-2014q1/bin/../lib/gcc/arm-none-eabi/4.8.3/armv7-m\libgcc.a(_arm_cmpdf2.o)
__lesf2                                           c:/users/param/appdata/local/arduino15/packages/arduino/tools/arm-none-eabi-gcc/4.8.3-2014q1/bin/../lib/gcc/arm-none-eabi/4.8.3/armv7-m\libgcc.a(_arm_cmpsf2.o)
__libc_fini                                       c:/users/param/appdata/local/arduino15/packages/arduino/tools/arm-none-eabi-gcc/4.8.3-2014q1/bin/../lib/gcc/arm-none-eabi/4.8.3/../../../../arm-none-eabi/lib/armv7-m\libc.a(lib_a-__call_atexit.o)
__libc_fini_array                                 c:/users/param/appdata/local/arduino15/packages/arduino/tools/arm-none-eabi-gcc/4.8.3-2014q1/bin/../lib/gcc/arm-none-eabi/4.8.3/../../../../arm-none-eabi/lib/armv7-m\libc.a(lib_a-fini.o)
                                                  c:/users/param/appdata/local/arduino15/packages/arduino/tools/arm-none-eabi-gcc/4.8.3-2014q1/bin/../lib/gcc/arm-none-eabi/4.8.3/../../../../arm-none-eabi/lib/armv7-m\libc.a(lib_a-__call_atexit.o)
                                                  c:/users/param/appdata/local/arduino15/packages/arduino/tools/arm-none-eabi-gcc/4.8.3-2014q1/bin/../lib/gcc/arm-none-eabi/4.8.3/../../../../arm-none-eabi/lib/armv7-m/crt0.o
__libc_init_array                                 c:/users/param/appdata/local/arduino15/packages/arduino/tools/arm-none-eabi-gcc/4.8.3-2014q1/bin/../lib/gcc/arm-none-eabi/4.8.3/../../../../arm-none-eabi/lib/armv7-m\libc.a(lib_a-init.o)
                                                  e:\drone_parachute\build\core\wirish\start_c.c.o
                                                  c:/users/param/appdata/local/arduino15/packages/arduino/tools/arm-none-eabi-gcc/4.8.3-2014q1/bin/../lib/gcc/arm-none-eabi/4.8.3/../../../../arm-none-eabi/lib/armv7-m/crt0.o
__lm_enable_error_usart                           e:\drone_parachute\build\core\core.a(util.c.o)
__lm_error                                        e:\drone_parachute\build\core\core.a(util.c.o)
__ltdf2                                           c:/users/param/appdata/local/arduino15/packages/arduino/tools/arm-none-eabi-gcc/4.8.3-2014q1/bin/../lib/gcc/arm-none-eabi/4.8.3/armv7-m\libgcc.a(_arm_cmpdf2.o)
__ltsf2                                           c:/users/param/appdata/local/arduino15/packages/arduino/tools/arm-none-eabi-gcc/4.8.3-2014q1/bin/../lib/gcc/arm-none-eabi/4.8.3/armv7-m\libgcc.a(_arm_cmpsf2.o)
__msp_init                                        e:\drone_parachute\build\core\core.a(vector_table.S.o)
                                                  e:\drone_parachute\build\core\wirish\start.S.o
__muldf3                                          c:/users/param/appdata/local/arduino15/packages/arduino/tools/arm-none-eabi-gcc/4.8.3-2014q1/bin/../lib/gcc/arm-none-eabi/4.8.3/armv7-m\libgcc.a(_arm_muldivdf3.o)
__mulsf3                                          c:/users/param/appdata/local/arduino15/packages/arduino/tools/arm-none-eabi-gcc/4.8.3-2014q1/bin/../lib/gcc/arm-none-eabi/4.8.3/armv7-m\libgcc.a(_arm_muldivsf3.o)
__nedf2                                           c:/users/param/appdata/local/arduino15/packages/arduino/tools/arm-none-eabi-gcc/4.8.3-2014q1/bin/../lib/gcc/arm-none-eabi/4.8.3/armv7-m\libgcc.a(_arm_cmpdf2.o)
__nesf2                                           c:/users/param/appdata/local/arduino15/packages/arduino/tools/arm-none-eabi-gcc/4.8.3-2014q1/bin/../lib/gcc/arm-none-eabi/4.8.3/armv7-m\libgcc.a(_arm_cmpsf2.o)
__preinit_array_end                               c:/users/param/appdata/local/arduino15/packages/arduino/tools/arm-none-eabi-gcc/4.8.3-2014q1/bin/../lib/gcc/arm-none-eabi/4.8.3/../../../../arm-none-eabi/lib/armv7-m\libc.a(lib_a-init.o)
__preinit_array_start                             c:/users/param/appdata/local/arduino15/packages/arduino/tools/arm-none-eabi-gcc/4.8.3-2014q1/bin/../lib/gcc/arm-none-eabi/4.8.3/../../../../arm-none-eabi/lib/armv7-m\libc.a(lib_a-init.o)
__register_exitproc                               c:/users/param/appdata/local/arduino15/packages/arduino/tools/arm-none-eabi-gcc/4.8.3-2014q1/bin/../lib/gcc/arm-none-eabi/4.8.3/../../../../arm-none-eabi/lib/armv7-m\libc.a(lib_a-__atexit.o)
                                                  c:/users/param/appdata/local/arduino15/packages/arduino/tools/arm-none-eabi-gcc/4.8.3-2014q1/bin/../lib/gcc/arm-none-eabi/4.8.3/../../../../arm-none-eabi/lib/armv7-m\libc.a(lib_a-atexit.o)
__register_frame_info                             c:/users/param/appdata/local/arduino15/packages/arduino/tools/arm-none-eabi-gcc/4.8.3-2014q1/bin/../lib/gcc/arm-none-eabi/4.8.3/armv7-m/crtbegin.o
__stack                                           c:/users/param/appdata/local/arduino15/packages/arduino/tools/arm-none-eabi-gcc/4.8.3-2014q1/bin/../lib/gcc/arm-none-eabi/4.8.3/../../../../arm-none-eabi/lib/armv7-m/crt0.o
__start__                                         e:\drone_parachute\build\core\wirish\start.S.o
__stm32_vector_table                              e:\drone_parachute\build\core\core.a(vector_table.S.o)
__stm32reservedexception10                        e:\drone_parachute\build\core\core.a(isrs.S.o)
                                                  e:\drone_parachute\build\core\core.a(vector_table.S.o)
__stm32reservedexception13                        e:\drone_parachute\build\core\core.a(isrs.S.o)
                                                  e:\drone_parachute\build\core\core.a(vector_table.S.o)
__stm32reservedexception7                         e:\drone_parachute\build\core\core.a(isrs.S.o)
                                                  e:\drone_parachute\build\core\core.a(vector_table.S.o)
__stm32reservedexception8                         e:\drone_parachute\build\core\core.a(isrs.S.o)
                                                  e:\drone_parachute\build\core\core.a(vector_table.S.o)
__stm32reservedexception9                         e:\drone_parachute\build\core\core.a(isrs.S.o)
                                                  e:\drone_parachute\build\core\core.a(vector_table.S.o)
__subdf3                                          c:/users/param/appdata/local/arduino15/packages/arduino/tools/arm-none-eabi-gcc/4.8.3-2014q1/bin/../lib/gcc/arm-none-eabi/4.8.3/armv7-m\libgcc.a(_arm_addsubdf3.o)
__subsf3                                          c:/users/param/appdata/local/arduino15/packages/arduino/tools/arm-none-eabi-gcc/4.8.3-2014q1/bin/../lib/gcc/arm-none-eabi/4.8.3/armv7-m\libgcc.a(_arm_addsubsf3.o)
__truncdfsf2                                      c:/users/param/appdata/local/arduino15/packages/arduino/tools/arm-none-eabi-gcc/4.8.3-2014q1/bin/../lib/gcc/arm-none-eabi/4.8.3/armv7-m\libgcc.a(_arm_truncdfsf2.o)
__udivdi3                                         c:/users/param/appdata/local/arduino15/packages/arduino/tools/arm-none-eabi-gcc/4.8.3-2014q1/bin/../lib/gcc/arm-none-eabi/4.8.3/armv7-m\libgcc.a(_udivdi3.o)
                                                  c:/users/param/appdata/local/arduino15/packages/arduino/tools/arm-none-eabi-gcc/4.8.3-2014q1/bin/../lib/gcc/arm-none-eabi/4.8.3/armv7-m\libgcc.a(bpabi.o)
_close                                            e:\drone_parachute\build\core\wirish\syscalls.c.o
_dma_addr_type                                    e:\drone_parachute\build\core\core.a(dma.c.o)
                                                  e:\drone_parachute\build\core\core.a(dma_f1.c.o)
_exit                                             e:\drone_parachute\build\core\wirish\syscalls.c.o
                                                  c:/users/param/appdata/local/arduino15/packages/arduino/tools/arm-none-eabi-gcc/4.8.3-2014q1/bin/../lib/gcc/arm-none-eabi/4.8.3/../../../../arm-none-eabi/lib/armv7-m\libc.a(lib_a-exit.o)
_fail                                             e:\drone_parachute\build\core\core.a(util.c.o)
_fini                                             c:/users/param/appdata/local/arduino15/packages/arduino/tools/arm-none-eabi-gcc/4.8.3-2014q1/bin/../lib/gcc/arm-none-eabi/4.8.3/armv7-m/crti.o
                                                  c:/users/param/appdata/local/arduino15/packages/arduino/tools/arm-none-eabi-gcc/4.8.3-2014q1/bin/../lib/gcc/arm-none-eabi/4.8.3/../../../../arm-none-eabi/lib/armv7-m\libc.a(lib_a-fini.o)
_fstat                                            e:\drone_parachute\build\core\wirish\syscalls.c.o
_global_impure_ptr                                c:/users/param/appdata/local/arduino15/packages/arduino/tools/arm-none-eabi-gcc/4.8.3-2014q1/bin/../lib/gcc/arm-none-eabi/4.8.3/../../../../arm-none-eabi/lib/armv7-m\libc.a(lib_a-impure.o)
                                                  c:/users/param/appdata/local/arduino15/packages/arduino/tools/arm-none-eabi-gcc/4.8.3-2014q1/bin/../lib/gcc/arm-none-eabi/4.8.3/../../../../arm-none-eabi/lib/armv7-m\libc.a(lib_a-__atexit.o)
                                                  c:/users/param/appdata/local/arduino15/packages/arduino/tools/arm-none-eabi-gcc/4.8.3-2014q1/bin/../lib/gcc/arm-none-eabi/4.8.3/../../../../arm-none-eabi/lib/armv7-m\libc.a(lib_a-__call_atexit.o)
                                                  c:/users/param/appdata/local/arduino15/packages/arduino/tools/arm-none-eabi-gcc/4.8.3-2014q1/bin/../lib/gcc/arm-none-eabi/4.8.3/../../../../arm-none-eabi/lib/armv7-m\libc.a(lib_a-exit.o)
_i2c_irq_error_handler                            e:\drone_parachute\build\core\core.a(i2c.c.o)
                                                  e:\drone_parachute\build\core\core.a(i2c_f1.c.o)
_i2c_irq_handler                                  e:\drone_parachute\build\core\core.a(i2c.c.o)
                                                  e:\drone_parachute\build\core\core.a(i2c_f1.c.o)
_i2c_irq_priority_fixup                           e:\drone_parachute\build\core\core.a(i2c_f1.c.o)
                                                  e:\drone_parachute\build\core\core.a(i2c.c.o)
_impure_ptr                                       c:/users/param/appdata/local/arduino15/packages/arduino/tools/arm-none-eabi-gcc/4.8.3-2014q1/bin/../lib/gcc/arm-none-eabi/4.8.3/../../../../arm-none-eabi/lib/armv7-m\libc.a(lib_a-impure.o)
                                                  c:/users/param/appdata/local/arduino15/packages/arduino/tools/arm-none-eabi-gcc/4.8.3-2014q1/bin/../lib/gcc/arm-none-eabi/4.8.3/../../../../arm-none-eabi/lib/armv7-m\libc.a(lib_a-errno.o)
_init                                             c:/users/param/appdata/local/arduino15/packages/arduino/tools/arm-none-eabi-gcc/4.8.3-2014q1/bin/../lib/gcc/arm-none-eabi/4.8.3/armv7-m/crti.o
                                                  c:/users/param/appdata/local/arduino15/packages/arduino/tools/arm-none-eabi-gcc/4.8.3-2014q1/bin/../lib/gcc/arm-none-eabi/4.8.3/../../../../arm-none-eabi/lib/armv7-m\libc.a(lib_a-init.o)
_isatty                                           e:\drone_parachute\build\core\wirish\syscalls.c.o
_lm_heap_end                                      e:\drone_parachute\build\core\wirish\syscalls.c.o
_lm_heap_start                                    e:\drone_parachute\build\core\wirish\syscalls.c.o
_lm_rom_img_cfgp                                  e:\drone_parachute\build\core\wirish\start_c.c.o
_lseek                                            e:\drone_parachute\build\core\wirish\syscalls.c.o
_mainCRTStartup                                   c:/users/param/appdata/local/arduino15/packages/arduino/tools/arm-none-eabi-gcc/4.8.3-2014q1/bin/../lib/gcc/arm-none-eabi/4.8.3/../../../../arm-none-eabi/lib/armv7-m/crt0.o
_open                                             e:\drone_parachute\build\core\wirish\syscalls.c.o
_read                                             e:\drone_parachute\build\core\wirish\syscalls.c.o
_sbrk                                             e:\drone_parachute\build\core\wirish\syscalls.c.o
_start                                            c:/users/param/appdata/local/arduino15/packages/arduino/tools/arm-none-eabi-gcc/4.8.3-2014q1/bin/../lib/gcc/arm-none-eabi/4.8.3/../../../../arm-none-eabi/lib/armv7-m/crt0.o
_usart_clock_freq                                 e:\drone_parachute\build\core\core.a(usart_private.c.o)
                                                  e:\drone_parachute\build\core\core.a(usart_f1.c.o)
_write                                            e:\drone_parachute\build\core\wirish\syscalls.c.o
abort                                             e:\drone_parachute\build\core\core.a(util.c.o)
adc1                                              e:\drone_parachute\build\core\core.a(adc_f1.c.o)
                                                  e:\drone_parachute\build\core\board.cpp.o
adc2                                              e:\drone_parachute\build\core\core.a(adc_f1.c.o)
adc_attach_interrupt                              e:\drone_parachute\build\core\core.a(adc_f1.c.o)
adc_calibrate                                     e:\drone_parachute\build\core\core.a(adc_f1.c.o)
adc_config_gpio                                   e:\drone_parachute\build\core\core.a(adc_f1.c.o)
adc_enable_irq                                    e:\drone_parachute\build\core\core.a(adc_f1.c.o)
adc_enable_single_swstart                         e:\drone_parachute\build\core\core.a(adc_f1.c.o)
                                                  e:\drone_parachute\build\core\wirish\boards.cpp.o
adc_foreach                                       e:\drone_parachute\build\core\core.a(adc_f1.c.o)
                                                  e:\drone_parachute\build\core\wirish\boards.cpp.o
adc_init                                          e:\drone_parachute\build\core\core.a(adc.c.o)
                                                  e:\drone_parachute\build\core\core.a(adc_f1.c.o)
adc_read                                          e:\drone_parachute\build\core\core.a(adc.c.o)
                                                  e:\drone_parachute\build\core\core.a(wirish_analog.cpp.o)
adc_set_extsel                                    e:\drone_parachute\build\core\core.a(adc.c.o)
                                                  e:\drone_parachute\build\core\core.a(adc_f1.c.o)
adc_set_prescaler                                 e:\drone_parachute\build\core\core.a(adc_f1.c.o)
                                                  e:\drone_parachute\build\core\wirish\boards.cpp.o
adc_set_sample_rate                               e:\drone_parachute\build\core\core.a(adc.c.o)
                                                  e:\drone_parachute\build\core\wirish\boards.cpp.o
afio_init                                         e:\drone_parachute\build\core\core.a(gpio_f1.c.o)
                                                  e:\drone_parachute\build\core\wirish\boards_setup.cpp.o
afio_remap                                        e:\drone_parachute\build\core\core.a(gpio_f1.c.o)
                                                  e:\drone_parachute\build\core\core.a(i2c_f1.c.o)
                                                  e:\drone_parachute\build\core\core.a(i2c.c.o)
analogRead(unsigned char)                         e:\drone_parachute\build\core\core.a(wirish_analog.cpp.o)
                                                  e:\drone_parachute\build\sketch\main.ino.cpp.o
analogWrite(unsigned char, int)                   e:\drone_parachute\build\core\core.a(pwm.cpp.o)
atexit                                            c:/users/param/appdata/local/arduino15/packages/arduino/tools/arm-none-eabi-gcc/4.8.3-2014q1/bin/../lib/gcc/arm-none-eabi/4.8.3/../../../../arm-none-eabi/lib/armv7-m\libc.a(lib_a-atexit.o)
                                                  c:/users/param/appdata/local/arduino15/packages/arduino/tools/arm-none-eabi-gcc/4.8.3-2014q1/bin/../lib/gcc/arm-none-eabi/4.8.3/../../../../arm-none-eabi/lib/armv7-m\libc.a(lib_a-__call_atexit.o)
                                                  c:/users/param/appdata/local/arduino15/packages/arduino/tools/arm-none-eabi-gcc/4.8.3-2014q1/bin/../lib/gcc/arm-none-eabi/4.8.3/../../../../arm-none-eabi/lib/armv7-m/crt0.o
batteries_init()                                  e:\drone_parachute\build\sketch\main.ino.cpp.o
boardADCPins                                      e:\drone_parachute\build\core\board.cpp.o
boardInit()                                       e:\drone_parachute\build\core\board.cpp.o
boardPWMPins                                      e:\drone_parachute\build\core\board.cpp.o
boardUsedPins                                     e:\drone_parachute\build\core\board.cpp.o
                                                  e:\drone_parachute\build\core\wirish\boards.cpp.o
boardUsesPin(unsigned char)                       e:\drone_parachute\build\core\wirish\boards.cpp.o
cgets                                             e:\drone_parachute\build\core\wirish\syscalls.c.o
check_main_battery_volt()                         e:\drone_parachute\build\sketch\main.ino.cpp.o
check_state()                                     e:\drone_parachute\build\sketch\main.ino.cpp.o
check_system()                                    e:\drone_parachute\build\sketch\main.ino.cpp.o
delay(unsigned long)                              e:\drone_parachute\build\core\core.a(wirish_time.cpp.o)
                                                  e:\drone_parachute\build\libraries\Bolder_Flight_Systems_MPU9250\MPU9250.cpp.o
                                                  e:\drone_parachute\build\sketch\main.ino.cpp.o
delayMicroseconds(unsigned long)                  e:\drone_parachute\build\core\core.a(wirish_time.cpp.o)
deploy_chute()                                    e:\drone_parachute\build\sketch\main.ino.cpp.o
digitalRead(unsigned char)                        e:\drone_parachute\build\core\core.a(wirish_digital.cpp.o)
                                                  e:\drone_parachute\build\libraries\Wire\SoftWire.cpp.o
digitalWrite(unsigned char, unsigned char)        e:\drone_parachute\build\core\core.a(wirish_digital.cpp.o)
                                                  e:\drone_parachute\build\libraries\Bolder_Flight_Systems_MPU9250\MPU9250.cpp.o
                                                  e:\drone_parachute\build\sketch\main.ino.cpp.o
dispatch_extis                                    e:\drone_parachute\build\core\core.a(exti.c.o)
dispatch_single_exti                              e:\drone_parachute\build\core\core.a(exti.c.o)
dma_attach_interrupt                              e:\drone_parachute\build\core\core.a(dma_f1.c.o)
                                                  e:\drone_parachute\build\libraries\SPI\SPI.cpp.o
dma_detach_interrupt                              e:\drone_parachute\build\core\core.a(dma_f1.c.o)
                                                  e:\drone_parachute\build\libraries\SPI\SPI.cpp.o
dma_disable                                       e:\drone_parachute\build\core\core.a(dma_f1.c.o)
                                                  e:\drone_parachute\build\libraries\SPI\SPI.cpp.o
dma_enable                                        e:\drone_parachute\build\core\core.a(dma_f1.c.o)
                                                  e:\drone_parachute\build\libraries\SPI\SPI.cpp.o
dma_get_irq_cause                                 e:\drone_parachute\build\core\core.a(dma_f1.c.o)
dma_init                                          e:\drone_parachute\build\core\core.a(dma.c.o)
                                                  e:\drone_parachute\build\libraries\SPI\SPI.cpp.o
dma_set_mem_addr                                  e:\drone_parachute\build\core\core.a(dma_f1.c.o)
dma_set_num_transfers                             e:\drone_parachute\build\core\core.a(dma_f1.c.o)
                                                  e:\drone_parachute\build\libraries\SPI\SPI.cpp.o
dma_set_per_addr                                  e:\drone_parachute\build\core\core.a(dma_f1.c.o)
dma_set_priority                                  e:\drone_parachute\build\core\core.a(dma_f1.c.o)
                                                  e:\drone_parachute\build\libraries\SPI\SPI.cpp.o
dma_setup_transfer                                e:\drone_parachute\build\core\core.a(dma_f1.c.o)
                                                  e:\drone_parachute\build\libraries\SPI\SPI.cpp.o
dma_tube_cfg                                      e:\drone_parachute\build\core\core.a(dma_f1.c.o)
error_signal_init()                               e:\drone_parachute\build\sketch\main.ino.cpp.o
executioner_init()                                e:\drone_parachute\build\sketch\main.ino.cpp.o
exit                                              c:/users/param/appdata/local/arduino15/packages/arduino/tools/arm-none-eabi-gcc/4.8.3-2014q1/bin/../lib/gcc/arm-none-eabi/4.8.3/../../../../arm-none-eabi/lib/armv7-m\libc.a(lib_a-exit.o)
                                                  c:/users/param/appdata/local/arduino15/packages/arduino/tools/arm-none-eabi-gcc/4.8.3-2014q1/bin/../lib/gcc/arm-none-eabi/4.8.3/../../../../arm-none-eabi/lib/armv7-m/crt0.o
exti_attach_callback                              e:\drone_parachute\build\core\core.a(exti.c.o)
exti_attach_interrupt                             e:\drone_parachute\build\core\core.a(exti.c.o)
exti_channels                                     e:\drone_parachute\build\core\core.a(exti.c.o)
exti_detach_interrupt                             e:\drone_parachute\build\core\core.a(exti.c.o)
exti_do_select                                    e:\drone_parachute\build\core\core.a(exti.c.o)
                                                  e:\drone_parachute\build\core\core.a(exti_f1.c.o)
exti_select                                       e:\drone_parachute\build\core\core.a(exti_f1.c.o)
                                                  e:\drone_parachute\build\core\core.a(exti.c.o)
fgets                                             e:\drone_parachute\build\core\wirish\syscalls.c.o
flash_set_latency                                 e:\drone_parachute\build\core\core.a(flash.c.o)
                                                  e:\drone_parachute\build\core\wirish\boards.cpp.o
free                                              c:/users/param/appdata/local/arduino15/packages/arduino/tools/arm-none-eabi-gcc/4.8.3-2014q1/bin/../lib/gcc/arm-none-eabi/4.8.3/../../../../arm-none-eabi/lib/armv7-m\libc.a(lib_a-__call_atexit.o)
get_direction                                     e:\drone_parachute\build\core\core.a(timer.c.o)
getch                                             e:\drone_parachute\build\core\wirish\syscalls.c.o
gpio_get_mode                                     e:\drone_parachute\build\core\core.a(gpio_f1.c.o)
gpio_init                                         e:\drone_parachute\build\core\core.a(gpio.c.o)
                                                  e:\drone_parachute\build\core\core.a(gpio_f1.c.o)
gpio_init_all                                     e:\drone_parachute\build\core\core.a(gpio_f1.c.o)
                                                  e:\drone_parachute\build\core\wirish\boards_setup.cpp.o
gpio_set_mode                                     e:\drone_parachute\build\core\core.a(gpio_f1.c.o)
                                                  e:\drone_parachute\build\core\core.a(wirish_digital_f1.cpp.o)
                                                  e:\drone_parachute\build\core\core.a(util.c.o)
                                                  e:\drone_parachute\build\core\core.a(usb_cdcacm.c.o)
                                                  e:\drone_parachute\build\core\core.a(usart_f1.c.o)
                                                  e:\drone_parachute\build\core\core.a(spi_f1.c.o)
                                                  e:\drone_parachute\build\core\core.a(i2c_f1.c.o)
                                                  e:\drone_parachute\build\core\core.a(adc_f1.c.o)
gpioa                                             e:\drone_parachute\build\core\core.a(gpio_f1.c.o)
                                                  e:\drone_parachute\build\core\board.cpp.o
gpiob                                             e:\drone_parachute\build\core\core.a(gpio_f1.c.o)
                                                  e:\drone_parachute\build\core\core.a(i2c_f1.c.o)
                                                  e:\drone_parachute\build\core\board.cpp.o
gpioc                                             e:\drone_parachute\build\core\core.a(gpio_f1.c.o)
                                                  e:\drone_parachute\build\core\board.cpp.o
gpiod                                             e:\drone_parachute\build\core\core.a(gpio_f1.c.o)
handler_tim2()                                    e:\drone_parachute\build\sketch\main.ino.cpp.o
hardware_init_hook                                c:/users/param/appdata/local/arduino15/packages/arduino/tools/arm-none-eabi-gcc/4.8.3-2014q1/bin/../lib/gcc/arm-none-eabi/4.8.3/../../../../arm-none-eabi/lib/armv7-m/crt0.o
i2c_bus_reset                                     e:\drone_parachute\build\core\core.a(i2c.c.o)
i2c_config_gpios                                  e:\drone_parachute\build\core\core.a(i2c_f1.c.o)
                                                  e:\drone_parachute\build\core\core.a(i2c.c.o)
i2c_init                                          e:\drone_parachute\build\core\core.a(i2c.c.o)
i2c_master_enable                                 e:\drone_parachute\build\core\core.a(i2c.c.o)
                                                  e:\drone_parachute\build\libraries\Wire\Wire.cpp.o
i2c_master_release_bus                            e:\drone_parachute\build\core\core.a(i2c_f1.c.o)
                                                  e:\drone_parachute\build\core\core.a(i2c.c.o)
i2c_master_xfer                                   e:\drone_parachute\build\core\core.a(i2c.c.o)
                                                  e:\drone_parachute\build\libraries\Wire\Wire.cpp.o
i2c_set_ccr_trise                                 e:\drone_parachute\build\core\core.a(i2c.c.o)
i2c_slave_attach_recv_handler                     e:\drone_parachute\build\core\core.a(i2c.c.o)
i2c_slave_attach_transmit_handler                 e:\drone_parachute\build\core\core.a(i2c.c.o)
i2c_slave_enable                                  e:\drone_parachute\build\core\core.a(i2c.c.o)
imu_init()                                        e:\drone_parachute\build\sketch\main.ino.cpp.o
init()                                            e:\drone_parachute\build\core\wirish\boards.cpp.o
                                                  e:\drone_parachute\build\core\core.a(main.cpp.o)
input_capture_mode                                e:\drone_parachute\build\core\core.a(timer.c.o)
isatty                                            e:\drone_parachute\build\core\wirish\syscalls.c.o
kill_rotors()                                     e:\drone_parachute\build\sketch\main.ino.cpp.o
loop()                                            e:\drone_parachute\build\sketch\main.ino.cpp.o
                                                  e:\drone_parachute\build\core\core.a(main.cpp.o)
main                                              e:\drone_parachute\build\core\core.a(main.cpp.o)
                                                  e:\drone_parachute\build\core\wirish\start_c.c.o
                                                  c:/users/param/appdata/local/arduino15/packages/arduino/tools/arm-none-eabi-gcc/4.8.3-2014q1/bin/../lib/gcc/arm-none-eabi/4.8.3/../../../../arm-none-eabi/lib/armv7-m/crt0.o
malloc                                            c:/users/param/appdata/local/arduino15/packages/arduino/tools/arm-none-eabi-gcc/4.8.3-2014q1/bin/../lib/gcc/arm-none-eabi/4.8.3/../../../../arm-none-eabi/lib/armv7-m\libc.a(lib_a-__atexit.o)
matherr                                           c:/users/param/appdata/local/arduino15/packages/arduino/tools/arm-none-eabi-gcc/4.8.3-2014q1/bin/../lib/gcc/arm-none-eabi/4.8.3/../../../../arm-none-eabi/lib/armv7-m\libm.a(lib_a-s_matherr.o)
                                                  c:/users/param/appdata/local/arduino15/packages/arduino/tools/arm-none-eabi-gcc/4.8.3-2014q1/bin/../lib/gcc/arm-none-eabi/4.8.3/../../../../arm-none-eabi/lib/armv7-m\libm.a(lib_a-w_sqrt.o)
memcpy                                            c:/users/param/appdata/local/arduino15/packages/arduino/tools/arm-none-eabi-gcc/4.8.3-2014q1/bin/../lib/gcc/arm-none-eabi/4.8.3/../../../../arm-none-eabi/lib/armv7-m\libc.a(lib_a-memcpy.o)
                                                  e:\drone_parachute\build\libraries\Bolder_Flight_Systems_MPU9250\MPU9250.cpp.o
memset                                            c:/users/param/appdata/local/arduino15/packages/arduino/tools/arm-none-eabi-gcc/4.8.3-2014q1/bin/../lib/gcc/arm-none-eabi/4.8.3/../../../../arm-none-eabi/lib/armv7-m\libc.a(lib_a-memset.o)
                                                  c:/users/param/appdata/local/arduino15/packages/arduino/tools/arm-none-eabi-gcc/4.8.3-2014q1/bin/../lib/gcc/arm-none-eabi/4.8.3/../../../../arm-none-eabi/lib/armv7-m/crt0.o
nvic_init                                         e:\drone_parachute\build\core\core.a(nvic.c.o)
                                                  e:\drone_parachute\build\core\wirish\boards.cpp.o
nvic_irq_set_priority                             e:\drone_parachute\build\core\core.a(nvic.c.o)
                                                  e:\drone_parachute\build\core\core.a(i2c_f1.c.o)
nvic_set_vector_table                             e:\drone_parachute\build\core\core.a(nvic.c.o)
nvic_sys_reset                                    e:\drone_parachute\build\core\core.a(nvic.c.o)
pInformation                                      e:\drone_parachute\build\core\core.a(usb_init.c.o)
                                                  e:\drone_parachute\build\core\core.a(usb_core.c.o)
                                                  e:\drone_parachute\build\core\core.a(usb_cdcacm.c.o)
                                                  e:\drone_parachute\build\core\core.a(usb.c.o)
pProperty                                         e:\drone_parachute\build\core\core.a(usb_init.c.o)
                                                  e:\drone_parachute\build\core\core.a(usb_core.c.o)
                                                  e:\drone_parachute\build\core\core.a(usb_cdcacm.c.o)
                                                  e:\drone_parachute\build\core\core.a(usb.c.o)
pUser_Standard_Requests                           e:\drone_parachute\build\core\core.a(usb_init.c.o)
                                                  e:\drone_parachute\build\core\core.a(usb_core.c.o)
                                                  e:\drone_parachute\build\core\core.a(usb.c.o)
parachute_init()                                  e:\drone_parachute\build\sketch\main.ino.cpp.o
pinMode(unsigned char, WiringPinMode)             e:\drone_parachute\build\core\core.a(wirish_digital_f1.cpp.o)
                                                  e:\drone_parachute\build\core\core.a(pwm.cpp.o)
                                                  e:\drone_parachute\build\libraries\Servo\Servo.cpp.o
                                                  e:\drone_parachute\build\libraries\Wire\SoftWire.cpp.o
                                                  e:\drone_parachute\build\libraries\Bolder_Flight_Systems_MPU9250\MPU9250.cpp.o
                                                  e:\drone_parachute\build\sketch\main.ino.cpp.o
premain()                                         e:\drone_parachute\build\core\core.a(main.cpp.o)
putch                                             e:\drone_parachute\build\core\wirish\syscalls.c.o
pwmWrite(unsigned char, unsigned short)           e:\drone_parachute\build\core\core.a(pwm.cpp.o)
                                                  e:\drone_parachute\build\libraries\Servo\Servo.cpp.o
raise_error_signal()                              e:\drone_parachute\build\sketch\main.ino.cpp.o
rcc_clk_disable                                   e:\drone_parachute\build\core\core.a(rcc_f1.c.o)
                                                  e:\drone_parachute\build\core\wirish\boards_setup.cpp.o
rcc_clk_enable                                    e:\drone_parachute\build\core\core.a(rcc_f1.c.o)
                                                  e:\drone_parachute\build\core\core.a(gpio.c.o)
                                                  e:\drone_parachute\build\core\core.a(usb.c.o)
                                                  e:\drone_parachute\build\core\core.a(usart.c.o)
                                                  e:\drone_parachute\build\core\core.a(timer.c.o)
                                                  e:\drone_parachute\build\core\core.a(spi.c.o)
                                                  e:\drone_parachute\build\core\core.a(i2c.c.o)
                                                  e:\drone_parachute\build\core\core.a(gpio_f1.c.o)
                                                  e:\drone_parachute\build\core\core.a(dma.c.o)
                                                  e:\drone_parachute\build\core\core.a(adc.c.o)
rcc_clk_init                                      e:\drone_parachute\build\core\core.a(rcc_f1.c.o)
rcc_configure_pll                                 e:\drone_parachute\build\core\core.a(rcc_f1.c.o)
                                                  e:\drone_parachute\build\core\wirish\boards.cpp.o
rcc_dev_clk                                       e:\drone_parachute\build\core\core.a(rcc.c.o)
                                                  e:\drone_parachute\build\core\core.a(usart_private.c.o)
                                                  e:\drone_parachute\build\core\core.a(rcc_f1.c.o)
                                                  e:\drone_parachute\build\libraries\SPI\SPI.cpp.o
rcc_dev_table                                     e:\drone_parachute\build\core\core.a(rcc_f1.c.o)
                                                  e:\drone_parachute\build\core\core.a(rcc.c.o)
rcc_is_clk_on                                     e:\drone_parachute\build\core\core.a(rcc.c.o)
rcc_is_clk_ready                                  e:\drone_parachute\build\core\core.a(rcc.c.o)
                                                  e:\drone_parachute\build\core\core.a(rcc_f1.c.o)
                                                  e:\drone_parachute\build\core\wirish\boards.cpp.o
rcc_reset_dev                                     e:\drone_parachute\build\core\core.a(rcc_f1.c.o)
                                                  e:\drone_parachute\build\core\core.a(gpio.c.o)
                                                  e:\drone_parachute\build\core\core.a(timer.c.o)
                                                  e:\drone_parachute\build\core\core.a(spi.c.o)
                                                  e:\drone_parachute\build\core\core.a(i2c.c.o)
                                                  e:\drone_parachute\build\core\core.a(gpio_f1.c.o)
                                                  e:\drone_parachute\build\core\core.a(adc.c.o)
rcc_set_prescaler                                 e:\drone_parachute\build\core\core.a(rcc_f1.c.o)
                                                  e:\drone_parachute\build\core\core.a(adc_f1.c.o)
                                                  e:\drone_parachute\build\core\wirish\boards_setup.cpp.o
rcc_switch_sysclk                                 e:\drone_parachute\build\core\core.a(rcc.c.o)
                                                  e:\drone_parachute\build\core\core.a(rcc_f1.c.o)
                                                  e:\drone_parachute\build\core\wirish\boards.cpp.o
rcc_turn_off_clk                                  e:\drone_parachute\build\core\core.a(rcc.c.o)
                                                  e:\drone_parachute\build\core\wirish\boards.cpp.o
rcc_turn_on_clk                                   e:\drone_parachute\build\core\core.a(rcc.c.o)
                                                  e:\drone_parachute\build\core\core.a(rcc_f1.c.o)
                                                  e:\drone_parachute\build\core\wirish\boards.cpp.o
refresh_imu()                                     e:\drone_parachute\build\sketch\main.ino.cpp.o
setup()                                           e:\drone_parachute\build\sketch\main.ino.cpp.o
                                                  e:\drone_parachute\build\core\core.a(main.cpp.o)
software_init_hook                                c:/users/param/appdata/local/arduino15/packages/arduino/tools/arm-none-eabi-gcc/4.8.3-2014q1/bin/../lib/gcc/arm-none-eabi/4.8.3/../../../../arm-none-eabi/lib/armv7-m/crt0.o
spi_config_gpios                                  e:\drone_parachute\build\core\core.a(spi_f1.c.o)
                                                  e:\drone_parachute\build\libraries\SPI\SPI.cpp.o
spi_foreach                                       e:\drone_parachute\build\core\core.a(spi_f1.c.o)
spi_init                                          e:\drone_parachute\build\core\core.a(spi.c.o)
                                                  e:\drone_parachute\build\libraries\SPI\SPI.cpp.o
spi_master_enable                                 e:\drone_parachute\build\core\core.a(spi.c.o)
                                                  e:\drone_parachute\build\libraries\SPI\SPI.cpp.o
spi_peripheral_disable                            e:\drone_parachute\build\core\core.a(spi.c.o)
                                                  e:\drone_parachute\build\libraries\SPI\SPI.cpp.o
spi_peripheral_enable                             e:\drone_parachute\build\core\core.a(spi.c.o)
spi_rx_dma_disable                                e:\drone_parachute\build\core\core.a(spi.c.o)
                                                  e:\drone_parachute\build\libraries\SPI\SPI.cpp.o
spi_rx_dma_enable                                 e:\drone_parachute\build\core\core.a(spi.c.o)
                                                  e:\drone_parachute\build\libraries\SPI\SPI.cpp.o
spi_slave_enable                                  e:\drone_parachute\build\core\core.a(spi.c.o)
                                                  e:\drone_parachute\build\libraries\SPI\SPI.cpp.o
spi_tx                                            e:\drone_parachute\build\core\core.a(spi.c.o)
                                                  e:\drone_parachute\build\libraries\SPI\SPI.cpp.o
spi_tx_dma_disable                                e:\drone_parachute\build\core\core.a(spi.c.o)
                                                  e:\drone_parachute\build\libraries\SPI\SPI.cpp.o
spi_tx_dma_enable                                 e:\drone_parachute\build\core\core.a(spi.c.o)
                                                  e:\drone_parachute\build\libraries\SPI\SPI.cpp.o
sqrt                                              c:/users/param/appdata/local/arduino15/packages/arduino/tools/arm-none-eabi-gcc/4.8.3-2014q1/bin/../lib/gcc/arm-none-eabi/4.8.3/../../../../arm-none-eabi/lib/armv7-m\libm.a(lib_a-w_sqrt.o)
                                                  e:\drone_parachute\build\sketch\main.ino.cpp.o
start_c                                           e:\drone_parachute\build\core\wirish\start_c.c.o
                                                  e:\drone_parachute\build\core\wirish\start.S.o
strcpy                                            c:/users/param/appdata/local/arduino15/packages/arduino/tools/arm-none-eabi-gcc/4.8.3-2014q1/bin/../lib/gcc/arm-none-eabi/4.8.3/../../../../arm-none-eabi/lib/armv7-m\libc.a(lib_a-strcpy.o)
                                                  e:\drone_parachute\build\core\core.a(cxxabi-compat.cpp.o)
strlen                                            c:/users/param/appdata/local/arduino15/packages/arduino/tools/arm-none-eabi-gcc/4.8.3-2014q1/bin/../lib/gcc/arm-none-eabi/4.8.3/../../../../arm-none-eabi/lib/armv7-m\libc.a(lib_a-strlen.o)
                                                  e:\drone_parachute\build\core\core.a(Print.cpp.o)
systick_attach_callback                           e:\drone_parachute\build\core\core.a(systick.c.o)
systick_disable                                   e:\drone_parachute\build\core\core.a(systick.c.o)
systick_enable                                    e:\drone_parachute\build\core\core.a(systick.c.o)
systick_init                                      e:\drone_parachute\build\core\core.a(systick.c.o)
                                                  e:\drone_parachute\build\core\wirish\boards.cpp.o
systick_uptime_millis                             e:\drone_parachute\build\core\core.a(wirish_time.cpp.o)
                                                  e:\drone_parachute\build\core\core.a(systick.c.o)
                                                  e:\drone_parachute\build\core\core.a(i2c.c.o)
                                                  e:\drone_parachute\build\libraries\SPI\SPI.cpp.o
throb                                             e:\drone_parachute\build\core\core.a(util.c.o)
timer1                                            e:\drone_parachute\build\core\core.a(timer.c.o)
                                                  e:\drone_parachute\build\core\board.cpp.o
timer2                                            e:\drone_parachute\build\core\core.a(timer.c.o)
                                                  e:\drone_parachute\build\core\board.cpp.o
timer3                                            e:\drone_parachute\build\core\core.a(timer.c.o)
                                                  e:\drone_parachute\build\core\board.cpp.o
timer4                                            e:\drone_parachute\build\core\core.a(timer.c.o)
                                                  e:\drone_parachute\build\core\board.cpp.o
timer_attach_interrupt                            e:\drone_parachute\build\core\core.a(timer.c.o)
                                                  e:\drone_parachute\build\core\core.a(HardwareTimer.cpp.o)
timer_detach_interrupt                            e:\drone_parachute\build\core\core.a(timer.c.o)
                                                  e:\drone_parachute\build\core\core.a(HardwareTimer.cpp.o)
timer_disable                                     e:\drone_parachute\build\core\core.a(timer.c.o)
timer_foreach                                     e:\drone_parachute\build\core\core.a(timer.c.o)
                                                  e:\drone_parachute\build\core\core.a(HardwareTimer.cpp.o)
                                                  e:\drone_parachute\build\core\wirish\boards.cpp.o
timer_has_cc_channel                              e:\drone_parachute\build\core\core.a(timer.c.o)
                                                  e:\drone_parachute\build\core\wirish\boards.cpp.o
timer_init                                        e:\drone_parachute\build\core\core.a(timer.c.o)
                                                  e:\drone_parachute\build\core\wirish\boards.cpp.o
timer_set_mode                                    e:\drone_parachute\build\core\core.a(timer.c.o)
                                                  e:\drone_parachute\build\core\core.a(wirish_digital_f1.cpp.o)
                                                  e:\drone_parachute\build\core\core.a(HardwareTimer.cpp.o)
                                                  e:\drone_parachute\build\core\core.a(HardwareSerial.cpp.o)
                                                  e:\drone_parachute\build\libraries\Servo\Servo.cpp.o
                                                  e:\drone_parachute\build\libraries\SPI\SPI.cpp.o
usart_config_gpios_async                          e:\drone_parachute\build\core\core.a(usart_f1.c.o)
                                                  e:\drone_parachute\build\core\core.a(HardwareSerial.cpp.o)
usart_disable                                     e:\drone_parachute\build\core\core.a(usart.c.o)
                                                  e:\drone_parachute\build\core\core.a(HardwareSerial.cpp.o)
usart_enable                                      e:\drone_parachute\build\core\core.a(usart.c.o)
                                                  e:\drone_parachute\build\core\core.a(HardwareSerial.cpp.o)
usart_foreach                                     e:\drone_parachute\build\core\core.a(usart_f1.c.o)
usart_init                                        e:\drone_parachute\build\core\core.a(usart.c.o)
                                                  e:\drone_parachute\build\core\core.a(HardwareSerial.cpp.o)
usart_putudec                                     e:\drone_parachute\build\core\core.a(usart.c.o)
                                                  e:\drone_parachute\build\core\core.a(util.c.o)
usart_rx                                          e:\drone_parachute\build\core\core.a(usart.c.o)
usart_set_baud_rate                               e:\drone_parachute\build\core\core.a(usart_f1.c.o)
                                                  e:\drone_parachute\build\core\core.a(HardwareSerial.cpp.o)
usart_tx                                          e:\drone_parachute\build\core\core.a(usart.c.o)
                                                  e:\drone_parachute\build\core\core.a(util.c.o)
                                                  e:\drone_parachute\build\core\core.a(HardwareSerial.cpp.o)
usb_cdcacm_data_available                         e:\drone_parachute\build\core\core.a(usb_cdcacm.c.o)
usb_cdcacm_disable                                e:\drone_parachute\build\core\core.a(usb_cdcacm.c.o)
usb_cdcacm_enable                                 e:\drone_parachute\build\core\core.a(usb_cdcacm.c.o)
usb_cdcacm_get_baud                               e:\drone_parachute\build\core\core.a(usb_cdcacm.c.o)
usb_cdcacm_get_dtr                                e:\drone_parachute\build\core\core.a(usb_cdcacm.c.o)
usb_cdcacm_get_line_coding                        e:\drone_parachute\build\core\core.a(usb_cdcacm.c.o)
usb_cdcacm_get_n_data_bits                        e:\drone_parachute\build\core\core.a(usb_cdcacm.c.o)
usb_cdcacm_get_parity                             e:\drone_parachute\build\core\core.a(usb_cdcacm.c.o)
usb_cdcacm_get_pending                            e:\drone_parachute\build\core\core.a(usb_cdcacm.c.o)
usb_cdcacm_get_rts                                e:\drone_parachute\build\core\core.a(usb_cdcacm.c.o)
usb_cdcacm_get_stop_bits                          e:\drone_parachute\build\core\core.a(usb_cdcacm.c.o)
usb_cdcacm_is_transmitting                        e:\drone_parachute\build\core\core.a(usb_cdcacm.c.o)
usb_cdcacm_peek                                   e:\drone_parachute\build\core\core.a(usb_cdcacm.c.o)
usb_cdcacm_peek_char                              e:\drone_parachute\build\core\core.a(usb_cdcacm.c.o)
usb_cdcacm_peek_ex                                e:\drone_parachute\build\core\core.a(usb_cdcacm.c.o)
usb_cdcacm_putc                                   e:\drone_parachute\build\core\core.a(usb_cdcacm.c.o)
usb_cdcacm_rx                                     e:\drone_parachute\build\core\core.a(usb_cdcacm.c.o)
usb_cdcacm_set_hooks                              e:\drone_parachute\build\core\core.a(usb_cdcacm.c.o)
usb_cdcacm_tx                                     e:\drone_parachute\build\core\core.a(usb_cdcacm.c.o)
usb_cdcacm_tx_available                           e:\drone_parachute\build\core\core.a(usb_cdcacm.c.o)
usb_init_usblib                                   e:\drone_parachute\build\core\core.a(usb.c.o)
                                                  e:\drone_parachute\build\core\core.a(usb_cdcacm.c.o)
usb_power_off                                     e:\drone_parachute\build\core\core.a(usb.c.o)
                                                  e:\drone_parachute\build\core\core.a(usb_cdcacm.c.o)
usb_set_ep_rx_count                               e:\drone_parachute\build\core\core.a(usb_reg_map.c.o)
                                                  e:\drone_parachute\build\core\core.a(usb_cdcacm.c.o)
vtable for HardwareSerial                         e:\drone_parachute\build\core\core.a(HardwareSerial.cpp.o)
vtable for Print                                  e:\drone_parachute\build\core\core.a(Print.cpp.o)
vtable for SoftWire                               e:\drone_parachute\build\libraries\Wire\SoftWire.cpp.o
vtable for Stream                                 e:\drone_parachute\build\core\core.a(HardwareSerial.cpp.o)
vtable for TwoWire                                e:\drone_parachute\build\libraries\Wire\Wire.cpp.o
vtable for WireBase                               e:\drone_parachute\build\libraries\Wire\utility\WireBase.cpp.o
                                                  e:\drone_parachute\build\libraries\Wire\Wire.cpp.o
                                                  e:\drone_parachute\build\libraries\Wire\SoftWire.cpp.o
wInterrupt_Mask                                   e:\drone_parachute\build\core\core.a(usb_init.c.o)
wait_for_state_change                             e:\drone_parachute\build\core\core.a(i2c.c.o)
wirish::priv::board_reset_pll()                   e:\drone_parachute\build\core\wirish\boards_setup.cpp.o
                                                  e:\drone_parachute\build\core\wirish\boards.cpp.o
wirish::priv::board_setup_clock_prescalers()      e:\drone_parachute\build\core\wirish\boards_setup.cpp.o
                                                  e:\drone_parachute\build\core\wirish\boards.cpp.o
wirish::priv::board_setup_gpio()                  e:\drone_parachute\build\core\wirish\boards_setup.cpp.o
                                                  e:\drone_parachute\build\core\wirish\boards.cpp.o
wirish::priv::board_setup_usb()                   e:\drone_parachute\build\core\wirish\boards_setup.cpp.o
                                                  e:\drone_parachute\build\core\wirish\boards.cpp.o
wirish::priv::series_init()                       e:\drone_parachute\build\core\wirish\boards_setup.cpp.o
                                                  e:\drone_parachute\build\core\wirish\boards.cpp.o
wirish::priv::w_adc_pre                           e:\drone_parachute\build\core\wirish\boards_setup.cpp.o
                                                  e:\drone_parachute\build\core\wirish\boards.cpp.o
wirish::priv::w_adc_smp                           e:\drone_parachute\build\core\wirish\boards_setup.cpp.o
                                                  e:\drone_parachute\build\core\wirish\boards.cpp.o
wirish::priv::w_board_pll_cfg                     e:\drone_parachute\build\core\wirish\boards_setup.cpp.o
                                                  e:\drone_parachute\build\core\wirish\boards.cpp.o
yield                                             e:\drone_parachute\build\core\core.a(hooks.c.o)
                                                  e:\drone_parachute\build\core\core.a(wirish_time.cpp.o)
